(lp0
(lp1
S's.ytimg.com'
p2
aS'scontent-b.xx.fbcdn.net'
p3
aS'scontent-a.xx.fbcdn.net'
p4
aS'r18---sn-o097znes.googlevideo.com'
p5
aS'i1.ytimg.com'
p6
aS'www.youtube-nocookie.com'
p7
aS's.youtube.com'
p8
aS'r19---sn-o097znes.googlevideo.com'
p9
aS'r1---sn-a8au-naje.googlevideo.com'
p10
aS'r2---sn-a8au-naje.googlevideo.com'
p11
aS'r3---sn-a8au-naje.googlevideo.com'
p12
aS'r20---sn-o097znes.googlevideo.com'
p13
aS'r4---sn-a8au-naje.googlevideo.com'
p14
aS'r5---sn-a8au-naje.googlevideo.com'
p15
aS'r1---sn-a5m7lnes.googlevideo.com'
p16
aS'r6---sn-a8au-naje.googlevideo.com'
p17
aS'r1---sn-o097znes.googlevideo.com'
p18
aS'r7---sn-a8au-naje.googlevideo.com'
p19
aS'r8---sn-a8au-naje.googlevideo.com'
p20
aS'r2---sn-o097znes.googlevideo.com'
p21
aS'r3---sn-o097znes.googlevideo.com'
p22
aS'r4---sn-o097znes.googlevideo.com'
p23
aS'r6---sn-o097znes.googlevideo.com'
p24
aS'r7---sn-o097znes.googlevideo.com'
p25
aS'r5---sn-o097znes.googlevideo.com'
p26
aS'r8---sn-o097znes.googlevideo.com'
p27
aS'r10---sn-o097znes.googlevideo.com'
p28
aS'r9---sn-o097znes.googlevideo.com'
p29
aS'r11---sn-o097znes.googlevideo.com'
p30
aS'r12---sn-o097znes.googlevideo.com'
p31
aS'r13---sn-o097znes.googlevideo.com'
p32
aS'r15---sn-o097znes.googlevideo.com'
p33
aS'r16---sn-o097znes.googlevideo.com'
p34
aS'r17---sn-o097znes.googlevideo.com'
p35
aS's.ytimg.com'
p36
aS'scontent-b.xx.fbcdn.net'
p37
aS'scontent-a.xx.fbcdn.net'
p38
aS'r18---sn-o097znes.googlevideo.com'
p39
aS's.youtube.com'
p40
aS'i1.ytimg.com'
p41
aS'www.youtube-nocookie.com'
p42
aS'r19---sn-o097znes.googlevideo.com'
p43
aS'r1---sn-a8au-naje.googlevideo.com'
p44
aS'r2---sn-a8au-naje.googlevideo.com'
p45
aS'r3---sn-a8au-naje.googlevideo.com'
p46
aS'r20---sn-o097znes.googlevideo.com'
p47
aS'r6---sn-a8au-naje.googlevideo.com'
p48
aS'r4---sn-a8au-naje.googlevideo.com'
p49
aS'r5---sn-a8au-naje.googlevideo.com'
p50
aS'r1---sn-a5m7lnes.googlevideo.com'
p51
aS'r1---sn-o097znes.googlevideo.com'
p52
aS'r7---sn-a8au-naje.googlevideo.com'
p53
aS'r8---sn-a8au-naje.googlevideo.com'
p54
aS'r2---sn-o097znes.googlevideo.com'
p55
aS'r3---sn-o097znes.googlevideo.com'
p56
aS'r4---sn-o097znes.googlevideo.com'
p57
aS'r5---sn-o097znes.googlevideo.com'
p58
aS'r6---sn-o097znes.googlevideo.com'
p59
aS'r7---sn-o097znes.googlevideo.com'
p60
aS'r8---sn-o097znes.googlevideo.com'
p61
aS'r10---sn-o097znes.googlevideo.com'
p62
aS'r9---sn-o097znes.googlevideo.com'
p63
aS'r11---sn-o097znes.googlevideo.com'
p64
aS'r12---sn-o097znes.googlevideo.com'
p65
aS'r13---sn-o097znes.googlevideo.com'
p66
aS'r15---sn-o097znes.googlevideo.com'
p67
aS'r16---sn-o097znes.googlevideo.com'
p68
aS'r17---sn-o097znes.googlevideo.com'
p69
aa(lp70
V2a00:1450:4002:802::1001
p71
aV2a03:2880:f011:108:face:b00c::1
p72
aV2a03:2880:f011:8:face:b00c::1
p73
aV2001:4860:4001:10::17
p74
aV2607:f8b0:400a:805::1009
p75
aV2607:f8b0:400a:805::1007
p76
aV2a00:1450:4002:802::1000
p77
aV2001:4860:4001:10::18
p78
aV2001:1900:2200:20::c
p79
aV2001:1900:2200:20::d
p80
aV2001:1900:2200:20::e
p81
aV2001:4860:4001:10::19
p82
aV2001:1900:2200:20::f
p83
aV2001:1900:2200:20::10
p84
aV2607:f8b0:4007:16::6
p85
aV2001:1900:2200:20::11
p86
aV2001:4860:4001:10::6
p87
aV2001:1900:2200:20::12
p88
aV2001:1900:2200:20::13
p89
aV2001:4860:4001:10::7
p90
aV2001:4860:4001:10::8
p91
aV2001:4860:4001:10::9
p92
aV2001:4860:4001:10::b
p93
aV2001:4860:4001:10::c
p94
aV2001:4860:4001:10::a
p95
aV2001:4860:4001:10::d
p96
aV2001:4860:4001:10::f
p97
aV2001:4860:4001:10::e
p98
aV2001:4860:4001:10::10
p99
aV2001:4860:4001:10::11
p100
aV2001:4860:4001:10::12
p101
aV2001:4860:4001:10::14
p102
aV2001:4860:4001:10::15
p103
aV2001:4860:4001:10::16
p104
aV2607:f8b0:400a:805::1004
p105
aV2a03:2880:f012:108:face:b00c::1
p106
aV2a03:2880:f012:407:face:b00c::1
p107
aV2001:4860:4001:10::17
p108
aV2607:f8b0:400a:804::1006
p109
aV2607:f8b0:400a:805::1009
p110
aV2607:f8b0:400a:805::1007
p111
aV2001:4860:4001:10::18
p112
aV2001:1900:2200:20::c
p113
aV2001:1900:2200:20::d
p114
aV2001:1900:2200:20::e
p115
aV2001:4860:4001:10::19
p116
aV2001:1900:2200:20::11
p117
aV2001:1900:2200:20::f
p118
aV2001:1900:2200:20::10
p119
aV2607:f8b0:4007:16::6
p120
aV2001:4860:4001:10::6
p121
aV2001:1900:2200:20::12
p122
aV2001:1900:2200:20::13
p123
aV2001:4860:4001:10::7
p124
aV2001:4860:4001:10::8
p125
aV2001:4860:4001:10::9
p126
aV2001:4860:4001:10::a
p127
aV2001:4860:4001:10::b
p128
aV2001:4860:4001:10::c
p129
aV2001:4860:4001:10::d
p130
aV2001:4860:4001:10::f
p131
aV2001:4860:4001:10::e
p132
aV2001:4860:4001:10::10
p133
aV2001:4860:4001:10::11
p134
aV2001:4860:4001:10::12
p135
aV2001:4860:4001:10::14
p136
aV2001:4860:4001:10::15
p137
aV2001:4860:4001:10::16
p138
aa.