(lp0
(lp1
S'attachments.facebook.com'
p2
aS'apps.facebook.com'
p3
aS'connect.facebook.com'
p4
aS'graph.facebook.com'
p5
aS'www.facebook.com'
p6
aS'zh-cn.facebook.com'
p7
aS'333.channel.facebook.com'
p8
aS'zh-tw.facebook.com'
p9
aS'333.ctest.facebook.com'
p10
aS'developers.v6.facebook.com'
p11
aS'error.12.channel.facebook.com'
p12
aS'developers.facebook.com'
p13
aS'pixel.facebook.com'
p14
aS'pixel.v6.facebook.com'
p15
aS'm.facebook.com'
p16
aS'www.lisp6.facebook.com'
p17
aS'upload.youtube.com'
p18
aS'insight.youtube.com'
p19
aS'clients1.youtube.com'
p20
aS'apiblog.youtube.com'
p21
aS'v1.lscache1.c.youtube.com'
p22
aS'v1.lscache2.c.youtube.com'
p23
aS'v1.lscache3.c.youtube.com'
p24
aS'v1.lscache4.c.youtube.com'
p25
aS'v1.lscache5.c.youtube.com'
p26
aS'v1.lscache6.c.youtube.com'
p27
aS'v1.lscache7.c.youtube.com'
p28
aS'v1.lscache8.c.youtube.com'
p29
aS'v2.lscache1.c.youtube.com'
p30
aS'v2.lscache2.c.youtube.com'
p31
aS'v2.lscache3.c.youtube.com'
p32
aS'v7.lscache2.c.youtube.com'
p33
aS'v7.lscache3.c.youtube.com'
p34
aS'v7.lscache4.c.youtube.com'
p35
aS'v7.lscache5.c.youtube.com'
p36
aS'v7.lscache6.c.youtube.com'
p37
aS'v7.lscache7.c.youtube.com'
p38
aS'v7.lscache8.c.youtube.com'
p39
aS'v8.lscache1.c.youtube.com'
p40
aS'v8.lscache2.c.youtube.com'
p41
aS'v8.lscache3.c.youtube.com'
p42
aS'v8.lscache4.c.youtube.com'
p43
aS'v8.lscache5.c.youtube.com'
p44
aS'v8.lscache6.c.youtube.com'
p45
aS'v8.lscache8.c.youtube.com'
p46
aS'v8.lscache7.c.youtube.com'
p47
aS'v13.lscache7.c.youtube.com'
p48
aS'v13.lscache8.c.youtube.com'
p49
aS'v14.lscache1.c.youtube.com'
p50
aS'v14.lscache2.c.youtube.com'
p51
aS'v14.lscache3.c.youtube.com'
p52
aS'v14.lscache4.c.youtube.com'
p53
aS'v14.lscache5.c.youtube.com'
p54
aS'v14.lscache6.c.youtube.com'
p55
aS'v14.lscache7.c.youtube.com'
p56
aS'v14.lscache8.c.youtube.com'
p57
aS'v15.lscache1.c.youtube.com'
p58
aS'v15.lscache2.c.youtube.com'
p59
aS'v15.lscache3.c.youtube.com'
p60
aS'v15.lscache4.c.youtube.com'
p61
aS'v15.lscache5.c.youtube.com'
p62
aS'v15.lscache6.c.youtube.com'
p63
aS'v20.lscache4.c.youtube.com'
p64
aS'v20.lscache5.c.youtube.com'
p65
aS'v20.lscache6.c.youtube.com'
p66
aS'v20.lscache7.c.youtube.com'
p67
aS'v20.lscache8.c.youtube.com'
p68
aS'v21.lscache1.c.youtube.com'
p69
aS'v21.lscache2.c.youtube.com'
p70
aS'v21.lscache3.c.youtube.com'
p71
aS'v21.lscache4.c.youtube.com'
p72
aS'v21.lscache5.c.youtube.com'
p73
aS'v21.lscache6.c.youtube.com'
p74
aS'v21.lscache7.c.youtube.com'
p75
aS'v21.lscache8.c.youtube.com'
p76
aS'v22.lscache1.c.youtube.com'
p77
aS'v22.lscache2.c.youtube.com'
p78
aS'v22.lscache3.c.youtube.com'
p79
aS'v3.nonxt1.c.youtube.com'
p80
aS'v3.nonxt2.c.youtube.com'
p81
aS'v3.nonxt3.c.youtube.com'
p82
aS'v3.nonxt4.c.youtube.com'
p83
aS'v3.nonxt5.c.youtube.com'
p84
aS'v3.nonxt6.c.youtube.com'
p85
aS'v3.nonxt7.c.youtube.com'
p86
aS'v3.nonxt8.c.youtube.com'
p87
aS'v4.nonxt1.c.youtube.com'
p88
aS'v4.nonxt2.c.youtube.com'
p89
aS'v4.nonxt3.c.youtube.com'
p90
aS'v4.nonxt4.c.youtube.com'
p91
aS'v4.nonxt5.c.youtube.com'
p92
aS'v4.nonxt6.c.youtube.com'
p93
aS'v4.nonxt7.c.youtube.com'
p94
aS'v4.nonxt8.c.youtube.com'
p95
aS'v9.nonxt6.c.youtube.com'
p96
aS'v9.nonxt7.c.youtube.com'
p97
aS'v9.nonxt8.c.youtube.com'
p98
aS'v10.nonxt1.c.youtube.com'
p99
aS'v10.nonxt2.c.youtube.com'
p100
aS'v10.nonxt3.c.youtube.com'
p101
aS'v10.nonxt4.c.youtube.com'
p102
aS'v10.nonxt5.c.youtube.com'
p103
aS'v10.nonxt6.c.youtube.com'
p104
aS'v10.nonxt7.c.youtube.com'
p105
aS'v10.nonxt8.c.youtube.com'
p106
aS'v11.nonxt1.c.youtube.com'
p107
aS'v11.nonxt2.c.youtube.com'
p108
aS'v11.nonxt3.c.youtube.com'
p109
aS'v11.nonxt4.c.youtube.com'
p110
aS'v11.nonxt5.c.youtube.com'
p111
aS'v16.nonxt3.c.youtube.com'
p112
aS'v16.nonxt4.c.youtube.com'
p113
aS'v16.nonxt5.c.youtube.com'
p114
aS'v16.nonxt6.c.youtube.com'
p115
aS'v16.nonxt8.c.youtube.com'
p116
aS'v16.nonxt7.c.youtube.com'
p117
aS'v17.nonxt1.c.youtube.com'
p118
aS'v17.nonxt2.c.youtube.com'
p119
aS'v17.nonxt3.c.youtube.com'
p120
aS'v17.nonxt4.c.youtube.com'
p121
aS'v17.nonxt6.c.youtube.com'
p122
aS'v17.nonxt5.c.youtube.com'
p123
aS'v17.nonxt7.c.youtube.com'
p124
aS'v17.nonxt8.c.youtube.com'
p125
aS'v18.nonxt1.c.youtube.com'
p126
aS'v18.nonxt2.c.youtube.com'
p127
aS'v22.nonxt8.c.youtube.com'
p128
aS'v23.nonxt1.c.youtube.com'
p129
aS'v23.nonxt2.c.youtube.com'
p130
aS'v23.nonxt3.c.youtube.com'
p131
aS'v23.nonxt4.c.youtube.com'
p132
aS'v23.nonxt5.c.youtube.com'
p133
aS'v23.nonxt6.c.youtube.com'
p134
aS'v23.nonxt7.c.youtube.com'
p135
aS'v23.nonxt8.c.youtube.com'
p136
aS'v24.nonxt1.c.youtube.com'
p137
aS'v24.nonxt2.c.youtube.com'
p138
aS'v24.nonxt3.c.youtube.com'
p139
aS'v24.nonxt4.c.youtube.com'
p140
aS'v24.nonxt5.c.youtube.com'
p141
aS'v24.nonxt6.c.youtube.com'
p142
aS'v5.cache5.c.youtube.com'
p143
aS'v5.cache6.c.youtube.com'
p144
aS'v5.cache7.c.youtube.com'
p145
aS'v5.cache8.c.youtube.com'
p146
aS'v6.cache1.c.youtube.com'
p147
aS'v6.cache2.c.youtube.com'
p148
aS'v6.cache3.c.youtube.com'
p149
aS'v6.cache4.c.youtube.com'
p150
aS'v6.cache5.c.youtube.com'
p151
aS'v6.cache6.c.youtube.com'
p152
aS'v6.cache7.c.youtube.com'
p153
aS'v6.cache8.c.youtube.com'
p154
aS'v7.cache1.c.youtube.com'
p155
aS'v7.cache2.c.youtube.com'
p156
aS'v7.cache3.c.youtube.com'
p157
aS'v12.cache2.c.youtube.com'
p158
aS'v12.cache3.c.youtube.com'
p159
aS'v12.cache4.c.youtube.com'
p160
aS'v12.cache5.c.youtube.com'
p161
aS'v12.cache6.c.youtube.com'
p162
aS'v12.cache7.c.youtube.com'
p163
aS'v12.cache8.c.youtube.com'
p164
aS'v13.cache1.c.youtube.com'
p165
aS'v13.cache2.c.youtube.com'
p166
aS'v13.cache3.c.youtube.com'
p167
aS'v13.cache4.c.youtube.com'
p168
aS'v13.cache5.c.youtube.com'
p169
aS'v13.cache6.c.youtube.com'
p170
aS'v13.cache7.c.youtube.com'
p171
aS'v13.cache8.c.youtube.com'
p172
aS'v14.cache1.c.youtube.com'
p173
aS'v14.cache2.c.youtube.com'
p174
aS'v14.cache3.c.youtube.com'
p175
aS'v18.cache7.c.youtube.com'
p176
aS'v18.cache8.c.youtube.com'
p177
aS'v19.cache1.c.youtube.com'
p178
aS'v19.cache2.c.youtube.com'
p179
aS'v19.cache3.c.youtube.com'
p180
aS'v19.cache4.c.youtube.com'
p181
aS'v19.cache5.c.youtube.com'
p182
aS'v19.cache6.c.youtube.com'
p183
aS'v19.cache7.c.youtube.com'
p184
aS'v19.cache8.c.youtube.com'
p185
aS'v20.cache1.c.youtube.com'
p186
aS'v20.cache2.c.youtube.com'
p187
aS'v20.cache3.c.youtube.com'
p188
aS'v20.cache4.c.youtube.com'
p189
aS'v20.cache5.c.youtube.com'
p190
aS'v20.cache6.c.youtube.com'
p191
aS'v20.cache7.c.youtube.com'
p192
aS'tc.v1.cache4.c.youtube.com'
p193
aS'tc.v1.cache5.c.youtube.com'
p194
aS'tc.v1.cache6.c.youtube.com'
p195
aS'tc.v1.cache7.c.youtube.com'
p196
aS'tc.v1.cache8.c.youtube.com'
p197
aS'tc.v2.cache1.c.youtube.com'
p198
aS'tc.v2.cache2.c.youtube.com'
p199
aS'tc.v2.cache3.c.youtube.com'
p200
aS'tc.v2.cache4.c.youtube.com'
p201
aS'tc.v2.cache5.c.youtube.com'
p202
aS'tc.v2.cache6.c.youtube.com'
p203
aS'tc.v2.cache7.c.youtube.com'
p204
aS'tc.v2.cache8.c.youtube.com'
p205
aS'tc.v3.cache1.c.youtube.com'
p206
aS'tc.v3.cache2.c.youtube.com'
p207
aS'tc.v8.cache1.c.youtube.com'
p208
aS'tc.v8.cache2.c.youtube.com'
p209
aS'tc.v8.cache3.c.youtube.com'
p210
aS'tc.v8.cache4.c.youtube.com'
p211
aS'tc.v8.cache5.c.youtube.com'
p212
aS'tc.v8.cache6.c.youtube.com'
p213
aS'tc.v8.cache7.c.youtube.com'
p214
aS'tc.v8.cache8.c.youtube.com'
p215
aS'tc.v9.cache1.c.youtube.com'
p216
aS'tc.v9.cache2.c.youtube.com'
p217
aS'tc.v9.cache3.c.youtube.com'
p218
aS'tc.v9.cache4.c.youtube.com'
p219
aS'tc.v9.cache5.c.youtube.com'
p220
aS'tc.v9.cache6.c.youtube.com'
p221
aS'tc.v9.cache7.c.youtube.com'
p222
aS'tc.v14.cache6.c.youtube.com'
p223
aS'tc.v14.cache7.c.youtube.com'
p224
aS'tc.v14.cache8.c.youtube.com'
p225
aS'tc.v15.cache1.c.youtube.com'
p226
aS'tc.v15.cache2.c.youtube.com'
p227
aS'tc.v15.cache3.c.youtube.com'
p228
aS'tc.v15.cache4.c.youtube.com'
p229
aS'tc.v15.cache5.c.youtube.com'
p230
aS'tc.v15.cache6.c.youtube.com'
p231
aS'tc.v15.cache8.c.youtube.com'
p232
aS'tc.v15.cache7.c.youtube.com'
p233
aS'tc.v16.cache1.c.youtube.com'
p234
aS'tc.v16.cache2.c.youtube.com'
p235
aS'tc.v21.cache3.c.youtube.com'
p236
aS'tc.v21.cache4.c.youtube.com'
p237
aS'tc.v21.cache5.c.youtube.com'
p238
aS'tc.v21.cache6.c.youtube.com'
p239
aS'tc.v21.cache7.c.youtube.com'
p240
aS'tc.v21.cache8.c.youtube.com'
p241
aS'tc.v22.cache1.c.youtube.com'
p242
aS'tc.v22.cache2.c.youtube.com'
p243
aS'tc.v22.cache3.c.youtube.com'
p244
aS'tc.v22.cache4.c.youtube.com'
p245
aS'tc.v22.cache5.c.youtube.com'
p246
aS'tc.v22.cache6.c.youtube.com'
p247
aS'tc.v22.cache7.c.youtube.com'
p248
aS'tc.v22.cache8.c.youtube.com'
p249
aS'r12.tpe05s04.c.youtube.com'
p250
aS'r13.tpe05s03.c.youtube.com'
p251
aS'r13.tpe05s04.c.youtube.com'
p252
aS'r14.tpe05s03.c.youtube.com'
p253
aS'r14.tpe05s04.c.youtube.com'
p254
aS'r15.tpe05s03.c.youtube.com'
p255
aS'r15.tpe05s04.c.youtube.com'
p256
aS'r16.tpe05s03.c.youtube.com'
p257
aS'r16.tpe05s04.c.youtube.com'
p258
aS'r17.tpe05s03.c.youtube.com'
p259
aS'r17.tpe05s04.c.youtube.com'
p260
aS'r18.tpe05s03.c.youtube.com'
p261
aS'r18.tpe05s04.c.youtube.com'
p262
aS'r19.tpe05s04.c.youtube.com'
p263
aS'r19.tpe05s03.c.youtube.com'
p264
aS'r10.hkg03s05.c.youtube.com'
p265
aS'r10.hkg03s06.c.youtube.com'
p266
aS'r10.hkg03s07.c.youtube.com'
p267
aS'r10.hkg03s08.c.youtube.com'
p268
aS'r11.hkg03s05.c.youtube.com'
p269
aS'r11.hkg03s06.c.youtube.com'
p270
aS'r11.hkg03s07.c.youtube.com'
p271
aS'r11.hkg03s08.c.youtube.com'
p272
aS'r12.hkg03s05.c.youtube.com'
p273
aS'r12.hkg03s06.c.youtube.com'
p274
aS'r12.hkg03s07.c.youtube.com'
p275
aS'r12.hkg03s08.c.youtube.com'
p276
aS'r13.hkg03s05.c.youtube.com'
p277
aS'r13.hkg03s06.c.youtube.com'
p278
aS'r3.hkg05s02.c.youtube.com'
p279
aS'r3.hkg05s03.c.youtube.com'
p280
aS'r3.hkg05s04.c.youtube.com'
p281
aS'r4.hkg05s01.c.youtube.com'
p282
aS'r4.hkg05s02.c.youtube.com'
p283
aS'r4.hkg05s03.c.youtube.com'
p284
aS'r4.hkg05s04.c.youtube.com'
p285
aS'r5.hkg05s01.c.youtube.com'
p286
aS'r5.hkg05s02.c.youtube.com'
p287
aS'r5.hkg05s03.c.youtube.com'
p288
aS'r5.hkg05s04.c.youtube.com'
p289
aS'r6.hkg05s01.c.youtube.com'
p290
aS'r6.hkg05s02.c.youtube.com'
p291
aS'r6.hkg05s03.c.youtube.com'
p292
aS'r6.hkg05s04.c.youtube.com'
p293
aS'r7.hkg05s01.c.youtube.com'
p294
aS'r7.hkg05s02.c.youtube.com'
p295
aS'r7.hkg05s03.c.youtube.com'
p296
aS'r16.hkg05s03.c.youtube.com'
p297
aS'r16.hkg05s04.c.youtube.com'
p298
aS'r17.hkg05s01.c.youtube.com'
p299
aS'r17.hkg05s02.c.youtube.com'
p300
aS'r17.hkg05s03.c.youtube.com'
p301
aS'r17.hkg05s04.c.youtube.com'
p302
aS'r18.hkg05s01.c.youtube.com'
p303
aS'r18.hkg05s02.c.youtube.com'
p304
aS'r18.hkg05s03.c.youtube.com'
p305
aS'r18.hkg05s04.c.youtube.com'
p306
aS'r19.hkg05s01.c.youtube.com'
p307
aS'r19.hkg05s02.c.youtube.com'
p308
aS'r19.hkg05s03.c.youtube.com'
p309
aS'r19.hkg05s04.c.youtube.com'
p310
aS'r20.hkg05s01.c.youtube.com'
p311
aS'r20.hkg05s02.c.youtube.com'
p312
aS'333.channel.facebook.com'
p313
aS'333.ctest.facebook.com'
p314
aS'developers.v6.facebook.com'
p315
aS'error.12.channel.facebook.com'
p316
aS'check6.facebook.com'
p317
aS'upload.facebook.com'
p318
aS'vupload.facebook.com'
p319
aS's-static.ak.facebook.com'
p320
aS'0-333.channel.facebook.com'
p321
aS'1-333.channel.facebook.com'
p322
aS'2-333.channel.facebook.com'
p323
aS'3-333.channel.facebook.com'
p324
aS'4-333.channel.facebook.com'
p325
aS'5-333.channel.facebook.com'
p326
aS'm.lisp6.facebook.com'
p327
aS'6-333.channel.facebook.com'
p328
aS'www.lisp6.facebook.com'
p329
aS'photos-y.ak.fbcdn.net'
p330
aS'photos-z.ak.fbcdn.net'
p331
aS'photos-w.ak.fbcdn.net'
p332
aS'photos-x.ak.fbcdn.net'
p333
aS'youtube.com'
p334
aS'www.youtube.com'
p335
aS'au.youtube.com'
p336
aS'ca.youtube.com'
p337
aS'de.youtube.com'
p338
aS'fr.youtube.com'
p339
aS'jp.youtube.com'
p340
aS'ru.youtube.com'
p341
aS'uk.youtube.com'
p342
aS'tw.youtube.com'
p343
aS'ads.youtube.com'
p344
aS'www.youtube-nocookie.com'
p345
aS'youtube-ui.l.google.com'
p346
aS'm.youtube.com'
p347
aS'gdata.youtube.com'
p348
aS'stage.gdata.youtube.com'
p349
aS's.youtube.com'
p350
aS's2.youtube.com'
p351
aS'accounts.youtube.com'
p352
aS'img.youtube.com'
p353
aS'clients1.youtube.com'
p354
aS'help.youtube.com'
p355
aS'v2.lscache4.c.youtube.com'
p356
aS'v2.lscache5.c.youtube.com'
p357
aS'v2.lscache6.c.youtube.com'
p358
aS'v2.lscache7.c.youtube.com'
p359
aS'v2.lscache8.c.youtube.com'
p360
aS'v3.lscache1.c.youtube.com'
p361
aS'v3.lscache2.c.youtube.com'
p362
aS'v3.lscache3.c.youtube.com'
p363
aS'v3.lscache4.c.youtube.com'
p364
aS'v3.lscache5.c.youtube.com'
p365
aS'v3.lscache6.c.youtube.com'
p366
aS'v3.lscache7.c.youtube.com'
p367
aS'v3.lscache8.c.youtube.com'
p368
aS'v4.lscache1.c.youtube.com'
p369
aS'v4.lscache2.c.youtube.com'
p370
aS'v4.lscache3.c.youtube.com'
p371
aS'v4.lscache4.c.youtube.com'
p372
aS'v4.lscache5.c.youtube.com'
p373
aS'v4.lscache6.c.youtube.com'
p374
aS'v4.lscache7.c.youtube.com'
p375
aS'v4.lscache8.c.youtube.com'
p376
aS'v5.lscache1.c.youtube.com'
p377
aS'v5.lscache2.c.youtube.com'
p378
aS'v5.lscache4.c.youtube.com'
p379
aS'v5.lscache3.c.youtube.com'
p380
aS'v5.lscache5.c.youtube.com'
p381
aS'v5.lscache6.c.youtube.com'
p382
aS'v5.lscache7.c.youtube.com'
p383
aS'v5.lscache8.c.youtube.com'
p384
aS'v6.lscache1.c.youtube.com'
p385
aS'v6.lscache2.c.youtube.com'
p386
aS'v6.lscache3.c.youtube.com'
p387
aS'v6.lscache4.c.youtube.com'
p388
aS'v6.lscache5.c.youtube.com'
p389
aS'v6.lscache6.c.youtube.com'
p390
aS'v6.lscache7.c.youtube.com'
p391
aS'v6.lscache8.c.youtube.com'
p392
aS'v7.lscache1.c.youtube.com'
p393
aS'v8.lscache8.c.youtube.com'
p394
aS'v9.lscache1.c.youtube.com'
p395
aS'v9.lscache2.c.youtube.com'
p396
aS'v9.lscache3.c.youtube.com'
p397
aS'v9.lscache4.c.youtube.com'
p398
aS'v9.lscache5.c.youtube.com'
p399
aS'v9.lscache6.c.youtube.com'
p400
aS'v9.lscache7.c.youtube.com'
p401
aS'v9.lscache8.c.youtube.com'
p402
aS'v10.lscache1.c.youtube.com'
p403
aS'v10.lscache2.c.youtube.com'
p404
aS'v10.lscache3.c.youtube.com'
p405
aS'v10.lscache4.c.youtube.com'
p406
aS'v10.lscache5.c.youtube.com'
p407
aS'v10.lscache6.c.youtube.com'
p408
aS'v10.lscache7.c.youtube.com'
p409
aS'v10.lscache8.c.youtube.com'
p410
aS'v11.lscache1.c.youtube.com'
p411
aS'v11.lscache2.c.youtube.com'
p412
aS'v11.lscache3.c.youtube.com'
p413
aS'v11.lscache4.c.youtube.com'
p414
aS'v11.lscache5.c.youtube.com'
p415
aS'v11.lscache6.c.youtube.com'
p416
aS'v11.lscache7.c.youtube.com'
p417
aS'v11.lscache8.c.youtube.com'
p418
aS'v12.lscache1.c.youtube.com'
p419
aS'v12.lscache2.c.youtube.com'
p420
aS'v12.lscache3.c.youtube.com'
p421
aS'v12.lscache4.c.youtube.com'
p422
aS'v12.lscache5.c.youtube.com'
p423
aS'v12.lscache6.c.youtube.com'
p424
aS'v12.lscache7.c.youtube.com'
p425
aS'v12.lscache8.c.youtube.com'
p426
aS'v13.lscache1.c.youtube.com'
p427
aS'v13.lscache2.c.youtube.com'
p428
aS'v13.lscache3.c.youtube.com'
p429
aS'v13.lscache4.c.youtube.com'
p430
aS'v13.lscache5.c.youtube.com'
p431
aS'v13.lscache6.c.youtube.com'
p432
aS'v15.lscache7.c.youtube.com'
p433
aS'v15.lscache8.c.youtube.com'
p434
aS'v16.lscache1.c.youtube.com'
p435
aS'v16.lscache2.c.youtube.com'
p436
aS'v16.lscache3.c.youtube.com'
p437
aS'v16.lscache4.c.youtube.com'
p438
aS'v16.lscache5.c.youtube.com'
p439
aS'v16.lscache6.c.youtube.com'
p440
aS'v16.lscache7.c.youtube.com'
p441
aS'v16.lscache8.c.youtube.com'
p442
aS'v17.lscache1.c.youtube.com'
p443
aS'v17.lscache2.c.youtube.com'
p444
aS'v17.lscache3.c.youtube.com'
p445
aS'v17.lscache4.c.youtube.com'
p446
aS'v17.lscache5.c.youtube.com'
p447
aS'v17.lscache6.c.youtube.com'
p448
aS'v17.lscache7.c.youtube.com'
p449
aS'v17.lscache8.c.youtube.com'
p450
aS'v18.lscache1.c.youtube.com'
p451
aS'v18.lscache2.c.youtube.com'
p452
aS'v18.lscache3.c.youtube.com'
p453
aS'v18.lscache4.c.youtube.com'
p454
aS'v18.lscache5.c.youtube.com'
p455
aS'v18.lscache6.c.youtube.com'
p456
aS'v18.lscache7.c.youtube.com'
p457
aS'v18.lscache8.c.youtube.com'
p458
aS'v19.lscache1.c.youtube.com'
p459
aS'v19.lscache2.c.youtube.com'
p460
aS'v19.lscache3.c.youtube.com'
p461
aS'v19.lscache4.c.youtube.com'
p462
aS'v19.lscache6.c.youtube.com'
p463
aS'v19.lscache5.c.youtube.com'
p464
aS'v19.lscache7.c.youtube.com'
p465
aS'v19.lscache8.c.youtube.com'
p466
aS'v20.lscache1.c.youtube.com'
p467
aS'v20.lscache2.c.youtube.com'
p468
aS'v20.lscache3.c.youtube.com'
p469
aS'v22.lscache4.c.youtube.com'
p470
aS'v22.lscache5.c.youtube.com'
p471
aS'v22.lscache6.c.youtube.com'
p472
aS'v22.lscache7.c.youtube.com'
p473
aS'v22.lscache8.c.youtube.com'
p474
aS'v23.lscache1.c.youtube.com'
p475
aS'v23.lscache2.c.youtube.com'
p476
aS'v23.lscache3.c.youtube.com'
p477
aS'v23.lscache4.c.youtube.com'
p478
aS'v23.lscache5.c.youtube.com'
p479
aS'v23.lscache6.c.youtube.com'
p480
aS'v23.lscache8.c.youtube.com'
p481
aS'v23.lscache7.c.youtube.com'
p482
aS'v24.lscache1.c.youtube.com'
p483
aS'v24.lscache2.c.youtube.com'
p484
aS'v24.lscache3.c.youtube.com'
p485
aS'v24.lscache4.c.youtube.com'
p486
aS'v24.lscache5.c.youtube.com'
p487
aS'v24.lscache6.c.youtube.com'
p488
aS'v24.lscache7.c.youtube.com'
p489
aS'v24.lscache8.c.youtube.com'
p490
aS'v1.nonxt1.c.youtube.com'
p491
aS'v1.nonxt2.c.youtube.com'
p492
aS'v1.nonxt3.c.youtube.com'
p493
aS'v1.nonxt4.c.youtube.com'
p494
aS'v1.nonxt5.c.youtube.com'
p495
aS'v1.nonxt6.c.youtube.com'
p496
aS'v1.nonxt7.c.youtube.com'
p497
aS'v1.nonxt8.c.youtube.com'
p498
aS'v2.nonxt1.c.youtube.com'
p499
aS'v2.nonxt2.c.youtube.com'
p500
aS'v2.nonxt3.c.youtube.com'
p501
aS'v2.nonxt4.c.youtube.com'
p502
aS'v2.nonxt5.c.youtube.com'
p503
aS'v2.nonxt6.c.youtube.com'
p504
aS'v2.nonxt7.c.youtube.com'
p505
aS'v2.nonxt8.c.youtube.com'
p506
aS'v5.nonxt1.c.youtube.com'
p507
aS'v5.nonxt2.c.youtube.com'
p508
aS'v5.nonxt3.c.youtube.com'
p509
aS'v5.nonxt4.c.youtube.com'
p510
aS'v5.nonxt5.c.youtube.com'
p511
aS'v5.nonxt6.c.youtube.com'
p512
aS'v5.nonxt7.c.youtube.com'
p513
aS'v5.nonxt8.c.youtube.com'
p514
aS'v6.nonxt1.c.youtube.com'
p515
aS'v6.nonxt2.c.youtube.com'
p516
aS'v6.nonxt3.c.youtube.com'
p517
aS'v6.nonxt4.c.youtube.com'
p518
aS'v6.nonxt5.c.youtube.com'
p519
aS'v6.nonxt6.c.youtube.com'
p520
aS'v6.nonxt7.c.youtube.com'
p521
aS'v6.nonxt8.c.youtube.com'
p522
aS'v7.nonxt1.c.youtube.com'
p523
aS'v7.nonxt2.c.youtube.com'
p524
aS'v7.nonxt3.c.youtube.com'
p525
aS'v7.nonxt4.c.youtube.com'
p526
aS'v7.nonxt5.c.youtube.com'
p527
aS'v7.nonxt6.c.youtube.com'
p528
aS'v7.nonxt7.c.youtube.com'
p529
aS'v7.nonxt8.c.youtube.com'
p530
aS'v8.nonxt1.c.youtube.com'
p531
aS'v8.nonxt2.c.youtube.com'
p532
aS'v8.nonxt3.c.youtube.com'
p533
aS'v8.nonxt4.c.youtube.com'
p534
aS'v8.nonxt5.c.youtube.com'
p535
aS'v8.nonxt6.c.youtube.com'
p536
aS'v8.nonxt7.c.youtube.com'
p537
aS'v8.nonxt8.c.youtube.com'
p538
aS'v9.nonxt1.c.youtube.com'
p539
aS'v9.nonxt2.c.youtube.com'
p540
aS'v9.nonxt3.c.youtube.com'
p541
aS'v9.nonxt4.c.youtube.com'
p542
aS'v9.nonxt5.c.youtube.com'
p543
aS'v11.nonxt6.c.youtube.com'
p544
aS'v11.nonxt7.c.youtube.com'
p545
aS'v11.nonxt8.c.youtube.com'
p546
aS'v12.nonxt1.c.youtube.com'
p547
aS'v12.nonxt2.c.youtube.com'
p548
aS'v12.nonxt3.c.youtube.com'
p549
aS'v12.nonxt4.c.youtube.com'
p550
aS'v12.nonxt5.c.youtube.com'
p551
aS'v12.nonxt6.c.youtube.com'
p552
aS'v12.nonxt7.c.youtube.com'
p553
aS'v12.nonxt8.c.youtube.com'
p554
aS'v13.nonxt1.c.youtube.com'
p555
aS'v13.nonxt2.c.youtube.com'
p556
aS'v13.nonxt3.c.youtube.com'
p557
aS'v13.nonxt4.c.youtube.com'
p558
aS'v13.nonxt5.c.youtube.com'
p559
aS'v13.nonxt6.c.youtube.com'
p560
aS'v13.nonxt7.c.youtube.com'
p561
aS'v13.nonxt8.c.youtube.com'
p562
aS'v14.nonxt1.c.youtube.com'
p563
aS'v14.nonxt2.c.youtube.com'
p564
aS'v14.nonxt3.c.youtube.com'
p565
aS'v14.nonxt4.c.youtube.com'
p566
aS'v14.nonxt5.c.youtube.com'
p567
aS'v14.nonxt6.c.youtube.com'
p568
aS'v14.nonxt7.c.youtube.com'
p569
aS'v14.nonxt8.c.youtube.com'
p570
aS'v15.nonxt1.c.youtube.com'
p571
aS'v15.nonxt2.c.youtube.com'
p572
aS'v15.nonxt3.c.youtube.com'
p573
aS'v15.nonxt4.c.youtube.com'
p574
aS'v15.nonxt5.c.youtube.com'
p575
aS'v15.nonxt6.c.youtube.com'
p576
aS'v15.nonxt7.c.youtube.com'
p577
aS'v15.nonxt8.c.youtube.com'
p578
aS'v16.nonxt1.c.youtube.com'
p579
aS'v16.nonxt2.c.youtube.com'
p580
aS'v18.nonxt3.c.youtube.com'
p581
aS'v18.nonxt4.c.youtube.com'
p582
aS'v18.nonxt5.c.youtube.com'
p583
aS'v18.nonxt6.c.youtube.com'
p584
aS'v18.nonxt7.c.youtube.com'
p585
aS'v18.nonxt8.c.youtube.com'
p586
aS'v19.nonxt1.c.youtube.com'
p587
aS'v19.nonxt2.c.youtube.com'
p588
aS'v19.nonxt3.c.youtube.com'
p589
aS'v19.nonxt4.c.youtube.com'
p590
aS'v19.nonxt5.c.youtube.com'
p591
aS'v19.nonxt6.c.youtube.com'
p592
aS'v19.nonxt7.c.youtube.com'
p593
aS'v19.nonxt8.c.youtube.com'
p594
aS'v20.nonxt1.c.youtube.com'
p595
aS'v20.nonxt2.c.youtube.com'
p596
aS'v20.nonxt3.c.youtube.com'
p597
aS'v20.nonxt4.c.youtube.com'
p598
aS'v20.nonxt5.c.youtube.com'
p599
aS'v20.nonxt6.c.youtube.com'
p600
aS'v20.nonxt7.c.youtube.com'
p601
aS'v20.nonxt8.c.youtube.com'
p602
aS'v21.nonxt1.c.youtube.com'
p603
aS'v21.nonxt2.c.youtube.com'
p604
aS'v21.nonxt3.c.youtube.com'
p605
aS'v21.nonxt4.c.youtube.com'
p606
aS'v21.nonxt5.c.youtube.com'
p607
aS'v21.nonxt6.c.youtube.com'
p608
aS'v21.nonxt7.c.youtube.com'
p609
aS'v21.nonxt8.c.youtube.com'
p610
aS'v22.nonxt1.c.youtube.com'
p611
aS'v22.nonxt2.c.youtube.com'
p612
aS'v22.nonxt3.c.youtube.com'
p613
aS'v22.nonxt4.c.youtube.com'
p614
aS'v22.nonxt5.c.youtube.com'
p615
aS'v22.nonxt6.c.youtube.com'
p616
aS'v22.nonxt7.c.youtube.com'
p617
aS'v24.nonxt7.c.youtube.com'
p618
aS'v24.nonxt8.c.youtube.com'
p619
aS'v1.cache1.c.youtube.com'
p620
aS'v1.cache2.c.youtube.com'
p621
aS'v1.cache3.c.youtube.com'
p622
aS'v1.cache4.c.youtube.com'
p623
aS'v1.cache5.c.youtube.com'
p624
aS'v1.cache6.c.youtube.com'
p625
aS'v1.cache7.c.youtube.com'
p626
aS'v1.cache8.c.youtube.com'
p627
aS'v2.cache1.c.youtube.com'
p628
aS'v2.cache2.c.youtube.com'
p629
aS'v2.cache3.c.youtube.com'
p630
aS'v2.cache4.c.youtube.com'
p631
aS'v2.cache5.c.youtube.com'
p632
aS'v2.cache6.c.youtube.com'
p633
aS'v2.cache7.c.youtube.com'
p634
aS'v2.cache8.c.youtube.com'
p635
aS'v3.cache1.c.youtube.com'
p636
aS'v3.cache2.c.youtube.com'
p637
aS'v3.cache3.c.youtube.com'
p638
aS'v3.cache4.c.youtube.com'
p639
aS'v3.cache5.c.youtube.com'
p640
aS'v3.cache6.c.youtube.com'
p641
aS'v3.cache7.c.youtube.com'
p642
aS'v3.cache8.c.youtube.com'
p643
aS'v4.cache1.c.youtube.com'
p644
aS'v4.cache2.c.youtube.com'
p645
aS'v4.cache3.c.youtube.com'
p646
aS'v4.cache4.c.youtube.com'
p647
aS'v4.cache5.c.youtube.com'
p648
aS'v4.cache6.c.youtube.com'
p649
aS'v4.cache7.c.youtube.com'
p650
aS'v4.cache8.c.youtube.com'
p651
aS'v5.cache1.c.youtube.com'
p652
aS'v5.cache2.c.youtube.com'
p653
aS'v5.cache3.c.youtube.com'
p654
aS'v5.cache4.c.youtube.com'
p655
aS'v7.cache4.c.youtube.com'
p656
aS'v7.cache5.c.youtube.com'
p657
aS'v7.cache6.c.youtube.com'
p658
aS'v7.cache7.c.youtube.com'
p659
aS'v7.cache8.c.youtube.com'
p660
aS'v8.cache1.c.youtube.com'
p661
aS'v8.cache2.c.youtube.com'
p662
aS'v8.cache3.c.youtube.com'
p663
aS'v8.cache4.c.youtube.com'
p664
aS'v8.cache5.c.youtube.com'
p665
aS'v8.cache6.c.youtube.com'
p666
aS'v8.cache7.c.youtube.com'
p667
aS'v9.cache1.c.youtube.com'
p668
aS'v9.cache2.c.youtube.com'
p669
aS'v8.cache8.c.youtube.com'
p670
aS'v9.cache3.c.youtube.com'
p671
aS'v9.cache4.c.youtube.com'
p672
aS'v9.cache5.c.youtube.com'
p673
aS'v9.cache6.c.youtube.com'
p674
aS'v9.cache7.c.youtube.com'
p675
aS'v9.cache8.c.youtube.com'
p676
aS'v10.cache1.c.youtube.com'
p677
aS'v10.cache2.c.youtube.com'
p678
aS'v10.cache3.c.youtube.com'
p679
aS'v10.cache4.c.youtube.com'
p680
aS'v10.cache5.c.youtube.com'
p681
aS'v10.cache6.c.youtube.com'
p682
aS'v10.cache7.c.youtube.com'
p683
aS'v10.cache8.c.youtube.com'
p684
aS'v11.cache1.c.youtube.com'
p685
aS'v11.cache2.c.youtube.com'
p686
aS'v11.cache3.c.youtube.com'
p687
aS'v11.cache4.c.youtube.com'
p688
aS'v11.cache5.c.youtube.com'
p689
aS'v11.cache6.c.youtube.com'
p690
aS'v11.cache7.c.youtube.com'
p691
aS'v11.cache8.c.youtube.com'
p692
aS'v12.cache1.c.youtube.com'
p693
aS'v12.cache2.c.youtube.com'
p694
aS'v12.cache3.c.youtube.com'
p695
aS'v12.cache4.c.youtube.com'
p696
aS'v12.cache5.c.youtube.com'
p697
aS'v12.cache6.c.youtube.com'
p698
aS'v12.cache7.c.youtube.com'
p699
aS'v12.cache8.c.youtube.com'
p700
aS'v13.cache1.c.youtube.com'
p701
aS'v13.cache2.c.youtube.com'
p702
aS'v13.cache3.c.youtube.com'
p703
aS'v13.cache4.c.youtube.com'
p704
aS'v13.cache5.c.youtube.com'
p705
aS'v13.cache6.c.youtube.com'
p706
aS'v13.cache7.c.youtube.com'
p707
aS'v13.cache8.c.youtube.com'
p708
aS'v14.cache1.c.youtube.com'
p709
aS'v14.cache2.c.youtube.com'
p710
aS'v14.cache3.c.youtube.com'
p711
aS'v14.cache4.c.youtube.com'
p712
aS'v14.cache5.c.youtube.com'
p713
aS'v14.cache6.c.youtube.com'
p714
aS'v14.cache7.c.youtube.com'
p715
aS'v14.cache8.c.youtube.com'
p716
aS'v15.cache1.c.youtube.com'
p717
aS'v15.cache2.c.youtube.com'
p718
aS'v15.cache3.c.youtube.com'
p719
aS'v15.cache4.c.youtube.com'
p720
aS'v15.cache5.c.youtube.com'
p721
aS'v15.cache6.c.youtube.com'
p722
aS'v15.cache7.c.youtube.com'
p723
aS'v15.cache8.c.youtube.com'
p724
aS'v16.cache1.c.youtube.com'
p725
aS'v16.cache2.c.youtube.com'
p726
aS'v16.cache3.c.youtube.com'
p727
aS'v16.cache4.c.youtube.com'
p728
aS'v16.cache5.c.youtube.com'
p729
aS'v16.cache6.c.youtube.com'
p730
aS'v16.cache7.c.youtube.com'
p731
aS'v16.cache8.c.youtube.com'
p732
aS'v17.cache1.c.youtube.com'
p733
aS'v17.cache2.c.youtube.com'
p734
aS'v17.cache3.c.youtube.com'
p735
aS'v17.cache4.c.youtube.com'
p736
aS'v17.cache5.c.youtube.com'
p737
aS'v17.cache6.c.youtube.com'
p738
aS'v17.cache7.c.youtube.com'
p739
aS'v17.cache8.c.youtube.com'
p740
aS'v18.cache1.c.youtube.com'
p741
aS'v18.cache2.c.youtube.com'
p742
aS'v18.cache3.c.youtube.com'
p743
aS'v18.cache4.c.youtube.com'
p744
aS'v18.cache5.c.youtube.com'
p745
aS'v18.cache6.c.youtube.com'
p746
aS'v18.cache7.c.youtube.com'
p747
aS'v18.cache8.c.youtube.com'
p748
aS'v19.cache1.c.youtube.com'
p749
aS'v19.cache2.c.youtube.com'
p750
aS'v19.cache3.c.youtube.com'
p751
aS'v19.cache4.c.youtube.com'
p752
aS'v19.cache5.c.youtube.com'
p753
aS'v19.cache6.c.youtube.com'
p754
aS'v19.cache7.c.youtube.com'
p755
aS'v19.cache8.c.youtube.com'
p756
aS'v20.cache1.c.youtube.com'
p757
aS'v20.cache2.c.youtube.com'
p758
aS'v20.cache3.c.youtube.com'
p759
aS'v20.cache4.c.youtube.com'
p760
aS'v20.cache5.c.youtube.com'
p761
aS'v20.cache6.c.youtube.com'
p762
aS'v20.cache7.c.youtube.com'
p763
aS'v20.cache8.c.youtube.com'
p764
aS'v21.cache1.c.youtube.com'
p765
aS'v21.cache2.c.youtube.com'
p766
aS'v21.cache3.c.youtube.com'
p767
aS'v21.cache4.c.youtube.com'
p768
aS'v21.cache5.c.youtube.com'
p769
aS'v21.cache6.c.youtube.com'
p770
aS'v21.cache7.c.youtube.com'
p771
aS'v21.cache8.c.youtube.com'
p772
aS'v22.cache1.c.youtube.com'
p773
aS'v22.cache2.c.youtube.com'
p774
aS'v22.cache3.c.youtube.com'
p775
aS'v22.cache4.c.youtube.com'
p776
aS'v22.cache5.c.youtube.com'
p777
aS'v22.cache6.c.youtube.com'
p778
aS'v22.cache7.c.youtube.com'
p779
aS'v22.cache8.c.youtube.com'
p780
aS'v23.cache1.c.youtube.com'
p781
aS'v23.cache2.c.youtube.com'
p782
aS'v23.cache3.c.youtube.com'
p783
aS'v23.cache4.c.youtube.com'
p784
aS'v23.cache5.c.youtube.com'
p785
aS'v23.cache6.c.youtube.com'
p786
aS'v23.cache7.c.youtube.com'
p787
aS'v23.cache8.c.youtube.com'
p788
aS'v24.cache1.c.youtube.com'
p789
aS'v24.cache2.c.youtube.com'
p790
aS'v24.cache3.c.youtube.com'
p791
aS'v24.cache4.c.youtube.com'
p792
aS'v24.cache5.c.youtube.com'
p793
aS'v24.cache6.c.youtube.com'
p794
aS'v24.cache7.c.youtube.com'
p795
aS'v24.cache8.c.youtube.com'
p796
aS'tc.v1.cache1.c.youtube.com'
p797
aS'tc.v1.cache2.c.youtube.com'
p798
aS'tc.v1.cache3.c.youtube.com'
p799
aS'tc.v3.cache3.c.youtube.com'
p800
aS'tc.v3.cache4.c.youtube.com'
p801
aS'tc.v3.cache5.c.youtube.com'
p802
aS'tc.v3.cache6.c.youtube.com'
p803
aS'tc.v3.cache7.c.youtube.com'
p804
aS'tc.v3.cache8.c.youtube.com'
p805
aS'tc.v4.cache1.c.youtube.com'
p806
aS'tc.v4.cache2.c.youtube.com'
p807
aS'tc.v4.cache3.c.youtube.com'
p808
aS'tc.v4.cache4.c.youtube.com'
p809
aS'tc.v4.cache5.c.youtube.com'
p810
aS'tc.v4.cache6.c.youtube.com'
p811
aS'tc.v4.cache7.c.youtube.com'
p812
aS'tc.v4.cache8.c.youtube.com'
p813
aS'tc.v5.cache1.c.youtube.com'
p814
aS'tc.v5.cache2.c.youtube.com'
p815
aS'tc.v5.cache3.c.youtube.com'
p816
aS'tc.v5.cache4.c.youtube.com'
p817
aS'tc.v5.cache5.c.youtube.com'
p818
aS'tc.v5.cache6.c.youtube.com'
p819
aS'tc.v5.cache7.c.youtube.com'
p820
aS'tc.v5.cache8.c.youtube.com'
p821
aS'tc.v6.cache1.c.youtube.com'
p822
aS'tc.v6.cache2.c.youtube.com'
p823
aS'tc.v6.cache3.c.youtube.com'
p824
aS'tc.v6.cache4.c.youtube.com'
p825
aS'tc.v6.cache5.c.youtube.com'
p826
aS'tc.v6.cache6.c.youtube.com'
p827
aS'tc.v6.cache7.c.youtube.com'
p828
aS'tc.v6.cache8.c.youtube.com'
p829
aS'tc.v7.cache1.c.youtube.com'
p830
aS'tc.v7.cache2.c.youtube.com'
p831
aS'tc.v7.cache3.c.youtube.com'
p832
aS'tc.v7.cache4.c.youtube.com'
p833
aS'tc.v7.cache5.c.youtube.com'
p834
aS'tc.v7.cache6.c.youtube.com'
p835
aS'tc.v7.cache7.c.youtube.com'
p836
aS'tc.v7.cache8.c.youtube.com'
p837
aS'tc.v9.cache8.c.youtube.com'
p838
aS'tc.v10.cache1.c.youtube.com'
p839
aS'tc.v10.cache2.c.youtube.com'
p840
aS'tc.v10.cache3.c.youtube.com'
p841
aS'tc.v10.cache4.c.youtube.com'
p842
aS'tc.v10.cache5.c.youtube.com'
p843
aS'tc.v10.cache6.c.youtube.com'
p844
aS'tc.v10.cache7.c.youtube.com'
p845
aS'tc.v10.cache8.c.youtube.com'
p846
aS'tc.v11.cache1.c.youtube.com'
p847
aS'tc.v11.cache2.c.youtube.com'
p848
aS'tc.v11.cache3.c.youtube.com'
p849
aS'tc.v11.cache4.c.youtube.com'
p850
aS'tc.v11.cache5.c.youtube.com'
p851
aS'tc.v11.cache6.c.youtube.com'
p852
aS'tc.v11.cache7.c.youtube.com'
p853
aS'tc.v11.cache8.c.youtube.com'
p854
aS'tc.v12.cache1.c.youtube.com'
p855
aS'tc.v12.cache2.c.youtube.com'
p856
aS'tc.v12.cache3.c.youtube.com'
p857
aS'tc.v12.cache4.c.youtube.com'
p858
aS'tc.v12.cache5.c.youtube.com'
p859
aS'tc.v12.cache6.c.youtube.com'
p860
aS'tc.v12.cache7.c.youtube.com'
p861
aS'tc.v12.cache8.c.youtube.com'
p862
aS'tc.v13.cache1.c.youtube.com'
p863
aS'tc.v13.cache2.c.youtube.com'
p864
aS'tc.v13.cache3.c.youtube.com'
p865
aS'tc.v13.cache4.c.youtube.com'
p866
aS'tc.v13.cache5.c.youtube.com'
p867
aS'tc.v13.cache6.c.youtube.com'
p868
aS'tc.v13.cache7.c.youtube.com'
p869
aS'tc.v13.cache8.c.youtube.com'
p870
aS'tc.v14.cache1.c.youtube.com'
p871
aS'tc.v14.cache2.c.youtube.com'
p872
aS'tc.v14.cache3.c.youtube.com'
p873
aS'tc.v14.cache4.c.youtube.com'
p874
aS'tc.v14.cache5.c.youtube.com'
p875
aS'tc.v16.cache3.c.youtube.com'
p876
aS'tc.v16.cache4.c.youtube.com'
p877
aS'tc.v16.cache5.c.youtube.com'
p878
aS'tc.v16.cache6.c.youtube.com'
p879
aS'tc.v16.cache7.c.youtube.com'
p880
aS'tc.v16.cache8.c.youtube.com'
p881
aS'tc.v17.cache1.c.youtube.com'
p882
aS'tc.v17.cache2.c.youtube.com'
p883
aS'tc.v17.cache3.c.youtube.com'
p884
aS'tc.v17.cache4.c.youtube.com'
p885
aS'tc.v17.cache5.c.youtube.com'
p886
aS'tc.v17.cache6.c.youtube.com'
p887
aS'tc.v17.cache7.c.youtube.com'
p888
aS'tc.v17.cache8.c.youtube.com'
p889
aS'tc.v18.cache1.c.youtube.com'
p890
aS'tc.v18.cache2.c.youtube.com'
p891
aS'tc.v18.cache3.c.youtube.com'
p892
aS'tc.v18.cache4.c.youtube.com'
p893
aS'tc.v18.cache5.c.youtube.com'
p894
aS'tc.v18.cache6.c.youtube.com'
p895
aS'tc.v18.cache7.c.youtube.com'
p896
aS'tc.v18.cache8.c.youtube.com'
p897
aS'tc.v19.cache1.c.youtube.com'
p898
aS'tc.v19.cache2.c.youtube.com'
p899
aS'tc.v19.cache3.c.youtube.com'
p900
aS'tc.v19.cache4.c.youtube.com'
p901
aS'tc.v19.cache5.c.youtube.com'
p902
aS'tc.v19.cache6.c.youtube.com'
p903
aS'tc.v19.cache7.c.youtube.com'
p904
aS'tc.v19.cache8.c.youtube.com'
p905
aS'tc.v20.cache1.c.youtube.com'
p906
aS'tc.v20.cache2.c.youtube.com'
p907
aS'tc.v20.cache3.c.youtube.com'
p908
aS'tc.v20.cache4.c.youtube.com'
p909
aS'tc.v20.cache5.c.youtube.com'
p910
aS'tc.v20.cache6.c.youtube.com'
p911
aS'tc.v20.cache7.c.youtube.com'
p912
aS'tc.v20.cache8.c.youtube.com'
p913
aS'tc.v21.cache1.c.youtube.com'
p914
aS'tc.v21.cache2.c.youtube.com'
p915
aS'tc.v23.cache1.c.youtube.com'
p916
aS'tc.v23.cache2.c.youtube.com'
p917
aS'tc.v23.cache3.c.youtube.com'
p918
aS'tc.v23.cache4.c.youtube.com'
p919
aS'tc.v23.cache5.c.youtube.com'
p920
aS'tc.v23.cache6.c.youtube.com'
p921
aS'tc.v23.cache7.c.youtube.com'
p922
aS'tc.v23.cache8.c.youtube.com'
p923
aS'tc.v24.cache1.c.youtube.com'
p924
aS'tc.v24.cache2.c.youtube.com'
p925
aS'tc.v24.cache3.c.youtube.com'
p926
aS'tc.v24.cache4.c.youtube.com'
p927
aS'tc.v24.cache5.c.youtube.com'
p928
aS'tc.v24.cache6.c.youtube.com'
p929
aS'tc.v24.cache7.c.youtube.com'
p930
aS'tc.v24.cache8.c.youtube.com'
p931
aS'r1.tpe05s03.c.youtube.com'
p932
aS'r1.tpe05s04.c.youtube.com'
p933
aS'r2.tpe05s03.c.youtube.com'
p934
aS'r2.tpe05s04.c.youtube.com'
p935
aS'r3.tpe05s03.c.youtube.com'
p936
aS'r3.tpe05s04.c.youtube.com'
p937
aS'r4.tpe05s03.c.youtube.com'
p938
aS'r4.tpe05s04.c.youtube.com'
p939
aS'r5.tpe05s03.c.youtube.com'
p940
aS'r5.tpe05s04.c.youtube.com'
p941
aS'r6.tpe05s03.c.youtube.com'
p942
aS'r6.tpe05s04.c.youtube.com'
p943
aS'r7.tpe05s03.c.youtube.com'
p944
aS'r7.tpe05s04.c.youtube.com'
p945
aS'r8.tpe05s03.c.youtube.com'
p946
aS'r8.tpe05s04.c.youtube.com'
p947
aS'r9.tpe05s03.c.youtube.com'
p948
aS'r9.tpe05s04.c.youtube.com'
p949
aS'r10.tpe05s03.c.youtube.com'
p950
aS'r10.tpe05s04.c.youtube.com'
p951
aS'r11.tpe05s03.c.youtube.com'
p952
aS'r11.tpe05s04.c.youtube.com'
p953
aS'r12.tpe05s03.c.youtube.com'
p954
aS'r19.tpe05s04.c.youtube.com'
p955
aS'r20.tpe05s03.c.youtube.com'
p956
aS'r20.tpe05s04.c.youtube.com'
p957
aS'r1.hkg03s05.c.youtube.com'
p958
aS'r1.hkg03s06.c.youtube.com'
p959
aS'r1.hkg03s07.c.youtube.com'
p960
aS'r1.hkg03s08.c.youtube.com'
p961
aS'r2.hkg03s05.c.youtube.com'
p962
aS'r2.hkg03s06.c.youtube.com'
p963
aS'r2.hkg03s07.c.youtube.com'
p964
aS'r2.hkg03s08.c.youtube.com'
p965
aS'r3.hkg03s05.c.youtube.com'
p966
aS'r3.hkg03s06.c.youtube.com'
p967
aS'r3.hkg03s07.c.youtube.com'
p968
aS'r3.hkg03s08.c.youtube.com'
p969
aS'r4.hkg03s05.c.youtube.com'
p970
aS'r4.hkg03s06.c.youtube.com'
p971
aS'r4.hkg03s07.c.youtube.com'
p972
aS'r4.hkg03s08.c.youtube.com'
p973
aS'r5.hkg03s05.c.youtube.com'
p974
aS'r5.hkg03s06.c.youtube.com'
p975
aS'r5.hkg03s07.c.youtube.com'
p976
aS'r5.hkg03s08.c.youtube.com'
p977
aS'r6.hkg03s05.c.youtube.com'
p978
aS'r6.hkg03s06.c.youtube.com'
p979
aS'r6.hkg03s07.c.youtube.com'
p980
aS'r6.hkg03s08.c.youtube.com'
p981
aS'r7.hkg03s05.c.youtube.com'
p982
aS'r7.hkg03s06.c.youtube.com'
p983
aS'r7.hkg03s07.c.youtube.com'
p984
aS'r7.hkg03s08.c.youtube.com'
p985
aS'r8.hkg03s05.c.youtube.com'
p986
aS'r8.hkg03s06.c.youtube.com'
p987
aS'r8.hkg03s07.c.youtube.com'
p988
aS'r8.hkg03s08.c.youtube.com'
p989
aS'r9.hkg03s05.c.youtube.com'
p990
aS'r9.hkg03s06.c.youtube.com'
p991
aS'r9.hkg03s07.c.youtube.com'
p992
aS'r9.hkg03s08.c.youtube.com'
p993
aS'r13.hkg03s07.c.youtube.com'
p994
aS'r13.hkg03s08.c.youtube.com'
p995
aS'r14.hkg03s05.c.youtube.com'
p996
aS'r14.hkg03s06.c.youtube.com'
p997
aS'r14.hkg03s07.c.youtube.com'
p998
aS'r14.hkg03s08.c.youtube.com'
p999
aS'r15.hkg03s05.c.youtube.com'
p1000
aS'r15.hkg03s06.c.youtube.com'
p1001
aS'r15.hkg03s07.c.youtube.com'
p1002
aS'r15.hkg03s08.c.youtube.com'
p1003
aS'r16.hkg03s05.c.youtube.com'
p1004
aS'r16.hkg03s06.c.youtube.com'
p1005
aS'r16.hkg03s07.c.youtube.com'
p1006
aS'r16.hkg03s08.c.youtube.com'
p1007
aS'r17.hkg03s05.c.youtube.com'
p1008
aS'r17.hkg03s06.c.youtube.com'
p1009
aS'r17.hkg03s07.c.youtube.com'
p1010
aS'r17.hkg03s08.c.youtube.com'
p1011
aS'r18.hkg03s05.c.youtube.com'
p1012
aS'r18.hkg03s06.c.youtube.com'
p1013
aS'r18.hkg03s07.c.youtube.com'
p1014
aS'r18.hkg03s08.c.youtube.com'
p1015
aS'r19.hkg03s05.c.youtube.com'
p1016
aS'r19.hkg03s06.c.youtube.com'
p1017
aS'r19.hkg03s07.c.youtube.com'
p1018
aS'r19.hkg03s08.c.youtube.com'
p1019
aS'r20.hkg03s05.c.youtube.com'
p1020
aS'r20.hkg03s06.c.youtube.com'
p1021
aS'r20.hkg03s07.c.youtube.com'
p1022
aS'r1.hkg05s01.c.youtube.com'
p1023
aS'r20.hkg03s08.c.youtube.com'
p1024
aS'r1.hkg05s02.c.youtube.com'
p1025
aS'r1.hkg05s03.c.youtube.com'
p1026
aS'r1.hkg05s04.c.youtube.com'
p1027
aS'r2.hkg05s01.c.youtube.com'
p1028
aS'r2.hkg05s02.c.youtube.com'
p1029
aS'r2.hkg05s03.c.youtube.com'
p1030
aS'r2.hkg05s04.c.youtube.com'
p1031
aS'r3.hkg05s01.c.youtube.com'
p1032
aS'r3.hkg05s02.c.youtube.com'
p1033
aS'r3.hkg05s03.c.youtube.com'
p1034
aS'r3.hkg05s04.c.youtube.com'
p1035
aS'r4.hkg05s01.c.youtube.com'
p1036
aS'r4.hkg05s02.c.youtube.com'
p1037
aS'r4.hkg05s03.c.youtube.com'
p1038
aS'r4.hkg05s04.c.youtube.com'
p1039
aS'r5.hkg05s01.c.youtube.com'
p1040
aS'r5.hkg05s02.c.youtube.com'
p1041
aS'r5.hkg05s03.c.youtube.com'
p1042
aS'r5.hkg05s04.c.youtube.com'
p1043
aS'r6.hkg05s01.c.youtube.com'
p1044
aS'r6.hkg05s02.c.youtube.com'
p1045
aS'r6.hkg05s03.c.youtube.com'
p1046
aS'r6.hkg05s04.c.youtube.com'
p1047
aS'r7.hkg05s01.c.youtube.com'
p1048
aS'r7.hkg05s02.c.youtube.com'
p1049
aS'r7.hkg05s03.c.youtube.com'
p1050
aS'r7.hkg05s04.c.youtube.com'
p1051
aS'r8.hkg05s01.c.youtube.com'
p1052
aS'r8.hkg05s02.c.youtube.com'
p1053
aS'r8.hkg05s03.c.youtube.com'
p1054
aS'r8.hkg05s04.c.youtube.com'
p1055
aS'r9.hkg05s01.c.youtube.com'
p1056
aS'r9.hkg05s02.c.youtube.com'
p1057
aS'r9.hkg05s03.c.youtube.com'
p1058
aS'r9.hkg05s04.c.youtube.com'
p1059
aS'r10.hkg05s01.c.youtube.com'
p1060
aS'r10.hkg05s02.c.youtube.com'
p1061
aS'r10.hkg05s03.c.youtube.com'
p1062
aS'r10.hkg05s04.c.youtube.com'
p1063
aS'r11.hkg05s01.c.youtube.com'
p1064
aS'r11.hkg05s02.c.youtube.com'
p1065
aS'r11.hkg05s03.c.youtube.com'
p1066
aS'r11.hkg05s04.c.youtube.com'
p1067
aS'r12.hkg05s01.c.youtube.com'
p1068
aS'r12.hkg05s02.c.youtube.com'
p1069
aS'r12.hkg05s03.c.youtube.com'
p1070
aS'r12.hkg05s04.c.youtube.com'
p1071
aS'r13.hkg05s01.c.youtube.com'
p1072
aS'r13.hkg05s02.c.youtube.com'
p1073
aS'r13.hkg05s03.c.youtube.com'
p1074
aS'r13.hkg05s04.c.youtube.com'
p1075
aS'r14.hkg05s01.c.youtube.com'
p1076
aS'r14.hkg05s02.c.youtube.com'
p1077
aS'r14.hkg05s03.c.youtube.com'
p1078
aS'r14.hkg05s04.c.youtube.com'
p1079
aS'r15.hkg05s01.c.youtube.com'
p1080
aS'r15.hkg05s02.c.youtube.com'
p1081
aS'r15.hkg05s03.c.youtube.com'
p1082
aS'r15.hkg05s04.c.youtube.com'
p1083
aS'r16.hkg05s01.c.youtube.com'
p1084
aS'r16.hkg05s02.c.youtube.com'
p1085
aS'r16.hkg05s03.c.youtube.com'
p1086
aS'r16.hkg05s04.c.youtube.com'
p1087
aS'r17.hkg05s01.c.youtube.com'
p1088
aS'r17.hkg05s02.c.youtube.com'
p1089
aS'r17.hkg05s03.c.youtube.com'
p1090
aS'r17.hkg05s04.c.youtube.com'
p1091
aS'r18.hkg05s01.c.youtube.com'
p1092
aS'r18.hkg05s02.c.youtube.com'
p1093
aS'r18.hkg05s03.c.youtube.com'
p1094
aS'r18.hkg05s04.c.youtube.com'
p1095
aS'r19.hkg05s01.c.youtube.com'
p1096
aS'r19.hkg05s02.c.youtube.com'
p1097
aS'r19.hkg05s03.c.youtube.com'
p1098
aS'r19.hkg05s04.c.youtube.com'
p1099
aS'r20.hkg05s01.c.youtube.com'
p1100
aS'r20.hkg05s02.c.youtube.com'
p1101
aS'r20.hkg05s03.c.youtube.com'
p1102
aS'r20.hkg05s04.c.youtube.com'
p1103
aS'r1.maa03s08.c.youtube.com'
p1104
aS'r1.maa03s09.c.youtube.com'
p1105
aS'r2.maa03s08.c.youtube.com'
p1106
aS'r2.maa03s09.c.youtube.com'
p1107
aS'r3.maa03s08.c.youtube.com'
p1108
aS'r3.maa03s09.c.youtube.com'
p1109
aS'r4.maa03s08.c.youtube.com'
p1110
aS'r4.maa03s09.c.youtube.com'
p1111
aS'r5.maa03s08.c.youtube.com'
p1112
aS'r5.maa03s09.c.youtube.com'
p1113
aS'r6.maa03s08.c.youtube.com'
p1114
aS'r6.maa03s09.c.youtube.com'
p1115
aS'r7.maa03s08.c.youtube.com'
p1116
aS'r7.maa03s09.c.youtube.com'
p1117
aS'r8.maa03s08.c.youtube.com'
p1118
aS'r8.maa03s09.c.youtube.com'
p1119
aS'r9.maa03s08.c.youtube.com'
p1120
aS'r9.maa03s09.c.youtube.com'
p1121
aS'r10.maa03s08.c.youtube.com'
p1122
aS'r10.maa03s09.c.youtube.com'
p1123
aS'r11.maa03s08.c.youtube.com'
p1124
aS'r11.maa03s09.c.youtube.com'
p1125
aS'r12.maa03s08.c.youtube.com'
p1126
aS'r12.maa03s09.c.youtube.com'
p1127
aS'r13.maa03s08.c.youtube.com'
p1128
aS'r13.maa03s09.c.youtube.com'
p1129
aS'r14.maa03s08.c.youtube.com'
p1130
aS'r14.maa03s09.c.youtube.com'
p1131
aS'r15.maa03s08.c.youtube.com'
p1132
aS'r15.maa03s09.c.youtube.com'
p1133
aS'r16.maa03s08.c.youtube.com'
p1134
aS'r16.maa03s09.c.youtube.com'
p1135
aS'r17.maa03s08.c.youtube.com'
p1136
aS'r17.maa03s09.c.youtube.com'
p1137
aS'r18.maa03s08.c.youtube.com'
p1138
aS'r18.maa03s09.c.youtube.com'
p1139
aS'r19.maa03s08.c.youtube.com'
p1140
aS'r19.maa03s09.c.youtube.com'
p1141
aS'r20.maa03s08.c.youtube.com'
p1142
aS'r20.maa03s09.c.youtube.com'
p1143
aS'333.channel.facebook.com'
p1144
aS'333.ctest.facebook.com'
p1145
aS'developers.v6.facebook.com'
p1146
aS'error.12.channel.facebook.com'
p1147
aS'0-333.channel.facebook.com'
p1148
aS'1-333.channel.facebook.com'
p1149
aS'2-333.channel.facebook.com'
p1150
aS'3-333.channel.facebook.com'
p1151
aS'4-333.channel.facebook.com'
p1152
aS'www.lisp6.facebook.com'
p1153
aS'm.lisp6.facebook.com'
p1154
aS'5-333.channel.facebook.com'
p1155
aS'6-333.channel.facebook.com'
p1156
aS'photos-y.ak.fbcdn.net'
p1157
aS'photos-z.ak.fbcdn.net'
p1158
aS'photos-w.ak.fbcdn.net'
p1159
aS'photos-x.ak.fbcdn.net'
p1160
aS'clients1.youtube.com'
p1161
aS'v9.cache1.c.youtube.com'
p1162
aS'v9.cache2.c.youtube.com'
p1163
aS'v9.cache3.c.youtube.com'
p1164
aS'v9.cache4.c.youtube.com'
p1165
aS'v9.cache5.c.youtube.com'
p1166
aS'v9.cache6.c.youtube.com'
p1167
aS'v9.cache7.c.youtube.com'
p1168
aS'v9.cache8.c.youtube.com'
p1169
aS'v10.cache1.c.youtube.com'
p1170
aS'v10.cache2.c.youtube.com'
p1171
aS'v10.cache3.c.youtube.com'
p1172
aS'v10.cache4.c.youtube.com'
p1173
aS'v10.cache5.c.youtube.com'
p1174
aS'v10.cache6.c.youtube.com'
p1175
aS'v10.cache7.c.youtube.com'
p1176
aS'v10.cache8.c.youtube.com'
p1177
aS'v11.cache1.c.youtube.com'
p1178
aS'v11.cache2.c.youtube.com'
p1179
aS'v11.cache3.c.youtube.com'
p1180
aS'v11.cache4.c.youtube.com'
p1181
aS'v11.cache5.c.youtube.com'
p1182
aS'v11.cache6.c.youtube.com'
p1183
aS'v11.cache7.c.youtube.com'
p1184
aS'v11.cache8.c.youtube.com'
p1185
aS'v12.cache1.c.youtube.com'
p1186
aS'v12.cache2.c.youtube.com'
p1187
aS'v12.cache3.c.youtube.com'
p1188
aS'v12.cache4.c.youtube.com'
p1189
aS'v12.cache5.c.youtube.com'
p1190
aS'v12.cache6.c.youtube.com'
p1191
aS'v12.cache7.c.youtube.com'
p1192
aS'v12.cache8.c.youtube.com'
p1193
aS'v13.cache1.c.youtube.com'
p1194
aS'v13.cache2.c.youtube.com'
p1195
aS'v13.cache3.c.youtube.com'
p1196
aS'v13.cache4.c.youtube.com'
p1197
aS'v13.cache5.c.youtube.com'
p1198
aS'v13.cache6.c.youtube.com'
p1199
aS'v13.cache7.c.youtube.com'
p1200
aS'v13.cache8.c.youtube.com'
p1201
aS'v14.cache1.c.youtube.com'
p1202
aS'v14.cache2.c.youtube.com'
p1203
aS'v14.cache3.c.youtube.com'
p1204
aS'v14.cache4.c.youtube.com'
p1205
aS'v14.cache5.c.youtube.com'
p1206
aS'v14.cache6.c.youtube.com'
p1207
aS'v14.cache7.c.youtube.com'
p1208
aS'v14.cache8.c.youtube.com'
p1209
aS'v15.cache1.c.youtube.com'
p1210
aS'v15.cache2.c.youtube.com'
p1211
aS'v15.cache3.c.youtube.com'
p1212
aS'v15.cache4.c.youtube.com'
p1213
aS'v15.cache5.c.youtube.com'
p1214
aS'v15.cache6.c.youtube.com'
p1215
aS'v15.cache7.c.youtube.com'
p1216
aS'v15.cache8.c.youtube.com'
p1217
aS'v16.cache1.c.youtube.com'
p1218
aS'v16.cache2.c.youtube.com'
p1219
aS'v16.cache3.c.youtube.com'
p1220
aS'v16.cache4.c.youtube.com'
p1221
aS'v16.cache5.c.youtube.com'
p1222
aS'v16.cache6.c.youtube.com'
p1223
aS'v16.cache7.c.youtube.com'
p1224
aS'v16.cache8.c.youtube.com'
p1225
aS'v17.cache1.c.youtube.com'
p1226
aS'v17.cache2.c.youtube.com'
p1227
aS'v17.cache3.c.youtube.com'
p1228
aS'v17.cache4.c.youtube.com'
p1229
aS'v17.cache5.c.youtube.com'
p1230
aS'v17.cache6.c.youtube.com'
p1231
aS'v17.cache7.c.youtube.com'
p1232
aS'v17.cache8.c.youtube.com'
p1233
aS'v18.cache1.c.youtube.com'
p1234
aS'v18.cache2.c.youtube.com'
p1235
aS'v18.cache3.c.youtube.com'
p1236
aS'v18.cache4.c.youtube.com'
p1237
aS'v18.cache5.c.youtube.com'
p1238
aS'v18.cache6.c.youtube.com'
p1239
aS'v18.cache7.c.youtube.com'
p1240
aS'v18.cache8.c.youtube.com'
p1241
aS'v19.cache1.c.youtube.com'
p1242
aS'v19.cache2.c.youtube.com'
p1243
aS'v19.cache3.c.youtube.com'
p1244
aS'v19.cache4.c.youtube.com'
p1245
aS'v19.cache5.c.youtube.com'
p1246
aS'v19.cache6.c.youtube.com'
p1247
aS'v19.cache7.c.youtube.com'
p1248
aS'v19.cache8.c.youtube.com'
p1249
aS'v20.cache1.c.youtube.com'
p1250
aS'v20.cache2.c.youtube.com'
p1251
aS'v20.cache3.c.youtube.com'
p1252
aS'v20.cache4.c.youtube.com'
p1253
aS'v20.cache5.c.youtube.com'
p1254
aS'v20.cache6.c.youtube.com'
p1255
aS'v20.cache7.c.youtube.com'
p1256
aS'v20.cache8.c.youtube.com'
p1257
aS'v21.cache1.c.youtube.com'
p1258
aS'v21.cache2.c.youtube.com'
p1259
aS'v21.cache3.c.youtube.com'
p1260
aS'v21.cache4.c.youtube.com'
p1261
aS'v21.cache5.c.youtube.com'
p1262
aS'v21.cache6.c.youtube.com'
p1263
aS'v21.cache7.c.youtube.com'
p1264
aS'v21.cache8.c.youtube.com'
p1265
aS'v22.cache1.c.youtube.com'
p1266
aS'v22.cache2.c.youtube.com'
p1267
aS'v22.cache3.c.youtube.com'
p1268
aS'v22.cache4.c.youtube.com'
p1269
aS'v22.cache5.c.youtube.com'
p1270
aS'v22.cache6.c.youtube.com'
p1271
aS'v22.cache7.c.youtube.com'
p1272
aS'v22.cache8.c.youtube.com'
p1273
aS'v23.cache1.c.youtube.com'
p1274
aS'v23.cache2.c.youtube.com'
p1275
aS'v23.cache3.c.youtube.com'
p1276
aS'v23.cache4.c.youtube.com'
p1277
aS'v23.cache5.c.youtube.com'
p1278
aS'v23.cache6.c.youtube.com'
p1279
aS'v23.cache7.c.youtube.com'
p1280
aS'v23.cache8.c.youtube.com'
p1281
aS'v24.cache1.c.youtube.com'
p1282
aS'v24.cache2.c.youtube.com'
p1283
aS'v24.cache3.c.youtube.com'
p1284
aS'v24.cache4.c.youtube.com'
p1285
aS'v24.cache5.c.youtube.com'
p1286
aS'v24.cache6.c.youtube.com'
p1287
aS'v24.cache7.c.youtube.com'
p1288
aS'v24.cache8.c.youtube.com'
p1289
aS'r1.hkg05s01.c.youtube.com'
p1290
aS'r1.hkg05s02.c.youtube.com'
p1291
aS'r1.hkg05s03.c.youtube.com'
p1292
aS'r1.hkg05s04.c.youtube.com'
p1293
aS'r2.hkg05s01.c.youtube.com'
p1294
aS'r2.hkg05s02.c.youtube.com'
p1295
aS'r2.hkg05s03.c.youtube.com'
p1296
aS'r2.hkg05s04.c.youtube.com'
p1297
aS'r3.hkg05s01.c.youtube.com'
p1298
aS'r3.hkg05s02.c.youtube.com'
p1299
aS'r3.hkg05s03.c.youtube.com'
p1300
aS'r3.hkg05s04.c.youtube.com'
p1301
aS'r4.hkg05s01.c.youtube.com'
p1302
aS'r4.hkg05s02.c.youtube.com'
p1303
aS'r4.hkg05s03.c.youtube.com'
p1304
aS'r4.hkg05s04.c.youtube.com'
p1305
aS'r5.hkg05s01.c.youtube.com'
p1306
aS'r5.hkg05s02.c.youtube.com'
p1307
aS'r5.hkg05s03.c.youtube.com'
p1308
aS'r5.hkg05s04.c.youtube.com'
p1309
aS'r6.hkg05s01.c.youtube.com'
p1310
aS'r6.hkg05s02.c.youtube.com'
p1311
aS'r6.hkg05s03.c.youtube.com'
p1312
aS'r6.hkg05s04.c.youtube.com'
p1313
aS'r7.hkg05s01.c.youtube.com'
p1314
aS'r7.hkg05s02.c.youtube.com'
p1315
aS'r7.hkg05s03.c.youtube.com'
p1316
aS'r7.hkg05s04.c.youtube.com'
p1317
aS'r8.hkg05s01.c.youtube.com'
p1318
aS'r8.hkg05s02.c.youtube.com'
p1319
aS'r8.hkg05s03.c.youtube.com'
p1320
aS'r8.hkg05s04.c.youtube.com'
p1321
aS'r9.hkg05s01.c.youtube.com'
p1322
aS'r9.hkg05s02.c.youtube.com'
p1323
aS'r9.hkg05s03.c.youtube.com'
p1324
aS'r9.hkg05s04.c.youtube.com'
p1325
aS'r10.hkg05s01.c.youtube.com'
p1326
aS'r10.hkg05s02.c.youtube.com'
p1327
aS'r10.hkg05s03.c.youtube.com'
p1328
aS'r10.hkg05s04.c.youtube.com'
p1329
aS'r11.hkg05s01.c.youtube.com'
p1330
aS'r11.hkg05s02.c.youtube.com'
p1331
aS'r11.hkg05s03.c.youtube.com'
p1332
aS'r11.hkg05s04.c.youtube.com'
p1333
aS'r12.hkg05s01.c.youtube.com'
p1334
aS'r12.hkg05s02.c.youtube.com'
p1335
aS'r12.hkg05s03.c.youtube.com'
p1336
aS'r12.hkg05s04.c.youtube.com'
p1337
aS'r13.hkg05s01.c.youtube.com'
p1338
aS'r13.hkg05s02.c.youtube.com'
p1339
aS'r13.hkg05s03.c.youtube.com'
p1340
aS'r13.hkg05s04.c.youtube.com'
p1341
aS'r14.hkg05s01.c.youtube.com'
p1342
aS'r14.hkg05s02.c.youtube.com'
p1343
aS'r14.hkg05s03.c.youtube.com'
p1344
aS'r14.hkg05s04.c.youtube.com'
p1345
aS'r15.hkg05s01.c.youtube.com'
p1346
aS'r15.hkg05s02.c.youtube.com'
p1347
aS'r15.hkg05s03.c.youtube.com'
p1348
aS'r15.hkg05s04.c.youtube.com'
p1349
aS'r16.hkg05s01.c.youtube.com'
p1350
aS'r16.hkg05s02.c.youtube.com'
p1351
aS'r16.hkg05s03.c.youtube.com'
p1352
aS'r16.hkg05s04.c.youtube.com'
p1353
aS'r17.hkg05s01.c.youtube.com'
p1354
aS'r17.hkg05s02.c.youtube.com'
p1355
aS'r17.hkg05s03.c.youtube.com'
p1356
aS'r17.hkg05s04.c.youtube.com'
p1357
aS'r18.hkg05s01.c.youtube.com'
p1358
aS'r18.hkg05s02.c.youtube.com'
p1359
aS'r18.hkg05s03.c.youtube.com'
p1360
aS'r18.hkg05s04.c.youtube.com'
p1361
aS'r19.hkg05s01.c.youtube.com'
p1362
aS'r19.hkg05s02.c.youtube.com'
p1363
aS'r19.hkg05s03.c.youtube.com'
p1364
aS'r19.hkg05s04.c.youtube.com'
p1365
aS'r20.hkg05s01.c.youtube.com'
p1366
aS'r20.hkg05s02.c.youtube.com'
p1367
aS'r20.hkg05s03.c.youtube.com'
p1368
aS'r20.hkg05s04.c.youtube.com'
p1369
aS'333.channel.facebook.com'
p1370
aS'333.ctest.facebook.com'
p1371
aS'developers.v6.facebook.com'
p1372
aS'error.12.channel.facebook.com'
p1373
aS'0-333.channel.facebook.com'
p1374
aS'1-333.channel.facebook.com'
p1375
aS'2-333.channel.facebook.com'
p1376
aS'3-333.channel.facebook.com'
p1377
aS'4-333.channel.facebook.com'
p1378
aS'www.lisp6.facebook.com'
p1379
aS'm.lisp6.facebook.com'
p1380
aS'5-333.channel.facebook.com'
p1381
aS'6-333.channel.facebook.com'
p1382
aS'photos-y.ak.fbcdn.net'
p1383
aS'photos-z.ak.fbcdn.net'
p1384
aS'photos-w.ak.fbcdn.net'
p1385
aS'photos-x.ak.fbcdn.net'
p1386
aS'clients1.youtube.com'
p1387
aS'v9.cache1.c.youtube.com'
p1388
aS'v9.cache2.c.youtube.com'
p1389
aS'v9.cache3.c.youtube.com'
p1390
aS'v9.cache4.c.youtube.com'
p1391
aS'v9.cache5.c.youtube.com'
p1392
aS'v9.cache6.c.youtube.com'
p1393
aS'v9.cache7.c.youtube.com'
p1394
aS'v9.cache8.c.youtube.com'
p1395
aS'v10.cache1.c.youtube.com'
p1396
aS'v10.cache2.c.youtube.com'
p1397
aS'v10.cache3.c.youtube.com'
p1398
aS'v10.cache4.c.youtube.com'
p1399
aS'v10.cache5.c.youtube.com'
p1400
aS'v10.cache6.c.youtube.com'
p1401
aS'v10.cache7.c.youtube.com'
p1402
aS'v10.cache8.c.youtube.com'
p1403
aS'v11.cache1.c.youtube.com'
p1404
aS'v11.cache2.c.youtube.com'
p1405
aS'v11.cache3.c.youtube.com'
p1406
aS'v11.cache4.c.youtube.com'
p1407
aS'v11.cache5.c.youtube.com'
p1408
aS'v11.cache6.c.youtube.com'
p1409
aS'v11.cache7.c.youtube.com'
p1410
aS'v11.cache8.c.youtube.com'
p1411
aS'v12.cache1.c.youtube.com'
p1412
aS'v12.cache2.c.youtube.com'
p1413
aS'v12.cache3.c.youtube.com'
p1414
aS'v12.cache4.c.youtube.com'
p1415
aS'v12.cache5.c.youtube.com'
p1416
aS'v12.cache6.c.youtube.com'
p1417
aS'v12.cache7.c.youtube.com'
p1418
aS'v12.cache8.c.youtube.com'
p1419
aS'v13.cache1.c.youtube.com'
p1420
aS'v13.cache2.c.youtube.com'
p1421
aS'v13.cache3.c.youtube.com'
p1422
aS'v13.cache4.c.youtube.com'
p1423
aS'v13.cache5.c.youtube.com'
p1424
aS'v13.cache6.c.youtube.com'
p1425
aS'v13.cache7.c.youtube.com'
p1426
aS'v13.cache8.c.youtube.com'
p1427
aS'v14.cache1.c.youtube.com'
p1428
aS'v14.cache2.c.youtube.com'
p1429
aS'v14.cache3.c.youtube.com'
p1430
aS'v14.cache4.c.youtube.com'
p1431
aS'v14.cache5.c.youtube.com'
p1432
aS'v14.cache6.c.youtube.com'
p1433
aS'v14.cache7.c.youtube.com'
p1434
aS'v14.cache8.c.youtube.com'
p1435
aS'v15.cache1.c.youtube.com'
p1436
aS'v15.cache2.c.youtube.com'
p1437
aS'v15.cache3.c.youtube.com'
p1438
aS'v15.cache4.c.youtube.com'
p1439
aS'v15.cache5.c.youtube.com'
p1440
aS'v15.cache6.c.youtube.com'
p1441
aS'v15.cache7.c.youtube.com'
p1442
aS'v15.cache8.c.youtube.com'
p1443
aS'v16.cache1.c.youtube.com'
p1444
aS'v16.cache2.c.youtube.com'
p1445
aS'v16.cache3.c.youtube.com'
p1446
aS'v16.cache4.c.youtube.com'
p1447
aS'v16.cache5.c.youtube.com'
p1448
aS'v16.cache6.c.youtube.com'
p1449
aS'v16.cache7.c.youtube.com'
p1450
aS'v16.cache8.c.youtube.com'
p1451
aS'v17.cache1.c.youtube.com'
p1452
aS'v17.cache2.c.youtube.com'
p1453
aS'v17.cache3.c.youtube.com'
p1454
aS'v17.cache4.c.youtube.com'
p1455
aS'v17.cache5.c.youtube.com'
p1456
aS'v17.cache6.c.youtube.com'
p1457
aS'v17.cache7.c.youtube.com'
p1458
aS'v17.cache8.c.youtube.com'
p1459
aS'v18.cache1.c.youtube.com'
p1460
aS'v18.cache2.c.youtube.com'
p1461
aS'v18.cache3.c.youtube.com'
p1462
aS'v18.cache4.c.youtube.com'
p1463
aS'v18.cache5.c.youtube.com'
p1464
aS'v18.cache6.c.youtube.com'
p1465
aS'v18.cache7.c.youtube.com'
p1466
aS'v18.cache8.c.youtube.com'
p1467
aS'v19.cache1.c.youtube.com'
p1468
aS'v19.cache2.c.youtube.com'
p1469
aS'v19.cache3.c.youtube.com'
p1470
aS'v19.cache4.c.youtube.com'
p1471
aS'v19.cache5.c.youtube.com'
p1472
aS'v19.cache6.c.youtube.com'
p1473
aS'v19.cache7.c.youtube.com'
p1474
aS'v19.cache8.c.youtube.com'
p1475
aS'v20.cache1.c.youtube.com'
p1476
aS'v20.cache2.c.youtube.com'
p1477
aS'v20.cache3.c.youtube.com'
p1478
aS'v20.cache4.c.youtube.com'
p1479
aS'v20.cache5.c.youtube.com'
p1480
aS'v20.cache6.c.youtube.com'
p1481
aS'v20.cache7.c.youtube.com'
p1482
aS'v20.cache8.c.youtube.com'
p1483
aS'v21.cache1.c.youtube.com'
p1484
aS'v21.cache2.c.youtube.com'
p1485
aS'v21.cache3.c.youtube.com'
p1486
aS'v21.cache4.c.youtube.com'
p1487
aS'v21.cache5.c.youtube.com'
p1488
aS'v21.cache6.c.youtube.com'
p1489
aS'v21.cache7.c.youtube.com'
p1490
aS'v21.cache8.c.youtube.com'
p1491
aS'v22.cache1.c.youtube.com'
p1492
aS'v22.cache2.c.youtube.com'
p1493
aS'v22.cache3.c.youtube.com'
p1494
aS'v22.cache4.c.youtube.com'
p1495
aS'v22.cache5.c.youtube.com'
p1496
aS'v22.cache6.c.youtube.com'
p1497
aS'v22.cache7.c.youtube.com'
p1498
aS'v22.cache8.c.youtube.com'
p1499
aS'v23.cache1.c.youtube.com'
p1500
aS'v23.cache2.c.youtube.com'
p1501
aS'v23.cache3.c.youtube.com'
p1502
aS'v23.cache4.c.youtube.com'
p1503
aS'v23.cache5.c.youtube.com'
p1504
aS'v23.cache6.c.youtube.com'
p1505
aS'v23.cache7.c.youtube.com'
p1506
aS'v23.cache8.c.youtube.com'
p1507
aS'v24.cache1.c.youtube.com'
p1508
aS'v24.cache2.c.youtube.com'
p1509
aS'v24.cache3.c.youtube.com'
p1510
aS'v24.cache4.c.youtube.com'
p1511
aS'v24.cache5.c.youtube.com'
p1512
aS'v24.cache6.c.youtube.com'
p1513
aS'v24.cache7.c.youtube.com'
p1514
aS'v24.cache8.c.youtube.com'
p1515
aS'r1.hkg05s01.c.youtube.com'
p1516
aS'r1.hkg05s02.c.youtube.com'
p1517
aS'r1.hkg05s03.c.youtube.com'
p1518
aS'r1.hkg05s04.c.youtube.com'
p1519
aS'r2.hkg05s01.c.youtube.com'
p1520
aS'r2.hkg05s02.c.youtube.com'
p1521
aS'r2.hkg05s03.c.youtube.com'
p1522
aS'r2.hkg05s04.c.youtube.com'
p1523
aS'r3.hkg05s01.c.youtube.com'
p1524
aS'r3.hkg05s02.c.youtube.com'
p1525
aS'r3.hkg05s03.c.youtube.com'
p1526
aS'r3.hkg05s04.c.youtube.com'
p1527
aS'r4.hkg05s01.c.youtube.com'
p1528
aS'r4.hkg05s02.c.youtube.com'
p1529
aS'r4.hkg05s03.c.youtube.com'
p1530
aS'r4.hkg05s04.c.youtube.com'
p1531
aS'r5.hkg05s01.c.youtube.com'
p1532
aS'r5.hkg05s02.c.youtube.com'
p1533
aS'r5.hkg05s03.c.youtube.com'
p1534
aS'r5.hkg05s04.c.youtube.com'
p1535
aS'r6.hkg05s01.c.youtube.com'
p1536
aS'r6.hkg05s02.c.youtube.com'
p1537
aS'r6.hkg05s03.c.youtube.com'
p1538
aS'r6.hkg05s04.c.youtube.com'
p1539
aS'r7.hkg05s01.c.youtube.com'
p1540
aS'r7.hkg05s02.c.youtube.com'
p1541
aS'r7.hkg05s03.c.youtube.com'
p1542
aS'r7.hkg05s04.c.youtube.com'
p1543
aS'r8.hkg05s01.c.youtube.com'
p1544
aS'r8.hkg05s02.c.youtube.com'
p1545
aS'r8.hkg05s03.c.youtube.com'
p1546
aS'r8.hkg05s04.c.youtube.com'
p1547
aS'r9.hkg05s01.c.youtube.com'
p1548
aS'r9.hkg05s02.c.youtube.com'
p1549
aS'r9.hkg05s03.c.youtube.com'
p1550
aS'r9.hkg05s04.c.youtube.com'
p1551
aS'r10.hkg05s01.c.youtube.com'
p1552
aS'r10.hkg05s02.c.youtube.com'
p1553
aS'r10.hkg05s03.c.youtube.com'
p1554
aS'r10.hkg05s04.c.youtube.com'
p1555
aS'r11.hkg05s01.c.youtube.com'
p1556
aS'r11.hkg05s02.c.youtube.com'
p1557
aS'r11.hkg05s03.c.youtube.com'
p1558
aS'r11.hkg05s04.c.youtube.com'
p1559
aS'r12.hkg05s01.c.youtube.com'
p1560
aS'r12.hkg05s02.c.youtube.com'
p1561
aS'r12.hkg05s03.c.youtube.com'
p1562
aS'r12.hkg05s04.c.youtube.com'
p1563
aS'r13.hkg05s01.c.youtube.com'
p1564
aS'r13.hkg05s02.c.youtube.com'
p1565
aS'r13.hkg05s03.c.youtube.com'
p1566
aS'r13.hkg05s04.c.youtube.com'
p1567
aS'r14.hkg05s01.c.youtube.com'
p1568
aS'r14.hkg05s02.c.youtube.com'
p1569
aS'r14.hkg05s03.c.youtube.com'
p1570
aS'r14.hkg05s04.c.youtube.com'
p1571
aS'r15.hkg05s01.c.youtube.com'
p1572
aS'r15.hkg05s02.c.youtube.com'
p1573
aS'r15.hkg05s03.c.youtube.com'
p1574
aS'r15.hkg05s04.c.youtube.com'
p1575
aS'r16.hkg05s01.c.youtube.com'
p1576
aS'r16.hkg05s02.c.youtube.com'
p1577
aS'r16.hkg05s03.c.youtube.com'
p1578
aS'r16.hkg05s04.c.youtube.com'
p1579
aS'r17.hkg05s01.c.youtube.com'
p1580
aS'r17.hkg05s02.c.youtube.com'
p1581
aS'r17.hkg05s03.c.youtube.com'
p1582
aS'r17.hkg05s04.c.youtube.com'
p1583
aS'r18.hkg05s01.c.youtube.com'
p1584
aS'r18.hkg05s02.c.youtube.com'
p1585
aS'r18.hkg05s03.c.youtube.com'
p1586
aS'r18.hkg05s04.c.youtube.com'
p1587
aS'r19.hkg05s01.c.youtube.com'
p1588
aS'r19.hkg05s02.c.youtube.com'
p1589
aS'r19.hkg05s03.c.youtube.com'
p1590
aS'r19.hkg05s04.c.youtube.com'
p1591
aS'r20.hkg05s01.c.youtube.com'
p1592
aS'r20.hkg05s02.c.youtube.com'
p1593
aS'r20.hkg05s03.c.youtube.com'
p1594
aS'r20.hkg05s04.c.youtube.com'
p1595
aS'333.channel.facebook.com'
p1596
aS'333.ctest.facebook.com'
p1597
aS'developers.v6.facebook.com'
p1598
aS'error.12.channel.facebook.com'
p1599
aS'0-333.channel.facebook.com'
p1600
aS'1-333.channel.facebook.com'
p1601
aS'2-333.channel.facebook.com'
p1602
aS'3-333.channel.facebook.com'
p1603
aS'4-333.channel.facebook.com'
p1604
aS'm.lisp6.facebook.com'
p1605
aS'www.lisp6.facebook.com'
p1606
aS'5-333.channel.facebook.com'
p1607
aS'6-333.channel.facebook.com'
p1608
aS'photos-y.ak.fbcdn.net'
p1609
aS'photos-z.ak.fbcdn.net'
p1610
aS'photos-w.ak.fbcdn.net'
p1611
aS'photos-x.ak.fbcdn.net'
p1612
aS'clients1.youtube.com'
p1613
aS'v9.cache1.c.youtube.com'
p1614
aS'v9.cache2.c.youtube.com'
p1615
aS'v9.cache3.c.youtube.com'
p1616
aS'v9.cache4.c.youtube.com'
p1617
aS'v9.cache5.c.youtube.com'
p1618
aS'v9.cache6.c.youtube.com'
p1619
aS'v9.cache7.c.youtube.com'
p1620
aS'v9.cache8.c.youtube.com'
p1621
aS'v10.cache1.c.youtube.com'
p1622
aS'v10.cache2.c.youtube.com'
p1623
aS'v10.cache3.c.youtube.com'
p1624
aS'v10.cache4.c.youtube.com'
p1625
aS'v10.cache5.c.youtube.com'
p1626
aS'v10.cache6.c.youtube.com'
p1627
aS'v10.cache7.c.youtube.com'
p1628
aS'v10.cache8.c.youtube.com'
p1629
aS'v11.cache1.c.youtube.com'
p1630
aS'v11.cache2.c.youtube.com'
p1631
aS'v11.cache3.c.youtube.com'
p1632
aS'v11.cache4.c.youtube.com'
p1633
aS'v11.cache5.c.youtube.com'
p1634
aS'v11.cache6.c.youtube.com'
p1635
aS'v11.cache7.c.youtube.com'
p1636
aS'v11.cache8.c.youtube.com'
p1637
aS'v12.cache1.c.youtube.com'
p1638
aS'v12.cache2.c.youtube.com'
p1639
aS'v12.cache3.c.youtube.com'
p1640
aS'v12.cache4.c.youtube.com'
p1641
aS'v12.cache5.c.youtube.com'
p1642
aS'v12.cache6.c.youtube.com'
p1643
aS'v12.cache7.c.youtube.com'
p1644
aS'v12.cache8.c.youtube.com'
p1645
aS'v13.cache1.c.youtube.com'
p1646
aS'v13.cache2.c.youtube.com'
p1647
aS'v13.cache3.c.youtube.com'
p1648
aS'v13.cache4.c.youtube.com'
p1649
aS'v13.cache5.c.youtube.com'
p1650
aS'v13.cache6.c.youtube.com'
p1651
aS'v13.cache7.c.youtube.com'
p1652
aS'v13.cache8.c.youtube.com'
p1653
aS'v14.cache1.c.youtube.com'
p1654
aS'v14.cache2.c.youtube.com'
p1655
aS'v14.cache3.c.youtube.com'
p1656
aS'v14.cache4.c.youtube.com'
p1657
aS'v14.cache5.c.youtube.com'
p1658
aS'v14.cache6.c.youtube.com'
p1659
aS'v14.cache7.c.youtube.com'
p1660
aS'v14.cache8.c.youtube.com'
p1661
aS'v15.cache1.c.youtube.com'
p1662
aS'v15.cache2.c.youtube.com'
p1663
aS'v15.cache3.c.youtube.com'
p1664
aS'v15.cache4.c.youtube.com'
p1665
aS'v15.cache5.c.youtube.com'
p1666
aS'v15.cache6.c.youtube.com'
p1667
aS'v15.cache7.c.youtube.com'
p1668
aS'v15.cache8.c.youtube.com'
p1669
aS'v16.cache1.c.youtube.com'
p1670
aS'v16.cache2.c.youtube.com'
p1671
aS'v16.cache3.c.youtube.com'
p1672
aS'v16.cache4.c.youtube.com'
p1673
aS'v16.cache5.c.youtube.com'
p1674
aS'v16.cache6.c.youtube.com'
p1675
aS'v16.cache7.c.youtube.com'
p1676
aS'v16.cache8.c.youtube.com'
p1677
aS'v17.cache1.c.youtube.com'
p1678
aS'v17.cache2.c.youtube.com'
p1679
aS'v17.cache3.c.youtube.com'
p1680
aS'v17.cache4.c.youtube.com'
p1681
aS'v17.cache5.c.youtube.com'
p1682
aS'v17.cache6.c.youtube.com'
p1683
aS'v17.cache7.c.youtube.com'
p1684
aS'v17.cache8.c.youtube.com'
p1685
aS'v18.cache1.c.youtube.com'
p1686
aS'v18.cache2.c.youtube.com'
p1687
aS'v18.cache3.c.youtube.com'
p1688
aS'v18.cache4.c.youtube.com'
p1689
aS'v18.cache5.c.youtube.com'
p1690
aS'v18.cache6.c.youtube.com'
p1691
aS'v18.cache7.c.youtube.com'
p1692
aS'v18.cache8.c.youtube.com'
p1693
aS'v19.cache1.c.youtube.com'
p1694
aS'v19.cache2.c.youtube.com'
p1695
aS'v19.cache3.c.youtube.com'
p1696
aS'v19.cache4.c.youtube.com'
p1697
aS'v19.cache5.c.youtube.com'
p1698
aS'v19.cache6.c.youtube.com'
p1699
aS'v19.cache7.c.youtube.com'
p1700
aS'v19.cache8.c.youtube.com'
p1701
aS'v20.cache1.c.youtube.com'
p1702
aS'v20.cache2.c.youtube.com'
p1703
aS'v20.cache3.c.youtube.com'
p1704
aS'v20.cache4.c.youtube.com'
p1705
aS'v20.cache5.c.youtube.com'
p1706
aS'v20.cache6.c.youtube.com'
p1707
aS'v20.cache7.c.youtube.com'
p1708
aS'v20.cache8.c.youtube.com'
p1709
aS'v21.cache1.c.youtube.com'
p1710
aS'v21.cache2.c.youtube.com'
p1711
aS'v21.cache3.c.youtube.com'
p1712
aS'v21.cache4.c.youtube.com'
p1713
aS'v21.cache5.c.youtube.com'
p1714
aS'v21.cache6.c.youtube.com'
p1715
aS'v21.cache7.c.youtube.com'
p1716
aS'v21.cache8.c.youtube.com'
p1717
aS'v22.cache1.c.youtube.com'
p1718
aS'v22.cache2.c.youtube.com'
p1719
aS'v22.cache3.c.youtube.com'
p1720
aS'v22.cache4.c.youtube.com'
p1721
aS'v22.cache5.c.youtube.com'
p1722
aS'v22.cache6.c.youtube.com'
p1723
aS'v22.cache7.c.youtube.com'
p1724
aS'v22.cache8.c.youtube.com'
p1725
aS'v23.cache1.c.youtube.com'
p1726
aS'v23.cache2.c.youtube.com'
p1727
aS'v23.cache3.c.youtube.com'
p1728
aS'v23.cache4.c.youtube.com'
p1729
aS'v23.cache5.c.youtube.com'
p1730
aS'v23.cache6.c.youtube.com'
p1731
aS'v23.cache7.c.youtube.com'
p1732
aS'v23.cache8.c.youtube.com'
p1733
aS'v24.cache1.c.youtube.com'
p1734
aS'v24.cache2.c.youtube.com'
p1735
aS'v24.cache3.c.youtube.com'
p1736
aS'v24.cache4.c.youtube.com'
p1737
aS'v24.cache5.c.youtube.com'
p1738
aS'v24.cache6.c.youtube.com'
p1739
aS'v24.cache7.c.youtube.com'
p1740
aS'v24.cache8.c.youtube.com'
p1741
aS'r1.hkg05s01.c.youtube.com'
p1742
aS'r1.hkg05s02.c.youtube.com'
p1743
aS'r1.hkg05s03.c.youtube.com'
p1744
aS'r1.hkg05s04.c.youtube.com'
p1745
aS'r2.hkg05s01.c.youtube.com'
p1746
aS'r2.hkg05s02.c.youtube.com'
p1747
aS'r2.hkg05s03.c.youtube.com'
p1748
aS'r2.hkg05s04.c.youtube.com'
p1749
aS'r3.hkg05s01.c.youtube.com'
p1750
aS'r3.hkg05s02.c.youtube.com'
p1751
aS'r3.hkg05s03.c.youtube.com'
p1752
aS'r3.hkg05s04.c.youtube.com'
p1753
aS'r4.hkg05s01.c.youtube.com'
p1754
aS'r4.hkg05s02.c.youtube.com'
p1755
aS'r4.hkg05s03.c.youtube.com'
p1756
aS'r4.hkg05s04.c.youtube.com'
p1757
aS'r5.hkg05s01.c.youtube.com'
p1758
aS'r5.hkg05s02.c.youtube.com'
p1759
aS'r5.hkg05s03.c.youtube.com'
p1760
aS'r5.hkg05s04.c.youtube.com'
p1761
aS'r6.hkg05s01.c.youtube.com'
p1762
aS'r6.hkg05s02.c.youtube.com'
p1763
aS'r6.hkg05s03.c.youtube.com'
p1764
aS'r6.hkg05s04.c.youtube.com'
p1765
aS'r7.hkg05s01.c.youtube.com'
p1766
aS'r7.hkg05s02.c.youtube.com'
p1767
aS'r7.hkg05s03.c.youtube.com'
p1768
aS'r7.hkg05s04.c.youtube.com'
p1769
aS'r8.hkg05s01.c.youtube.com'
p1770
aS'r8.hkg05s02.c.youtube.com'
p1771
aS'r8.hkg05s03.c.youtube.com'
p1772
aS'r8.hkg05s04.c.youtube.com'
p1773
aS'r9.hkg05s01.c.youtube.com'
p1774
aS'r9.hkg05s02.c.youtube.com'
p1775
aS'r9.hkg05s03.c.youtube.com'
p1776
aS'r9.hkg05s04.c.youtube.com'
p1777
aS'r10.hkg05s01.c.youtube.com'
p1778
aS'r10.hkg05s02.c.youtube.com'
p1779
aS'r10.hkg05s03.c.youtube.com'
p1780
aS'r10.hkg05s04.c.youtube.com'
p1781
aS'r11.hkg05s01.c.youtube.com'
p1782
aS'r11.hkg05s02.c.youtube.com'
p1783
aS'r11.hkg05s03.c.youtube.com'
p1784
aS'r11.hkg05s04.c.youtube.com'
p1785
aS'r12.hkg05s01.c.youtube.com'
p1786
aS'r12.hkg05s02.c.youtube.com'
p1787
aS'r12.hkg05s03.c.youtube.com'
p1788
aS'r12.hkg05s04.c.youtube.com'
p1789
aS'r13.hkg05s01.c.youtube.com'
p1790
aS'r13.hkg05s02.c.youtube.com'
p1791
aS'r13.hkg05s03.c.youtube.com'
p1792
aS'r13.hkg05s04.c.youtube.com'
p1793
aS'r14.hkg05s01.c.youtube.com'
p1794
aS'r14.hkg05s02.c.youtube.com'
p1795
aS'r14.hkg05s03.c.youtube.com'
p1796
aS'r14.hkg05s04.c.youtube.com'
p1797
aS'r15.hkg05s01.c.youtube.com'
p1798
aS'r15.hkg05s02.c.youtube.com'
p1799
aS'r15.hkg05s03.c.youtube.com'
p1800
aS'r15.hkg05s04.c.youtube.com'
p1801
aS'r16.hkg05s01.c.youtube.com'
p1802
aS'r16.hkg05s02.c.youtube.com'
p1803
aS'r16.hkg05s03.c.youtube.com'
p1804
aS'r16.hkg05s04.c.youtube.com'
p1805
aS'r17.hkg05s01.c.youtube.com'
p1806
aS'r17.hkg05s02.c.youtube.com'
p1807
aS'r17.hkg05s03.c.youtube.com'
p1808
aS'r17.hkg05s04.c.youtube.com'
p1809
aS'r18.hkg05s01.c.youtube.com'
p1810
aS'r18.hkg05s02.c.youtube.com'
p1811
aS'r18.hkg05s03.c.youtube.com'
p1812
aS'r18.hkg05s04.c.youtube.com'
p1813
aS'r19.hkg05s01.c.youtube.com'
p1814
aS'r19.hkg05s02.c.youtube.com'
p1815
aS'r19.hkg05s03.c.youtube.com'
p1816
aS'r19.hkg05s04.c.youtube.com'
p1817
aS'r20.hkg05s01.c.youtube.com'
p1818
aS'r20.hkg05s02.c.youtube.com'
p1819
aS'r20.hkg05s03.c.youtube.com'
p1820
aS'r20.hkg05s04.c.youtube.com'
p1821
aS'333.channel.facebook.com'
p1822
aS'333.ctest.facebook.com'
p1823
aS'developers.v6.facebook.com'
p1824
aS'error.12.channel.facebook.com'
p1825
aS'0-333.channel.facebook.com'
p1826
aS'1-333.channel.facebook.com'
p1827
aS'2-333.channel.facebook.com'
p1828
aS'3-333.channel.facebook.com'
p1829
aS'www.lisp6.facebook.com'
p1830
aS'4-333.channel.facebook.com'
p1831
aS'm.lisp6.facebook.com'
p1832
aS'5-333.channel.facebook.com'
p1833
aS'6-333.channel.facebook.com'
p1834
aS'photos-y.ak.fbcdn.net'
p1835
aS'photos-z.ak.fbcdn.net'
p1836
aS'photos-w.ak.fbcdn.net'
p1837
aS'photos-x.ak.fbcdn.net'
p1838
aS'clients1.youtube.com'
p1839
aS'v9.cache1.c.youtube.com'
p1840
aS'v9.cache2.c.youtube.com'
p1841
aS'v9.cache3.c.youtube.com'
p1842
aS'v9.cache4.c.youtube.com'
p1843
aS'v9.cache5.c.youtube.com'
p1844
aS'v9.cache6.c.youtube.com'
p1845
aS'v9.cache7.c.youtube.com'
p1846
aS'v9.cache8.c.youtube.com'
p1847
aS'v10.cache1.c.youtube.com'
p1848
aS'v10.cache2.c.youtube.com'
p1849
aS'v10.cache3.c.youtube.com'
p1850
aS'v10.cache4.c.youtube.com'
p1851
aS'v10.cache5.c.youtube.com'
p1852
aS'v10.cache6.c.youtube.com'
p1853
aS'v10.cache7.c.youtube.com'
p1854
aS'v10.cache8.c.youtube.com'
p1855
aS'v11.cache1.c.youtube.com'
p1856
aS'v11.cache2.c.youtube.com'
p1857
aS'v11.cache3.c.youtube.com'
p1858
aS'v11.cache4.c.youtube.com'
p1859
aS'v11.cache5.c.youtube.com'
p1860
aS'v11.cache6.c.youtube.com'
p1861
aS'v11.cache7.c.youtube.com'
p1862
aS'v11.cache8.c.youtube.com'
p1863
aS'v12.cache1.c.youtube.com'
p1864
aS'v12.cache2.c.youtube.com'
p1865
aS'v12.cache3.c.youtube.com'
p1866
aS'v12.cache4.c.youtube.com'
p1867
aS'v12.cache5.c.youtube.com'
p1868
aS'v12.cache6.c.youtube.com'
p1869
aS'v12.cache7.c.youtube.com'
p1870
aS'v12.cache8.c.youtube.com'
p1871
aS'v13.cache1.c.youtube.com'
p1872
aS'v13.cache2.c.youtube.com'
p1873
aS'v13.cache3.c.youtube.com'
p1874
aS'v13.cache4.c.youtube.com'
p1875
aS'v13.cache5.c.youtube.com'
p1876
aS'v13.cache6.c.youtube.com'
p1877
aS'v13.cache7.c.youtube.com'
p1878
aS'v13.cache8.c.youtube.com'
p1879
aS'v14.cache1.c.youtube.com'
p1880
aS'v14.cache2.c.youtube.com'
p1881
aS'v14.cache3.c.youtube.com'
p1882
aS'v14.cache4.c.youtube.com'
p1883
aS'v14.cache5.c.youtube.com'
p1884
aS'v14.cache6.c.youtube.com'
p1885
aS'v14.cache7.c.youtube.com'
p1886
aS'v14.cache8.c.youtube.com'
p1887
aS'v15.cache1.c.youtube.com'
p1888
aS'v15.cache2.c.youtube.com'
p1889
aS'v15.cache3.c.youtube.com'
p1890
aS'v15.cache4.c.youtube.com'
p1891
aS'v15.cache5.c.youtube.com'
p1892
aS'v15.cache6.c.youtube.com'
p1893
aS'v15.cache7.c.youtube.com'
p1894
aS'v15.cache8.c.youtube.com'
p1895
aS'v16.cache1.c.youtube.com'
p1896
aS'v16.cache2.c.youtube.com'
p1897
aS'v16.cache3.c.youtube.com'
p1898
aS'v16.cache4.c.youtube.com'
p1899
aS'v16.cache5.c.youtube.com'
p1900
aS'v16.cache6.c.youtube.com'
p1901
aS'v16.cache7.c.youtube.com'
p1902
aS'v16.cache8.c.youtube.com'
p1903
aS'v17.cache1.c.youtube.com'
p1904
aS'v17.cache2.c.youtube.com'
p1905
aS'v17.cache3.c.youtube.com'
p1906
aS'v17.cache4.c.youtube.com'
p1907
aS'v17.cache5.c.youtube.com'
p1908
aS'v17.cache6.c.youtube.com'
p1909
aS'v17.cache7.c.youtube.com'
p1910
aS'v17.cache8.c.youtube.com'
p1911
aS'v18.cache1.c.youtube.com'
p1912
aS'v18.cache2.c.youtube.com'
p1913
aS'v18.cache3.c.youtube.com'
p1914
aS'v18.cache4.c.youtube.com'
p1915
aS'v18.cache5.c.youtube.com'
p1916
aS'v18.cache6.c.youtube.com'
p1917
aS'v18.cache7.c.youtube.com'
p1918
aS'v18.cache8.c.youtube.com'
p1919
aS'v19.cache1.c.youtube.com'
p1920
aS'v19.cache2.c.youtube.com'
p1921
aS'v19.cache3.c.youtube.com'
p1922
aS'v19.cache4.c.youtube.com'
p1923
aS'v19.cache5.c.youtube.com'
p1924
aS'v19.cache6.c.youtube.com'
p1925
aS'v19.cache7.c.youtube.com'
p1926
aS'v19.cache8.c.youtube.com'
p1927
aS'v20.cache1.c.youtube.com'
p1928
aS'v20.cache2.c.youtube.com'
p1929
aS'v20.cache3.c.youtube.com'
p1930
aS'v20.cache4.c.youtube.com'
p1931
aS'v20.cache5.c.youtube.com'
p1932
aS'v20.cache6.c.youtube.com'
p1933
aS'v20.cache7.c.youtube.com'
p1934
aS'v20.cache8.c.youtube.com'
p1935
aS'v21.cache1.c.youtube.com'
p1936
aS'v21.cache2.c.youtube.com'
p1937
aS'v21.cache3.c.youtube.com'
p1938
aS'v21.cache4.c.youtube.com'
p1939
aS'v21.cache5.c.youtube.com'
p1940
aS'v21.cache6.c.youtube.com'
p1941
aS'v21.cache7.c.youtube.com'
p1942
aS'v21.cache8.c.youtube.com'
p1943
aS'v22.cache1.c.youtube.com'
p1944
aS'v22.cache2.c.youtube.com'
p1945
aS'v22.cache3.c.youtube.com'
p1946
aS'v22.cache4.c.youtube.com'
p1947
aS'v22.cache5.c.youtube.com'
p1948
aS'v22.cache6.c.youtube.com'
p1949
aS'v22.cache7.c.youtube.com'
p1950
aS'v22.cache8.c.youtube.com'
p1951
aS'v23.cache1.c.youtube.com'
p1952
aS'v23.cache2.c.youtube.com'
p1953
aS'v23.cache3.c.youtube.com'
p1954
aS'v23.cache4.c.youtube.com'
p1955
aS'v23.cache5.c.youtube.com'
p1956
aS'v23.cache6.c.youtube.com'
p1957
aS'v23.cache7.c.youtube.com'
p1958
aS'v23.cache8.c.youtube.com'
p1959
aS'v24.cache1.c.youtube.com'
p1960
aS'v24.cache2.c.youtube.com'
p1961
aS'v24.cache3.c.youtube.com'
p1962
aS'v24.cache4.c.youtube.com'
p1963
aS'v24.cache5.c.youtube.com'
p1964
aS'v24.cache6.c.youtube.com'
p1965
aS'v24.cache7.c.youtube.com'
p1966
aS'v24.cache8.c.youtube.com'
p1967
aS'r1.hkg05s01.c.youtube.com'
p1968
aS'r1.hkg05s02.c.youtube.com'
p1969
aS'r1.hkg05s03.c.youtube.com'
p1970
aS'r1.hkg05s04.c.youtube.com'
p1971
aS'r2.hkg05s01.c.youtube.com'
p1972
aS'r2.hkg05s02.c.youtube.com'
p1973
aS'r2.hkg05s03.c.youtube.com'
p1974
aS'r2.hkg05s04.c.youtube.com'
p1975
aS'r3.hkg05s01.c.youtube.com'
p1976
aS'r3.hkg05s02.c.youtube.com'
p1977
aS'r3.hkg05s03.c.youtube.com'
p1978
aS'r3.hkg05s04.c.youtube.com'
p1979
aS'r4.hkg05s01.c.youtube.com'
p1980
aS'r4.hkg05s02.c.youtube.com'
p1981
aS'r4.hkg05s03.c.youtube.com'
p1982
aS'r4.hkg05s04.c.youtube.com'
p1983
aS'r5.hkg05s01.c.youtube.com'
p1984
aS'r5.hkg05s02.c.youtube.com'
p1985
aS'r5.hkg05s03.c.youtube.com'
p1986
aS'r5.hkg05s04.c.youtube.com'
p1987
aS'r6.hkg05s01.c.youtube.com'
p1988
aS'r6.hkg05s02.c.youtube.com'
p1989
aS'r6.hkg05s03.c.youtube.com'
p1990
aS'r6.hkg05s04.c.youtube.com'
p1991
aS'r7.hkg05s01.c.youtube.com'
p1992
aS'r7.hkg05s02.c.youtube.com'
p1993
aS'r7.hkg05s03.c.youtube.com'
p1994
aS'r7.hkg05s04.c.youtube.com'
p1995
aS'r8.hkg05s01.c.youtube.com'
p1996
aS'r8.hkg05s02.c.youtube.com'
p1997
aS'r8.hkg05s03.c.youtube.com'
p1998
aS'r8.hkg05s04.c.youtube.com'
p1999
aS'r9.hkg05s01.c.youtube.com'
p2000
aS'r9.hkg05s02.c.youtube.com'
p2001
aS'r9.hkg05s03.c.youtube.com'
p2002
aS'r9.hkg05s04.c.youtube.com'
p2003
aS'r10.hkg05s01.c.youtube.com'
p2004
aS'r10.hkg05s02.c.youtube.com'
p2005
aS'r10.hkg05s03.c.youtube.com'
p2006
aS'r10.hkg05s04.c.youtube.com'
p2007
aS'r11.hkg05s01.c.youtube.com'
p2008
aS'r11.hkg05s02.c.youtube.com'
p2009
aS'r11.hkg05s03.c.youtube.com'
p2010
aS'r11.hkg05s04.c.youtube.com'
p2011
aS'r12.hkg05s01.c.youtube.com'
p2012
aS'r12.hkg05s02.c.youtube.com'
p2013
aS'r12.hkg05s03.c.youtube.com'
p2014
aS'r12.hkg05s04.c.youtube.com'
p2015
aS'r13.hkg05s01.c.youtube.com'
p2016
aS'r13.hkg05s02.c.youtube.com'
p2017
aS'r13.hkg05s03.c.youtube.com'
p2018
aS'r13.hkg05s04.c.youtube.com'
p2019
aS'r14.hkg05s01.c.youtube.com'
p2020
aS'r14.hkg05s02.c.youtube.com'
p2021
aS'r14.hkg05s03.c.youtube.com'
p2022
aS'r14.hkg05s04.c.youtube.com'
p2023
aS'r15.hkg05s01.c.youtube.com'
p2024
aS'r15.hkg05s02.c.youtube.com'
p2025
aS'r15.hkg05s03.c.youtube.com'
p2026
aS'r15.hkg05s04.c.youtube.com'
p2027
aS'r16.hkg05s01.c.youtube.com'
p2028
aS'r16.hkg05s02.c.youtube.com'
p2029
aS'r16.hkg05s03.c.youtube.com'
p2030
aS'r16.hkg05s04.c.youtube.com'
p2031
aS'r17.hkg05s01.c.youtube.com'
p2032
aS'r17.hkg05s02.c.youtube.com'
p2033
aS'r17.hkg05s03.c.youtube.com'
p2034
aS'r17.hkg05s04.c.youtube.com'
p2035
aS'r18.hkg05s01.c.youtube.com'
p2036
aS'r18.hkg05s02.c.youtube.com'
p2037
aS'r18.hkg05s03.c.youtube.com'
p2038
aS'r18.hkg05s04.c.youtube.com'
p2039
aS'r19.hkg05s01.c.youtube.com'
p2040
aS'r19.hkg05s02.c.youtube.com'
p2041
aS'r19.hkg05s03.c.youtube.com'
p2042
aS'r19.hkg05s04.c.youtube.com'
p2043
aS'r20.hkg05s01.c.youtube.com'
p2044
aS'r20.hkg05s02.c.youtube.com'
p2045
aS'r20.hkg05s03.c.youtube.com'
p2046
aS'r20.hkg05s04.c.youtube.com'
p2047
aS'333.channel.facebook.com'
p2048
aS'333.ctest.facebook.com'
p2049
aS'developers.v6.facebook.com'
p2050
aS'error.12.channel.facebook.com'
p2051
aS'0-333.channel.facebook.com'
p2052
aS'1-333.channel.facebook.com'
p2053
aS'2-333.channel.facebook.com'
p2054
aS'3-333.channel.facebook.com'
p2055
aS'4-333.channel.facebook.com'
p2056
aS'www.lisp6.facebook.com'
p2057
aS'm.lisp6.facebook.com'
p2058
aS'5-333.channel.facebook.com'
p2059
aS'6-333.channel.facebook.com'
p2060
aS'photos-y.ak.fbcdn.net'
p2061
aS'photos-z.ak.fbcdn.net'
p2062
aS'photos-w.ak.fbcdn.net'
p2063
aS'photos-x.ak.fbcdn.net'
p2064
aS'clients1.youtube.com'
p2065
aS'v9.cache1.c.youtube.com'
p2066
aS'v9.cache2.c.youtube.com'
p2067
aS'v9.cache3.c.youtube.com'
p2068
aS'v9.cache4.c.youtube.com'
p2069
aS'v9.cache5.c.youtube.com'
p2070
aS'v9.cache6.c.youtube.com'
p2071
aS'v9.cache7.c.youtube.com'
p2072
aS'v9.cache8.c.youtube.com'
p2073
aS'v10.cache1.c.youtube.com'
p2074
aS'v10.cache2.c.youtube.com'
p2075
aS'v10.cache3.c.youtube.com'
p2076
aS'v10.cache4.c.youtube.com'
p2077
aS'v10.cache5.c.youtube.com'
p2078
aS'v10.cache6.c.youtube.com'
p2079
aS'v10.cache7.c.youtube.com'
p2080
aS'v10.cache8.c.youtube.com'
p2081
aS'v11.cache1.c.youtube.com'
p2082
aS'v11.cache2.c.youtube.com'
p2083
aS'v11.cache3.c.youtube.com'
p2084
aS'v11.cache4.c.youtube.com'
p2085
aS'v11.cache5.c.youtube.com'
p2086
aS'v11.cache6.c.youtube.com'
p2087
aS'v11.cache7.c.youtube.com'
p2088
aS'v11.cache8.c.youtube.com'
p2089
aS'v12.cache1.c.youtube.com'
p2090
aS'v12.cache2.c.youtube.com'
p2091
aS'v12.cache3.c.youtube.com'
p2092
aS'v12.cache4.c.youtube.com'
p2093
aS'v12.cache5.c.youtube.com'
p2094
aS'v12.cache6.c.youtube.com'
p2095
aS'v12.cache7.c.youtube.com'
p2096
aS'v12.cache8.c.youtube.com'
p2097
aS'v13.cache1.c.youtube.com'
p2098
aS'v13.cache2.c.youtube.com'
p2099
aS'v13.cache3.c.youtube.com'
p2100
aS'v13.cache4.c.youtube.com'
p2101
aS'v13.cache5.c.youtube.com'
p2102
aS'v13.cache6.c.youtube.com'
p2103
aS'v13.cache7.c.youtube.com'
p2104
aS'v13.cache8.c.youtube.com'
p2105
aS'v14.cache1.c.youtube.com'
p2106
aS'v14.cache2.c.youtube.com'
p2107
aS'v14.cache3.c.youtube.com'
p2108
aS'v14.cache4.c.youtube.com'
p2109
aS'v14.cache5.c.youtube.com'
p2110
aS'v14.cache6.c.youtube.com'
p2111
aS'v14.cache7.c.youtube.com'
p2112
aS'v14.cache8.c.youtube.com'
p2113
aS'v15.cache1.c.youtube.com'
p2114
aS'v15.cache2.c.youtube.com'
p2115
aS'v15.cache3.c.youtube.com'
p2116
aS'v15.cache4.c.youtube.com'
p2117
aS'v15.cache5.c.youtube.com'
p2118
aS'v15.cache6.c.youtube.com'
p2119
aS'v15.cache7.c.youtube.com'
p2120
aS'v15.cache8.c.youtube.com'
p2121
aS'v16.cache1.c.youtube.com'
p2122
aS'v16.cache2.c.youtube.com'
p2123
aS'v16.cache3.c.youtube.com'
p2124
aS'v16.cache4.c.youtube.com'
p2125
aS'v16.cache5.c.youtube.com'
p2126
aS'v16.cache6.c.youtube.com'
p2127
aS'v16.cache7.c.youtube.com'
p2128
aS'v16.cache8.c.youtube.com'
p2129
aS'v17.cache1.c.youtube.com'
p2130
aS'v17.cache2.c.youtube.com'
p2131
aS'v17.cache3.c.youtube.com'
p2132
aS'v17.cache4.c.youtube.com'
p2133
aS'v17.cache5.c.youtube.com'
p2134
aS'v17.cache6.c.youtube.com'
p2135
aS'v17.cache7.c.youtube.com'
p2136
aS'v17.cache8.c.youtube.com'
p2137
aS'v18.cache1.c.youtube.com'
p2138
aS'v18.cache2.c.youtube.com'
p2139
aS'v18.cache3.c.youtube.com'
p2140
aS'v18.cache4.c.youtube.com'
p2141
aS'v18.cache5.c.youtube.com'
p2142
aS'v18.cache6.c.youtube.com'
p2143
aS'v18.cache7.c.youtube.com'
p2144
aS'v18.cache8.c.youtube.com'
p2145
aS'v19.cache1.c.youtube.com'
p2146
aS'v19.cache2.c.youtube.com'
p2147
aS'v19.cache3.c.youtube.com'
p2148
aS'v19.cache4.c.youtube.com'
p2149
aS'v19.cache5.c.youtube.com'
p2150
aS'v19.cache6.c.youtube.com'
p2151
aS'v19.cache7.c.youtube.com'
p2152
aS'v19.cache8.c.youtube.com'
p2153
aS'v20.cache1.c.youtube.com'
p2154
aS'v20.cache2.c.youtube.com'
p2155
aS'v20.cache3.c.youtube.com'
p2156
aS'v20.cache4.c.youtube.com'
p2157
aS'v20.cache5.c.youtube.com'
p2158
aS'v20.cache6.c.youtube.com'
p2159
aS'v20.cache7.c.youtube.com'
p2160
aS'v20.cache8.c.youtube.com'
p2161
aS'v21.cache1.c.youtube.com'
p2162
aS'v21.cache2.c.youtube.com'
p2163
aS'v21.cache3.c.youtube.com'
p2164
aS'v21.cache4.c.youtube.com'
p2165
aS'v21.cache5.c.youtube.com'
p2166
aS'v21.cache6.c.youtube.com'
p2167
aS'v21.cache7.c.youtube.com'
p2168
aS'v21.cache8.c.youtube.com'
p2169
aS'v22.cache1.c.youtube.com'
p2170
aS'v22.cache2.c.youtube.com'
p2171
aS'v22.cache3.c.youtube.com'
p2172
aS'v22.cache4.c.youtube.com'
p2173
aS'v22.cache5.c.youtube.com'
p2174
aS'v22.cache6.c.youtube.com'
p2175
aS'v22.cache7.c.youtube.com'
p2176
aS'v22.cache8.c.youtube.com'
p2177
aS'v23.cache1.c.youtube.com'
p2178
aS'v23.cache2.c.youtube.com'
p2179
aS'v23.cache3.c.youtube.com'
p2180
aS'v23.cache4.c.youtube.com'
p2181
aS'v23.cache5.c.youtube.com'
p2182
aS'v23.cache6.c.youtube.com'
p2183
aS'v23.cache7.c.youtube.com'
p2184
aS'v23.cache8.c.youtube.com'
p2185
aS'v24.cache1.c.youtube.com'
p2186
aS'v24.cache2.c.youtube.com'
p2187
aS'v24.cache3.c.youtube.com'
p2188
aS'v24.cache4.c.youtube.com'
p2189
aS'v24.cache5.c.youtube.com'
p2190
aS'v24.cache6.c.youtube.com'
p2191
aS'v24.cache7.c.youtube.com'
p2192
aS'v24.cache8.c.youtube.com'
p2193
aS'r1.hkg05s01.c.youtube.com'
p2194
aS'r1.hkg05s02.c.youtube.com'
p2195
aS'r1.hkg05s03.c.youtube.com'
p2196
aS'r1.hkg05s04.c.youtube.com'
p2197
aS'r2.hkg05s01.c.youtube.com'
p2198
aS'r2.hkg05s02.c.youtube.com'
p2199
aS'r2.hkg05s03.c.youtube.com'
p2200
aS'r2.hkg05s04.c.youtube.com'
p2201
aS'r3.hkg05s01.c.youtube.com'
p2202
aS'r3.hkg05s02.c.youtube.com'
p2203
aS'r3.hkg05s03.c.youtube.com'
p2204
aS'r3.hkg05s04.c.youtube.com'
p2205
aS'r4.hkg05s01.c.youtube.com'
p2206
aS'r4.hkg05s02.c.youtube.com'
p2207
aS'r4.hkg05s03.c.youtube.com'
p2208
aS'r4.hkg05s04.c.youtube.com'
p2209
aS'r5.hkg05s01.c.youtube.com'
p2210
aS'r5.hkg05s02.c.youtube.com'
p2211
aS'r5.hkg05s03.c.youtube.com'
p2212
aS'r5.hkg05s04.c.youtube.com'
p2213
aS'r6.hkg05s01.c.youtube.com'
p2214
aS'r6.hkg05s02.c.youtube.com'
p2215
aS'r6.hkg05s03.c.youtube.com'
p2216
aS'r6.hkg05s04.c.youtube.com'
p2217
aS'r7.hkg05s01.c.youtube.com'
p2218
aS'r7.hkg05s02.c.youtube.com'
p2219
aS'r7.hkg05s03.c.youtube.com'
p2220
aS'r7.hkg05s04.c.youtube.com'
p2221
aS'r8.hkg05s01.c.youtube.com'
p2222
aS'r8.hkg05s02.c.youtube.com'
p2223
aS'r8.hkg05s03.c.youtube.com'
p2224
aS'r8.hkg05s04.c.youtube.com'
p2225
aS'r9.hkg05s01.c.youtube.com'
p2226
aS'r9.hkg05s02.c.youtube.com'
p2227
aS'r9.hkg05s03.c.youtube.com'
p2228
aS'r9.hkg05s04.c.youtube.com'
p2229
aS'r10.hkg05s01.c.youtube.com'
p2230
aS'r10.hkg05s02.c.youtube.com'
p2231
aS'r10.hkg05s03.c.youtube.com'
p2232
aS'r10.hkg05s04.c.youtube.com'
p2233
aS'r11.hkg05s01.c.youtube.com'
p2234
aS'r11.hkg05s02.c.youtube.com'
p2235
aS'r11.hkg05s03.c.youtube.com'
p2236
aS'r11.hkg05s04.c.youtube.com'
p2237
aS'r12.hkg05s01.c.youtube.com'
p2238
aS'r12.hkg05s02.c.youtube.com'
p2239
aS'r12.hkg05s03.c.youtube.com'
p2240
aS'r12.hkg05s04.c.youtube.com'
p2241
aS'r13.hkg05s01.c.youtube.com'
p2242
aS'r13.hkg05s02.c.youtube.com'
p2243
aS'r13.hkg05s03.c.youtube.com'
p2244
aS'r13.hkg05s04.c.youtube.com'
p2245
aS'r14.hkg05s01.c.youtube.com'
p2246
aS'r14.hkg05s02.c.youtube.com'
p2247
aS'r14.hkg05s03.c.youtube.com'
p2248
aS'r14.hkg05s04.c.youtube.com'
p2249
aS'r15.hkg05s01.c.youtube.com'
p2250
aS'r15.hkg05s02.c.youtube.com'
p2251
aS'r15.hkg05s03.c.youtube.com'
p2252
aS'r15.hkg05s04.c.youtube.com'
p2253
aS'r16.hkg05s01.c.youtube.com'
p2254
aS'r16.hkg05s02.c.youtube.com'
p2255
aS'r16.hkg05s03.c.youtube.com'
p2256
aS'r16.hkg05s04.c.youtube.com'
p2257
aS'r17.hkg05s01.c.youtube.com'
p2258
aS'r17.hkg05s02.c.youtube.com'
p2259
aS'r17.hkg05s03.c.youtube.com'
p2260
aS'r17.hkg05s04.c.youtube.com'
p2261
aS'r18.hkg05s01.c.youtube.com'
p2262
aS'r18.hkg05s02.c.youtube.com'
p2263
aS'r18.hkg05s03.c.youtube.com'
p2264
aS'r18.hkg05s04.c.youtube.com'
p2265
aS'r19.hkg05s01.c.youtube.com'
p2266
aS'r19.hkg05s02.c.youtube.com'
p2267
aS'r19.hkg05s03.c.youtube.com'
p2268
aS'r19.hkg05s04.c.youtube.com'
p2269
aS'r20.hkg05s01.c.youtube.com'
p2270
aS'r20.hkg05s02.c.youtube.com'
p2271
aS'r20.hkg05s03.c.youtube.com'
p2272
aS'r20.hkg05s04.c.youtube.com'
p2273
aa(lp2274
V2a03:2880:2130:cf05:face:b00c::1
p2275
aV2a03:2880:2050:3f07:face:b00c::1
p2276
aV2a03:2880:10:cf07:face:b00c::1
p2277
aV2a03:2880:11:1f04:face:b00c::1
p2278
aV2a03:2880:2110:3f07:face:b00c::1
p2279
aV2a03:2880:10:cf07:face:b00c::1
p2280
aS''
p2281
aV2a03:2880:2110:9f07:face:b00c::1
p2282
ag2281
ag2281
ag2281
aV2a03:2880:2130:7f07:face:b00c::1
p2283
aV2a03:2880:20:3f07:face:b00c::1
p2284
aV2a03:2880:2110:6f00:face:b00c::1
p2285
aV2a03:2880:20:3f07:face:b00c::1
p2286
ag2281
aV2404:6800:4008:c00::75
p2287
aV2404:6800:4005:800::1002
p2288
ag2281
aV2607:f8b0:400e:c01::79
p2289
aV2607:f8b0:400b:80b::1009
p2290
aV2a00:1450:4002:802::1004
p2291
aV2a00:1450:4009:804::1006
p2292
aV2607:f8b0:400a:805::1009
p2293
aV2a00:1450:4013:c00::8b
p2294
aV2607:f8b0:400c:c03::8a
p2295
aV2a00:1450:4005:808::1006
p2296
aV2a00:1450:4002:802::1006
p2297
aV2a00:1450:4002:803::1008
p2298
aV2607:f8b0:400a:801::1002
p2299
aV2607:f8b0:4004:800::1004
p2300
aV2a00:1450:4001:c02::65
p2301
aV2a00:1450:4013:c00::8a
p2302
aV2607:f8b0:400a:805::1001
p2303
aV2607:f8b0:4009:800::1001
p2304
aV2607:f8b0:400c:c03::65
p2305
aV2a00:1450:4013:c00::64
p2306
aV2a00:1450:4013:c00::8b
p2307
aV2a00:1450:4005:808::1000
p2308
aV2607:f8b0:400a:805::1009
p2309
aV2a00:1450:4013:c00::66
p2310
aV2a00:1450:4002:802::1006
p2311
aV2607:f8b0:400a:805::1003
p2312
aV2a00:1450:4002:803::1008
p2313
ag2281
aV2607:f8b0:400a:805::1008
p2314
aV2a00:1450:4002:801::1008
p2315
aV2a00:1450:4005:808::1000
p2316
aV2607:f8b0:400a:801::1009
p2317
aV2a00:1450:4013:c00::8b
p2318
aV2a00:1450:4013:c00::64
p2319
aV2a00:1450:4002:802::1004
p2320
aV2a00:1450:4009:804::1006
p2321
aV2a00:1450:4002:802::1004
p2322
aV2607:f8b0:400a:805::1009
p2323
aV2607:f8b0:400c:c03::64
p2324
aV2607:f8b0:400a:805::1008
p2325
aV2404:6800:4005:800::1000
p2326
aV2a00:1450:4017:801::1001
p2327
aV2a00:1450:4013:c01::8b
p2328
aV2607:f8b0:400a:801::1002
p2329
aV2a00:1450:4002:803::1008
p2330
aV2a00:1450:4013:c00::8b
p2331
aV2607:f8b0:4004:800::1005
p2332
aV2a00:1450:4010:c08::66
p2333
aV2607:f8b0:400a:805::1001
p2334
aV2404:6800:4005:800::100e
p2335
aV2a00:1450:4002:802::1004
p2336
aV2607:f8b0:400a:805::1009
p2337
aV2404:6800:4005:800::100e
p2338
aV2607:f8b0:400a:805::1009
p2339
aV2607:f8b0:4009:800::1001
p2340
aV2607:f8b0:400a:805::1003
p2341
aV2a00:1450:4005:808::1006
p2342
aV2607:f8b0:400a:805::1008
p2343
aV2a00:1450:4013:c00::71
p2344
aV2607:f8b0:400a:805::1003
p2345
aV2a00:1450:4010:c08::64
p2346
aV2a00:1450:4013:c00::8b
p2347
aV2a00:1450:4005:808::1000
p2348
aV2a00:1450:4001:c02::65
p2349
aV2607:f8b0:400a:801::1002
p2350
aV2607:f8b0:400b:80b::1001
p2351
aV2a00:1450:4005:808::1006
p2352
aV2404:6800:4006:804::1005
p2353
aV2607:f8b0:400a:801::1002
p2354
aV2607:f8b0:400a:801::1002
p2355
aV2a00:1450:4013:c01::8b
p2356
aV2607:f8b0:400a:805::1008
p2357
aV2607:f8b0:400b:80b::1005
p2358
aV2607:f8b0:400a:801::1002
p2359
aV2607:f8b0:400a:805::1003
p2360
aV2607:f8b0:400a:801::1002
p2361
aV2a00:1450:4002:803::1008
p2362
aV2607:f8b0:4004:800::1006
p2363
aV2a00:1450:4002:801::1008
p2364
aV2607:f8b0:400a:805::1009
p2365
aV2607:f8b0:400a:805::1009
p2366
aV2607:f8b0:4004:800::100e
p2367
aV2a00:1450:4005:808::1000
p2368
aV2607:f8b0:4004:800::1006
p2369
aV2a00:1450:4013:c00::64
p2370
aV2607:f8b0:400a:805::1009
p2371
aV2607:f8b0:400c:c03::8a
p2372
aV2607:f8b0:400c:c03::8a
p2373
aV2a00:1450:4013:c00::8b
p2374
aV2607:f8b0:400a:801::1002
p2375
aV2a00:1450:4002:803::1008
p2376
aV2607:f8b0:400a:805::1008
p2377
aV2607:f8b0:400a:805::1008
p2378
aV2404:6800:4006:804::100e
p2379
aV2a00:1450:4001:80d::1001
p2380
aV2607:f8b0:400a:801::1002
p2381
aV2607:f8b0:4009:800::1003
p2382
aV2a00:1450:4017:801::1007
p2383
aV2607:f8b0:4004:800::100e
p2384
aV2a00:1450:4013:c00::8b
p2385
aV2607:f8b0:400a:801::1002
p2386
aV2607:f8b0:400a:805::1001
p2387
aV2a00:1450:4013:c01::8b
p2388
aV2607:f8b0:400b:80b::1005
p2389
aV2607:f8b0:400b:80b::1009
p2390
aV2607:f8b0:400a:805::1008
p2391
aV2a00:1450:4009:804::1007
p2392
aV2607:f8b0:400a:801::1002
p2393
aV2404:6800:4006:804::1001
p2394
aV2607:f8b0:4009:800::1001
p2395
aV2a00:1450:4001:80d::1001
p2396
aV2a00:1450:4013:c01::66
p2397
aV2a00:1450:4002:801::1008
p2398
aV2a00:1450:4002:802::1004
p2399
aV2a00:1450:4009:804::1006
p2400
aV2a00:1450:4002:802::1004
p2401
aV2607:f8b0:400a:801::1009
p2402
aV2404:6800:4006:804::1001
p2403
aV2a00:1450:4002:803::1008
p2404
aV2607:f8b0:400b:80b::1009
p2405
aV2607:f8b0:400a:805::1008
p2406
aV2607:f8b0:400c:c03::8a
p2407
aV2607:f8b0:400a:801::1002
p2408
aV2404:6800:4006:804::1001
p2409
aV2a00:1450:400e:402::14
p2410
aV2a00:1450:400e:406::14
p2411
aV2a00:1450:400e:403::14
p2412
aV2a00:1450:400e:407::14
p2413
aV2a00:1450:400e:400::15
p2414
aV2a00:1450:400e:404::15
p2415
aV2a00:1450:400e:401::15
p2416
aV2a00:1450:400e:405::15
p2417
aV2a00:1450:400e:402::15
p2418
aV2a00:1450:400e:406::15
p2419
aV2a00:1450:400e:403::15
p2420
aV2a00:1450:400e:407::15
p2421
aV2a00:1450:400e:400::16
p2422
aV2a00:1450:400e:404::16
p2423
aV2a00:1450:400e:401::16
p2424
ag2281
ag2281
ag2281
ag2281
ag2281
ag2281
ag2281
ag2281
ag2281
ag2281
ag2281
ag2281
ag2281
ag2281
ag2281
ag2281
ag2281
ag2281
ag2281
ag2281
ag2281
ag2281
ag2281
ag2281
ag2281
ag2281
ag2281
ag2281
ag2281
ag2281
ag2281
ag2281
ag2281
ag2281
ag2281
aV2607:f8b0:4009:800::1001
p2425
aV2607:f8b0:4004:800::100e
p2426
aV2a00:1450:4001:c02::65
p2427
aV2607:f8b0:4004:800::100e
p2428
aV2a00:1450:4005:808::1006
p2429
aV2607:f8b0:4004:800::1008
p2430
aV2a00:1450:4016:801::1001
p2431
aV2607:f8b0:400a:805::1009
p2432
aV2404:6800:4006:804::1001
p2433
aV2a00:1450:4013:c01::8b
p2434
aV2607:f8b0:400b:80b::1009
p2435
aV2607:f8b0:400a:801::1006
p2436
aV2607:f8b0:400c:c03::64
p2437
aV2607:f8b0:400a:801::1006
p2438
aV2a00:1450:4009:804::1007
p2439
aV2607:f8b0:400a:805::1001
p2440
aV2a00:1450:4016:801::1001
p2441
aV2a00:1450:4001:c02::65
p2442
aV2607:f8b0:4004:800::1006
p2443
aV2404:6800:4005:800::100e
p2444
aV2a00:1450:4016:801::1001
p2445
aV2404:6800:4006:804::1005
p2446
aV2a00:1450:4017:801::1007
p2447
aV2607:f8b0:400a:805::1001
p2448
aV2607:f8b0:400c:c03::8a
p2449
aV2a00:1450:4013:c00::66
p2450
aV2a00:1450:4016:801::1000
p2451
aV2607:f8b0:400a:801::1002
p2452
aV2607:f8b0:4004:800::1002
p2453
aV2a00:1450:4002:803::1008
p2454
aV2607:f8b0:4004:800::100e
p2455
aV2607:f8b0:400a:801::1002
p2456
aV2a00:1450:4001:c02::65
p2457
aV2607:f8b0:4004:800::100e
p2458
aV2a00:1450:4002:802::1004
p2459
aV2a00:1450:4009:804::1006
p2460
aV2a00:1450:4002:802::1004
p2461
aV2607:f8b0:400a:805::1009
p2462
aV2a00:1450:4009:804::1007
p2463
aV2607:f8b0:400a:801::1002
p2464
aV2a00:1450:4013:c00::64
p2465
aV2607:f8b0:400a:801::1002
p2466
aV2607:f8b0:4004:800::1004
p2467
aV2607:f8b0:4004:800::100e
p2468
aV2607:f8b0:400a:801::1002
p2469
aV2a00:1450:4001:c02::65
p2470
aV2607:f8b0:400a:801::1009
p2471
aV2a00:1450:4005:808::1006
p2472
aV2a00:1450:4009:804::1006
p2473
aV2a00:1450:4002:802::1004
p2474
aV2607:f8b0:400a:805::1009
p2475
aV2607:f8b0:400c:c03::64
p2476
aV2a00:1450:4013:c00::66
p2477
aV2404:6800:4005:800::1000
p2478
aV2607:f8b0:400a:805::1003
p2479
aV2607:f8b0:400a:801::1002
p2480
aV2a00:1450:4001:c02::71
p2481
aV2404:6800:4008:3::11
p2482
aV2404:6800:4008:2::12
p2483
aV2404:6800:4008:3::12
p2484
aV2404:6800:4008:2::13
p2485
aV2404:6800:4008:3::13
p2486
aV2404:6800:4008:2::14
p2487
aV2404:6800:4008:3::14
p2488
aV2404:6800:4008:2::15
p2489
aV2404:6800:4008:3::15
p2490
aV2404:6800:4008:2::16
p2491
aV2404:6800:4008:3::16
p2492
aV2404:6800:4008:2::17
p2493
aV2404:6800:4008:3::17
p2494
ag2281
aV2404:6800:4008:2::18
p2495
aV2404:6800:4005:4::f
p2496
aV2404:6800:4005:5::f
p2497
aV2404:6800:4005:6::f
p2498
aV2404:6800:4005:7::f
p2499
aV2404:6800:4005:4::10
p2500
aV2404:6800:4005:5::10
p2501
aV2404:6800:4005:6::10
p2502
aV2404:6800:4005:7::10
p2503
aV2404:6800:4005:4::11
p2504
aV2404:6800:4005:5::11
p2505
aV2404:6800:4005:6::11
p2506
aV2404:6800:4005:7::11
p2507
aV2404:6800:4005:4::12
p2508
aV2404:6800:4005:5::12
p2509
ag2281
ag2281
ag2281
ag2281
ag2281
ag2281
ag2281
ag2281
ag2281
ag2281
ag2281
ag2281
ag2281
ag2281
ag2281
ag2281
ag2281
ag2281
ag2281
ag2281
ag2281
ag2281
ag2281
ag2281
ag2281
ag2281
ag2281
ag2281
ag2281
ag2281
ag2281
ag2281
ag2281
ag2281
ag2281
ag2281
ag2281
ag2281
aV2a03:2880:10:cf07:face:b00c::1
p2510
aV2a03:2880:2050:3f07:face:b00c::1
p2511
aV2a03:2880:10:af09:face:b00c::1
p2512
aV2600:1409:a:39c::236
p2513
ag2281
ag2281
ag2281
ag2281
ag2281
ag2281
ag2281
ag2281
ag2281
ag2281
ag2281
ag2281
ag2281
aV2607:f8b0:400a:800::1007
p2514
aV2607:f8b0:400c:c03::be
p2515
aV2a00:1450:4002:802::1000
p2516
aV2607:f8b0:400a:800::1002
p2517
aV2607:f8b0:400a:800::1000
p2518
aV2a00:1450:4016:801::1002
p2519
aV2607:f8b0:400a:801::1008
p2520
aV2a00:1450:4013:c01::5b
p2521
aV2a00:1450:4002:802::100e
p2522
aV2607:f8b0:4009:800::1005
p2523
aV2607:f8b0:400b:80b::100e
p2524
aV2607:f8b0:400a:801::1008
p2525
aV2a00:1450:4002:803::1003
p2526
aV2404:6800:4005:800::1003
p2527
aV2607:f8b0:400a:805::1001
p2528
aV2607:f8b0:400e:c01::74
p2529
aV2607:f8b0:400a:805::1000
p2530
aV2a00:1450:4009:804::1000
p2531
aV2607:f8b0:400a:801::1001
p2532
aV2607:f8b0:4009:800::1003
p2533
ag2281
aV2607:f8b0:400c:c03::67
p2534
aV2607:f8b0:400a:801::100e
p2535
aV2a00:1450:4010:c08::65
p2536
aV2a00:1450:4002:802::1000
p2537
aV2607:f8b0:4009:800::1001
p2538
aV2607:f8b0:400a:801::100e
p2539
aV2607:f8b0:4004:800::1004
p2540
aV2607:f8b0:400a:801::1008
p2541
aV2607:f8b0:400a:800::100e
p2542
aV2607:f8b0:400b:80b::1008
p2543
aV2607:f8b0:400a:800::100e
p2544
aV2a00:1450:4002:801::1005
p2545
aV2607:f8b0:4004:800::1004
p2546
aV2a00:1450:4009:804::1006
p2547
aV2404:6800:4005:800::100e
p2548
aV2607:f8b0:400a:800::100e
p2549
aV2607:f8b0:400a:801::1008
p2550
aV2607:f8b0:400b:80b::1009
p2551
aV2607:f8b0:4009:800::1002
p2552
aV2a00:1450:4005:808::1004
p2553
aV2a00:1450:4001:c02::66
p2554
aV2607:f8b0:400a:801::1008
p2555
aV2404:6800:4005:800::100e
p2556
aV2607:f8b0:400a:801::1008
p2557
aV2607:f8b0:400c:c03::65
p2558
aV2607:f8b0:4009:800::1002
p2559
aV2a00:1450:4016:801::1009
p2560
aV2607:f8b0:400a:800::1003
p2561
aV2607:f8b0:400a:800::1003
p2562
aV2404:6800:4005:800::1009
p2563
aV2607:f8b0:400a:801::1004
p2564
aV2a00:1450:4009:804::1005
p2565
aV2a00:1450:4016:801::1009
p2566
aV2607:f8b0:400a:801::1004
p2567
aV2a00:1450:4002:803::1000
p2568
aV2a00:1450:4016:801::1000
p2569
aV2607:f8b0:400a:801::1004
p2570
aV2607:f8b0:400a:805::1008
p2571
aV2607:f8b0:400a:801::1004
p2572
aV2a00:1450:4017:801::1004
p2573
aV2607:f8b0:400c:c03::66
p2574
aV2a00:1450:4002:802::1000
p2575
aV2607:f8b0:400a:800::100e
p2576
aV2607:f8b0:400b:80b::1008
p2577
aV2607:f8b0:400a:800::1003
p2578
aV2a00:1450:4016:801::1000
p2579
aV2a00:1450:4010:c08::65
p2580
aV2a00:1450:4017:801::1001
p2581
aV2607:f8b0:400a:800::100e
p2582
aV2607:f8b0:400a:801::100e
p2583
aV2607:f8b0:400a:800::1003
p2584
aV2607:f8b0:400a:800::1003
p2585
aV2a00:1450:4009:804::1001
p2586
aV2a00:1450:4001:c02::65
p2587
aV2607:f8b0:400a:800::100e
p2588
aV2a00:1450:4013:c00::66
p2589
aV2607:f8b0:400a:801::1008
p2590
aV2607:f8b0:400a:800::1003
p2591
aV2607:f8b0:4009:800::1001
p2592
aV2a00:1450:4002:802::1004
p2593
aV2607:f8b0:4009:800::1001
p2594
aV2a00:1450:4005:808::1004
p2595
aV2607:f8b0:400a:801::1008
p2596
aV2a00:1450:4009:804::1006
p2597
aV2607:f8b0:400a:801::1008
p2598
aV2607:f8b0:400a:800::100e
p2599
aV2607:f8b0:400c:c03::65
p2600
aV2a00:1450:4013:c00::71
p2601
aV2607:f8b0:400a:800::1003
p2602
aV2a00:1450:4013:c00::66
p2603
aV2607:f8b0:400a:800::100e
p2604
aV2a00:1450:4001:c02::66
p2605
aV2a00:1450:4017:801::1004
p2606
aV2607:f8b0:400a:801::1004
p2607
aV2607:f8b0:400c:c03::8a
p2608
aV2607:f8b0:400a:801::1004
p2609
aV2607:f8b0:400a:801::1004
p2610
aV2607:f8b0:400a:801::1004
p2611
aV2a00:1450:4013:c00::8b
p2612
aV2607:f8b0:400a:805::1008
p2613
aV2607:f8b0:400c:c03::65
p2614
aV2607:f8b0:4004:800::1005
p2615
aV2607:f8b0:400a:801::1008
p2616
aV2607:f8b0:400a:801::100e
p2617
aV2a00:1450:4013:c01::8a
p2618
aV2a00:1450:4001:c02::65
p2619
aV2404:6800:4006:804::1006
p2620
aV2607:f8b0:400a:800::100e
p2621
aV2607:f8b0:400a:801::100e
p2622
aV2404:6800:4005:800::1008
p2623
aV2607:f8b0:400a:800::100e
p2624
aV2607:f8b0:4004:800::1003
p2625
aV2a00:1450:4001:80e::1004
p2626
aV2607:f8b0:400a:801::100e
p2627
aV2607:f8b0:400b:80b::1001
p2628
aV2607:f8b0:400a:800::1003
p2629
aV2a00:1450:4017:801::1009
p2630
aV2607:f8b0:400a:800::100e
p2631
aV2607:f8b0:400a:800::100e
p2632
aV2a00:1450:4013:c00::66
p2633
aV2a00:1450:4005:808::1004
p2634
aV2a00:1450:4010:c08::71
p2635
aV2a00:1450:4013:c01::66
p2636
aV2607:f8b0:400a:801::1008
p2637
aV2a00:1450:4009:804::1006
p2638
aV2a00:1450:4013:c00::66
p2639
aV2607:f8b0:400a:800::100e
p2640
aV2607:f8b0:400a:800::100e
p2641
aV2607:f8b0:400a:801::1008
p2642
aV2a00:1450:4005:808::1004
p2643
aV2a00:1450:4002:803::1006
p2644
aV2607:f8b0:400a:801::1004
p2645
aV2a00:1450:4009:804::1005
p2646
aV2a00:1450:4016:801::1009
p2647
aV2607:f8b0:400a:801::1004
p2648
aV2a00:1450:4013:c01::64
p2649
aV2a00:1450:4005:808::1008
p2650
aV2607:f8b0:400a:805::1002
p2651
aV2607:f8b0:4009:800::1002
p2652
aV2607:f8b0:400a:801::1004
p2653
aV2607:f8b0:400a:801::1004
p2654
aV2a00:1450:4001:c02::66
p2655
aV2a00:1450:4002:801::1005
p2656
aV2607:f8b0:400a:801::1008
p2657
aV2607:f8b0:400a:801::100e
p2658
aV2a00:1450:4002:801::1005
p2659
aV2404:6800:4006:804::1006
p2660
aV2a00:1450:4002:802::1000
p2661
aV2a00:1450:4002:802::1000
p2662
aV2607:f8b0:4009:800::1001
p2663
aV2404:6800:4005:800::1008
p2664
aV2607:f8b0:400a:800::1003
p2665
aV2a00:1450:4002:803::1006
p2666
aV2607:f8b0:400a:800::1003
p2667
aV2607:f8b0:400a:800::1003
p2668
aV2607:f8b0:400c:c03::65
p2669
aV2a00:1450:4002:802::1000
p2670
aV2607:f8b0:4004:800::1001
p2671
aV2a00:1450:4002:802::1004
p2672
aV2607:f8b0:400a:801::1008
p2673
aV2607:f8b0:400a:801::1008
p2674
aV2607:f8b0:400b:80b::100e
p2675
aV2607:f8b0:400a:800::100e
p2676
aV2a00:1450:4005:808::1006
p2677
aV2607:f8b0:4009:800::1001
p2678
aV2607:f8b0:400a:801::1004
p2679
aV2a00:1450:4016:801::1003
p2680
aV2607:f8b0:400a:801::1008
p2681
aV2607:f8b0:400c:c03::66
p2682
aV2a00:1450:4013:c01::66
p2683
aV2607:f8b0:400a:801::1004
p2684
aV2607:f8b0:4004:800::1001
p2685
aV2a00:1450:4001:c02::8b
p2686
aV2607:f8b0:400a:805::1008
p2687
aV2607:f8b0:4004:800::1000
p2688
aV2a00:1450:4017:801::1004
p2689
aV2607:f8b0:400a:805::1002
p2690
aV2a00:1450:4001:c02::66
p2691
aV2607:f8b0:400b:80b::1008
p2692
aV2607:f8b0:400a:801::1004
p2693
aV2607:f8b0:400a:801::1004
p2694
aV2a00:1450:4009:804::1005
p2695
aV2607:f8b0:400a:801::1004
p2696
aV2a00:1450:4013:c00::71
p2697
aV2607:f8b0:400a:801::100e
p2698
aV2a00:1450:4001:c02::65
p2699
aV2a00:1450:4013:c00::64
p2700
aV2607:f8b0:4009:800::1001
p2701
aV2a00:1450:4002:802::1008
p2702
aV2607:f8b0:4009:800::1001
p2703
aV2a00:1450:4002:802::1000
p2704
aV2607:f8b0:400a:801::1008
p2705
aV2a00:1450:4013:c00::8b
p2706
aV2a00:1450:4002:802::1008
p2707
aV2607:f8b0:400a:801::100e
p2708
aV2607:f8b0:4004:800::1004
p2709
aV2a00:1450:4002:802::1000
p2710
aV2a00:1450:4009:804::1006
p2711
aV2a00:1450:4016:801::1003
p2712
aV2607:f8b0:400a:801::1008
p2713
aV2607:f8b0:400a:800::100e
p2714
aV2607:f8b0:4009:800::1001
p2715
aV2404:6800:4005:800::100e
p2716
aV2607:f8b0:400a:800::1003
p2717
aV2a00:1450:4013:c01::66
p2718
aV2607:f8b0:400a:801::1008
p2719
aV2607:f8b0:400a:800::100e
p2720
aV2607:f8b0:400a:800::1003
p2721
aV2607:f8b0:400a:801::1008
p2722
aV2607:f8b0:4004:800::1001
p2723
aV2404:6800:4005:800::100e
p2724
aV2607:f8b0:400a:800::1003
p2725
aV2607:f8b0:400c:c03::65
p2726
aV2607:f8b0:4004:800::1007
p2727
aV2607:f8b0:400a:801::1004
p2728
aV2607:f8b0:4004:800::1008
p2729
aV2607:f8b0:400a:805::1008
p2730
aV2a00:1450:4001:c02::66
p2731
aV2a00:1450:4009:804::1005
p2732
aV2607:f8b0:400a:805::1008
p2733
aV2607:f8b0:400a:805::1008
p2734
aV2607:f8b0:4004:800::1000
p2735
aV2607:f8b0:400b:80b::1008
p2736
aV2607:f8b0:400a:801::1004
p2737
aV2607:f8b0:400a:800::1003
p2738
aV2a00:1450:4005:808::1000
p2739
aV2607:f8b0:400a:800::1003
p2740
aV2607:f8b0:400a:800::100e
p2741
aV2607:f8b0:400a:800::1003
p2742
aV2a00:1450:4017:801::1001
p2743
aV2607:f8b0:4004:800::1004
p2744
aV2a00:1450:4002:802::1000
p2745
aV2a00:1450:4001:c02::65
p2746
aV2404:6800:4005:800::1001
p2747
aV2a00:1450:4002:802::1000
p2748
aV2607:f8b0:400a:800::1003
p2749
aV2a00:1450:4009:804::1001
p2750
aV2607:f8b0:400a:801::100e
p2751
aV2a00:1450:4002:803::1006
p2752
aV2404:6800:4005:800::1001
p2753
aV2a00:1450:4013:c00::8a
p2754
aV2607:f8b0:400c:c03::66
p2755
aV2a00:1450:4016:801::1003
p2756
aV2607:f8b0:400a:800::100e
p2757
aV2607:f8b0:400a:801::1008
p2758
aV2607:f8b0:4004:800::1006
p2759
aV2607:f8b0:400a:801::1008
p2760
aV2a00:1450:4002:801::1002
p2761
aV2607:f8b0:400a:801::1008
p2762
aV2a00:1450:4009:804::1006
p2763
aV2a00:1450:4013:c00::66
p2764
aV2607:f8b0:400a:801::1008
p2765
aV2607:f8b0:400a:801::1004
p2766
aV2a00:1450:4013:c00::66
p2767
aV2a00:1450:4013:c00::66
p2768
aV2a00:1450:4010:c08::8b
p2769
aV2607:f8b0:400a:800::100e
p2770
aV2607:f8b0:400a:805::1002
p2771
aV2607:f8b0:400b:80b::1008
p2772
aV2607:f8b0:400a:805::1008
p2773
aV2607:f8b0:4004:800::1000
p2774
aV2a00:1450:4009:804::1005
p2775
aV2607:f8b0:400a:801::1004
p2776
aV2607:f8b0:400a:801::1004
p2777
aV2607:f8b0:400a:805::1008
p2778
aV2607:f8b0:400a:801::100e
p2779
aV2a00:1450:4005:808::1005
p2780
aV2607:f8b0:400a:800::1003
p2781
aV2607:f8b0:400a:800::100e
p2782
aV2a00:1450:4009:804::1001
p2783
aV2607:f8b0:400a:800::100e
p2784
aV2607:f8b0:4004:800::1004
p2785
aV2a00:1450:4002:802::1000
p2786
aV2607:f8b0:400a:801::100e
p2787
aV2607:f8b0:4004:800::1009
p2788
aV2607:f8b0:400a:801::100e
p2789
aV2607:f8b0:400a:801::100e
p2790
aV2a00:1450:4009:804::1001
p2791
aV2a00:1450:4013:c00::64
p2792
aV2607:f8b0:400a:800::100e
p2793
aV2607:f8b0:400c:c03::8a
p2794
aV2607:f8b0:4009:800::1001
p2795
aV2a00:1450:4002:803::1006
p2796
aV2a00:1450:4016:801::1003
p2797
aV2607:f8b0:400a:801::1008
p2798
aV2a00:1450:400e:400::10
p2799
aV2a00:1450:400e:404::10
p2800
aV2a00:1450:400e:401::10
p2801
aV2a00:1450:400e:405::10
p2802
aV2a00:1450:400e:402::10
p2803
aV2a00:1450:400e:406::10
p2804
aV2a00:1450:400e:403::10
p2805
aV2a00:1450:400e:407::10
p2806
aV2a00:1450:400e:400::11
p2807
aV2a00:1450:400e:404::11
p2808
aV2a00:1450:400e:401::11
p2809
aV2a00:1450:400e:405::11
p2810
aV2a00:1450:400e:402::11
p2811
aV2a00:1450:400e:406::11
p2812
aV2a00:1450:400e:403::11
p2813
aV2a00:1450:400e:407::11
p2814
aV2a00:1450:400e:400::12
p2815
aV2a00:1450:400e:404::12
p2816
aV2a00:1450:400e:401::12
p2817
aV2a00:1450:400e:405::12
p2818
aV2a00:1450:400e:402::12
p2819
aV2a00:1450:400e:406::12
p2820
aV2a00:1450:400e:403::12
p2821
aV2a00:1450:400e:407::12
p2822
aV2a00:1450:400e:400::13
p2823
aV2a00:1450:400e:404::13
p2824
aV2a00:1450:400e:401::13
p2825
aV2a00:1450:400e:405::13
p2826
aV2a00:1450:400e:402::13
p2827
aV2a00:1450:400e:406::13
p2828
aV2a00:1450:400e:403::13
p2829
aV2a00:1450:400e:407::13
p2830
aV2a00:1450:400e:400::14
p2831
aV2a00:1450:400e:404::14
p2832
aV2a00:1450:400e:401::14
p2833
aV2a00:1450:400e:405::14
p2834
aV2a00:1450:400e:405::16
p2835
aV2a00:1450:400e:402::16
p2836
aV2a00:1450:400e:406::16
p2837
aV2a00:1450:400e:403::16
p2838
aV2a00:1450:400e:407::16
p2839
aV2a00:1450:400e:400::17
p2840
aV2a00:1450:400e:404::17
p2841
aV2a00:1450:400e:401::17
p2842
aV2a00:1450:400e:405::17
p2843
aV2a00:1450:400e:402::17
p2844
aV2a00:1450:400e:406::17
p2845
aV2a00:1450:400e:403::17
p2846
ag2281
ag2281
aV2a00:1450:400e:407::17
p2847
ag2281
ag2281
ag2281
ag2281
ag2281
ag2281
ag2281
ag2281
ag2281
ag2281
ag2281
ag2281
ag2281
ag2281
ag2281
ag2281
ag2281
ag2281
ag2281
ag2281
ag2281
ag2281
ag2281
ag2281
ag2281
ag2281
ag2281
ag2281
ag2281
ag2281
ag2281
ag2281
ag2281
ag2281
ag2281
ag2281
ag2281
ag2281
ag2281
ag2281
ag2281
ag2281
ag2281
ag2281
ag2281
ag2281
ag2281
ag2281
ag2281
ag2281
ag2281
ag2281
ag2281
ag2281
ag2281
ag2281
ag2281
ag2281
ag2281
ag2281
ag2281
ag2281
ag2281
ag2281
ag2281
ag2281
ag2281
ag2281
ag2281
ag2281
ag2281
ag2281
ag2281
ag2281
ag2281
ag2281
ag2281
ag2281
ag2281
ag2281
ag2281
ag2281
ag2281
ag2281
ag2281
ag2281
ag2281
ag2281
ag2281
ag2281
ag2281
ag2281
ag2281
ag2281
ag2281
ag2281
ag2281
ag2281
ag2281
ag2281
ag2281
ag2281
ag2281
ag2281
ag2281
ag2281
ag2281
ag2281
ag2281
ag2281
ag2281
ag2281
ag2281
ag2281
ag2281
ag2281
ag2281
ag2281
ag2281
ag2281
ag2281
ag2281
ag2281
ag2281
ag2281
ag2281
aV2607:f8b0:400a:800::1003
p2848
aV2a00:1450:4002:801::1002
p2849
aV2607:f8b0:400a:805::1008
p2850
aV2607:f8b0:400a:801::1004
p2851
aV2607:f8b0:400a:805::1002
p2852
aV2607:f8b0:400a:801::1004
p2853
aV2607:f8b0:400b:80b::1008
p2854
aV2607:f8b0:400a:801::1004
p2855
aV2404:6800:4005:800::1001
p2856
aV2a00:1450:4002:802::1000
p2857
aV2607:f8b0:400a:800::100e
p2858
aV2404:6800:4005:800::1001
p2859
aV2607:f8b0:400a:800::1003
p2860
aV2a00:1450:4002:802::1000
p2861
aV2607:f8b0:400a:801::100e
p2862
aV2607:f8b0:400a:800::1003
p2863
aV2607:f8b0:400a:801::1008
p2864
aV2607:f8b0:400a:801::1008
p2865
aV2a00:1450:4009:804::1001
p2866
aV2607:f8b0:400a:800::100e
p2867
aV2607:f8b0:400a:800::100e
p2868
aV2a00:1450:4013:c01::8a
p2869
aV2607:f8b0:4009:800::1001
p2870
aV2607:f8b0:400c:c03::66
p2871
aV2404:6800:4005:800::100e
p2872
aV2607:f8b0:400a:800::100e
p2873
aV2607:f8b0:400a:800::100e
p2874
aV2607:f8b0:400b:80b::100e
p2875
aV2a00:1450:4002:803::1006
p2876
aV2a00:1450:4005:808::1004
p2877
aV2607:f8b0:400a:801::1008
p2878
aV2607:f8b0:4009:800::1002
p2879
aV2404:6800:4005:800::100e
p2880
aV2404:6800:4006:804::1009
p2881
aV2a00:1450:4001:80a::1006
p2882
aV2404:6800:4005:800::100e
p2883
aV2607:f8b0:400a:800::1003
p2884
aV2a00:1450:4013:c00::71
p2885
aV2607:f8b0:400a:801::1004
p2886
aV2a00:1450:4013:c00::65
p2887
aV2a00:1450:4001:c02::8b
p2888
aV2607:f8b0:400a:805::1008
p2889
aV2607:f8b0:400a:801::1004
p2890
aV2a00:1450:4013:c01::71
p2891
aV2a00:1450:4002:802::1006
p2892
aV2607:f8b0:400a:801::1004
p2893
aV2607:f8b0:400a:801::1004
p2894
aV2607:f8b0:400a:805::1002
p2895
aV2607:f8b0:400a:801::1004
p2896
aV2a00:1450:4013:c00::71
p2897
aV2607:f8b0:400a:800::100e
p2898
aV2a00:1450:4010:c08::65
p2899
aV2a00:1450:4001:80e::1004
p2900
aV2607:f8b0:4004:800::1004
p2901
aV2a00:1450:4002:802::1000
p2902
aV2607:f8b0:4009:800::1008
p2903
aV2607:f8b0:4004:800::1005
p2904
aV2607:f8b0:400a:801::100e
p2905
aV2607:f8b0:400a:800::100e
p2906
aV2a00:1450:4013:c00::71
p2907
aV2607:f8b0:400a:801::1008
p2908
aV2607:f8b0:400a:801::100e
p2909
aV2607:f8b0:400c:c03::8a
p2910
aV2a00:1450:4002:802::1000
p2911
aV2a00:1450:4009:804::1006
p2912
aV2a00:1450:4013:c00::66
p2913
aV2607:f8b0:400a:801::1004
p2914
aV2607:f8b0:400a:800::100e
p2915
aV2a00:1450:4002:803::1006
p2916
aV2a00:1450:4005:808::1004
p2917
aV2a00:1450:4001:c02::66
p2918
aV2607:f8b0:400a:801::1008
p2919
aV2607:f8b0:4009:800::1001
p2920
aV2a00:1450:4013:c00::71
p2921
aV2a00:1450:4002:802::1004
p2922
aV2607:f8b0:4004:800::1008
p2923
aV2a00:1450:4001:80a::1006
p2924
aV2607:f8b0:400a:801::1008
p2925
aV2404:6800:4006:804::1009
p2926
aV2a00:1450:4001:803::1003
p2927
aV2607:f8b0:400a:805::1002
p2928
aV2a00:1450:4005:808::1004
p2929
aV2607:f8b0:400a:805::1008
p2930
aV2607:f8b0:400a:801::1004
p2931
aV2a00:1450:4002:801::1009
p2932
aV2607:f8b0:400a:801::1004
p2933
aV2607:f8b0:400a:805::1008
p2934
aV2607:f8b0:400a:805::1002
p2935
aV2a00:1450:4013:c01::71
p2936
aV2607:f8b0:400a:801::1004
p2937
aV2607:f8b0:400a:801::100e
p2938
aV2607:f8b0:400a:800::1003
p2939
aV2a00:1450:4010:c08::8b
p2940
aV2a00:1450:4001:80e::1004
p2941
aV2a00:1450:4013:c00::8b
p2942
aV2607:f8b0:400a:800::100e
p2943
aV2a00:1450:4009:804::1001
p2944
aV2607:f8b0:4004:800::1009
p2945
aV2607:f8b0:400a:801::100e
p2946
aV2a00:1450:4002:803::1006
p2947
aV2607:f8b0:400a:800::100e
p2948
aV2607:f8b0:400a:800::1003
p2949
aV2a00:1450:4013:c01::8a
p2950
aV2a00:1450:4002:802::1008
p2951
aV2a00:1450:4013:c01::66
p2952
aV2a00:1450:4016:801::1003
p2953
aV2607:f8b0:400a:800::100e
p2954
aV2607:f8b0:400a:801::1004
p2955
aV2607:f8b0:400b:80b::1009
p2956
aV2607:f8b0:400a:801::1004
p2957
aV2404:6800:4005:800::100e
p2958
aV2607:f8b0:400a:800::1003
p2959
aV2a00:1450:4013:c00::65
p2960
aV2a00:1450:4016:801::1003
p2961
aV2a00:1450:4001:c02::66
p2962
aV2a00:1450:4001:80a::1006
p2963
aV2607:f8b0:400a:800::100e
p2964
aV2607:f8b0:400a:800::100e
p2965
aV2607:f8b0:400a:800::1003
p2966
aV2404:6800:4006:804::1004
p2967
aV2a00:1450:4017:801::1004
p2968
aV2607:f8b0:400a:801::1004
p2969
aV2607:f8b0:400c:c03::65
p2970
aV2a00:1450:4002:802::1006
p2971
aV2607:f8b0:400a:801::1004
p2972
aV2607:f8b0:400a:801::1004
p2973
aV2404:6800:4005:800::1009
p2974
aV2607:f8b0:400a:801::1004
p2975
aV2607:f8b0:400a:801::1004
p2976
aV2404:6800:4005:800::1009
p2977
aV2607:f8b0:400a:805::1008
p2978
aV2607:f8b0:400b:80b::1008
p2979
aV2607:f8b0:400a:800::100e
p2980
aV2a00:1450:4010:c08::65
p2981
aV2a00:1450:4001:80c::1002
p2982
aV2404:6800:4008:2::6
p2983
aV2404:6800:4008:3::6
p2984
aV2404:6800:4008:2::7
p2985
aV2404:6800:4008:3::7
p2986
aV2404:6800:4008:2::8
p2987
aV2404:6800:4008:3::8
p2988
aV2404:6800:4008:2::9
p2989
aV2404:6800:4008:3::9
p2990
aV2404:6800:4008:2::a
p2991
aV2404:6800:4008:3::a
p2992
aV2404:6800:4008:2::b
p2993
aV2404:6800:4008:3::b
p2994
aV2404:6800:4008:2::c
p2995
aV2404:6800:4008:3::c
p2996
aV2404:6800:4008:2::d
p2997
aV2404:6800:4008:3::d
p2998
aV2404:6800:4008:2::e
p2999
aV2404:6800:4008:3::e
p3000
aV2404:6800:4008:2::f
p3001
aV2404:6800:4008:3::f
p3002
aV2404:6800:4008:2::10
p3003
aV2404:6800:4008:3::10
p3004
aV2404:6800:4008:2::11
p3005
aV2404:6800:4008:3::18
p3006
aV2404:6800:4008:2::19
p3007
aV2404:6800:4008:3::19
p3008
aV2404:6800:4005:4::6
p3009
aV2404:6800:4005:5::6
p3010
aV2404:6800:4005:6::6
p3011
aV2404:6800:4005:7::6
p3012
aV2404:6800:4005:4::7
p3013
aV2404:6800:4005:5::7
p3014
aV2404:6800:4005:6::7
p3015
aV2404:6800:4005:7::7
p3016
aV2404:6800:4005:4::8
p3017
aV2404:6800:4005:5::8
p3018
aV2404:6800:4005:6::8
p3019
aV2404:6800:4005:7::8
p3020
aV2404:6800:4005:4::9
p3021
aV2404:6800:4005:5::9
p3022
aV2404:6800:4005:6::9
p3023
aV2404:6800:4005:7::9
p3024
aV2404:6800:4005:4::a
p3025
aV2404:6800:4005:5::a
p3026
aV2404:6800:4005:6::a
p3027
aV2404:6800:4005:7::a
p3028
aV2404:6800:4005:4::b
p3029
aV2404:6800:4005:5::b
p3030
aV2404:6800:4005:6::b
p3031
aV2404:6800:4005:7::b
p3032
aV2404:6800:4005:4::c
p3033
aV2404:6800:4005:5::c
p3034
aV2404:6800:4005:6::c
p3035
aV2404:6800:4005:7::c
p3036
aV2404:6800:4005:4::d
p3037
aV2404:6800:4005:5::d
p3038
aV2404:6800:4005:6::d
p3039
aV2404:6800:4005:7::d
p3040
aV2404:6800:4005:4::e
p3041
aV2404:6800:4005:5::e
p3042
aV2404:6800:4005:6::e
p3043
aV2404:6800:4005:7::e
p3044
aV2404:6800:4005:6::12
p3045
aV2404:6800:4005:7::12
p3046
aV2404:6800:4005:4::13
p3047
aV2404:6800:4005:5::13
p3048
aV2404:6800:4005:6::13
p3049
aV2404:6800:4005:7::13
p3050
aV2404:6800:4005:4::14
p3051
aV2404:6800:4005:5::14
p3052
aV2404:6800:4005:6::14
p3053
aV2404:6800:4005:7::14
p3054
aV2404:6800:4005:4::15
p3055
aV2404:6800:4005:5::15
p3056
aV2404:6800:4005:6::15
p3057
aV2404:6800:4005:7::15
p3058
aV2404:6800:4005:4::16
p3059
aV2404:6800:4005:5::16
p3060
aV2404:6800:4005:6::16
p3061
aV2404:6800:4005:7::16
p3062
aV2404:6800:4005:4::17
p3063
aV2404:6800:4005:5::17
p3064
aV2404:6800:4005:6::17
p3065
aV2404:6800:4005:7::17
p3066
aV2404:6800:4005:4::18
p3067
aV2404:6800:4005:5::18
p3068
aV2404:6800:4005:6::18
p3069
aV2404:6800:4005:7::18
p3070
aV2404:6800:4005:4::19
p3071
aV2404:6800:4005:5::19
p3072
aV2404:6800:4005:6::19
p3073
ag2281
aV2404:6800:4005:7::19
p3074
ag2281
ag2281
ag2281
ag2281
ag2281
ag2281
ag2281
ag2281
ag2281
ag2281
ag2281
ag2281
ag2281
ag2281
ag2281
ag2281
ag2281
ag2281
ag2281
ag2281
ag2281
ag2281
ag2281
ag2281
ag2281
ag2281
ag2281
ag2281
ag2281
ag2281
ag2281
ag2281
ag2281
ag2281
ag2281
ag2281
ag2281
ag2281
ag2281
ag2281
ag2281
ag2281
ag2281
ag2281
ag2281
ag2281
ag2281
ag2281
ag2281
ag2281
ag2281
ag2281
ag2281
ag2281
ag2281
ag2281
ag2281
ag2281
ag2281
ag2281
ag2281
ag2281
ag2281
ag2281
ag2281
ag2281
ag2281
ag2281
ag2281
ag2281
ag2281
ag2281
ag2281
ag2281
ag2281
ag2281
ag2281
ag2281
ag2281
aV2404:6800:4007::6
p3075
aV2404:6800:4007:1::6
p3076
aV2404:6800:4007::7
p3077
aV2404:6800:4007:1::7
p3078
aV2404:6800:4007::8
p3079
aV2404:6800:4007:1::8
p3080
aV2404:6800:4007::9
p3081
aV2404:6800:4007:1::9
p3082
aV2404:6800:4007::a
p3083
aV2404:6800:4007:1::a
p3084
aV2404:6800:4007::b
p3085
aV2404:6800:4007:1::b
p3086
aV2404:6800:4007::c
p3087
aV2404:6800:4007:1::c
p3088
aV2404:6800:4007::d
p3089
aV2404:6800:4007:1::d
p3090
aV2404:6800:4007::e
p3091
aV2404:6800:4007:1::e
p3092
aV2404:6800:4007::f
p3093
aV2404:6800:4007:1::f
p3094
aV2404:6800:4007::10
p3095
aV2404:6800:4007:1::10
p3096
aV2404:6800:4007::11
p3097
aV2404:6800:4007:1::11
p3098
aV2404:6800:4007::12
p3099
aV2404:6800:4007:1::12
p3100
aV2404:6800:4007::13
p3101
aV2404:6800:4007:1::13
p3102
aV2404:6800:4007::14
p3103
aV2404:6800:4007:1::14
p3104
aV2404:6800:4007::15
p3105
aV2404:6800:4007:1::15
p3106
aV2404:6800:4007::16
p3107
aV2404:6800:4007:1::16
p3108
aV2404:6800:4007::17
p3109
aV2404:6800:4007:1::17
p3110
aV2404:6800:4007::18
p3111
aV2404:6800:4007:1::18
p3112
aV2404:6800:4007::19
p3113
aV2404:6800:4007:1::19
p3114
ag2281
ag2281
ag2281
ag2281
ag2281
ag2281
ag2281
ag2281
ag2281
ag2281
ag2281
ag2281
ag2281
ag2281
ag2281
ag2281
ag2281
ag2281
ag2281
ag2281
ag2281
ag2281
ag2281
ag2281
ag2281
ag2281
ag2281
ag2281
ag2281
ag2281
ag2281
ag2281
ag2281
ag2281
ag2281
ag2281
ag2281
ag2281
ag2281
ag2281
ag2281
ag2281
ag2281
ag2281
ag2281
ag2281
ag2281
ag2281
ag2281
ag2281
ag2281
ag2281
ag2281
ag2281
ag2281
ag2281
ag2281
ag2281
ag2281
ag2281
ag2281
ag2281
ag2281
ag2281
ag2281
ag2281
ag2281
ag2281
ag2281
ag2281
ag2281
ag2281
ag2281
ag2281
ag2281
ag2281
ag2281
ag2281
ag2281
ag2281
ag2281
ag2281
ag2281
ag2281
ag2281
ag2281
ag2281
ag2281
ag2281
ag2281
ag2281
ag2281
ag2281
ag2281
ag2281
ag2281
ag2281
ag2281
ag2281
ag2281
ag2281
ag2281
ag2281
ag2281
ag2281
ag2281
ag2281
ag2281
ag2281
ag2281
ag2281
ag2281
ag2281
ag2281
ag2281
ag2281
ag2281
ag2281
ag2281
ag2281
ag2281
ag2281
ag2281
ag2281
ag2281
ag2281
ag2281
ag2281
ag2281
ag2281
ag2281
ag2281
ag2281
ag2281
ag2281
ag2281
ag2281
ag2281
ag2281
ag2281
ag2281
ag2281
ag2281
ag2281
ag2281
ag2281
ag2281
ag2281
ag2281
ag2281
ag2281
ag2281
ag2281
ag2281
ag2281
ag2281
ag2281
ag2281
ag2281
ag2281
ag2281
ag2281
ag2281
ag2281
ag2281
ag2281
ag2281
ag2281
ag2281
ag2281
ag2281
ag2281
ag2281
ag2281
ag2281
ag2281
ag2281
ag2281
ag2281
ag2281
ag2281
ag2281
ag2281
ag2281
ag2281
ag2281
ag2281
ag2281
ag2281
ag2281
ag2281
ag2281
ag2281
ag2281
ag2281
ag2281
ag2281
ag2281
ag2281
ag2281
ag2281
ag2281
ag2281
ag2281
ag2281
ag2281
ag2281
ag2281
ag2281
ag2281
ag2281
ag2281
ag2281
ag2281
ag2281
ag2281
ag2281
ag2281
ag2281
ag2281
ag2281
ag2281
ag2281
ag2281
ag2281
ag2281
ag2281
ag2281
ag2281
ag2281
ag2281
ag2281
ag2281
ag2281
ag2281
ag2281
ag2281
ag2281
ag2281
ag2281
ag2281
ag2281
ag2281
ag2281
ag2281
ag2281
ag2281
ag2281
ag2281
ag2281
ag2281
ag2281
ag2281
ag2281
ag2281
ag2281
ag2281
ag2281
ag2281
ag2281
ag2281
ag2281
ag2281
ag2281
ag2281
ag2281
ag2281
ag2281
ag2281
ag2281
ag2281
ag2281
ag2281
ag2281
ag2281
ag2281
ag2281
ag2281
ag2281
ag2281
ag2281
ag2281
ag2281
ag2281
ag2281
ag2281
ag2281
ag2281
ag2281
ag2281
ag2281
ag2281
ag2281
ag2281
ag2281
ag2281
ag2281
ag2281
ag2281
ag2281
ag2281
ag2281
ag2281
ag2281
ag2281
ag2281
ag2281
ag2281
ag2281
ag2281
ag2281
ag2281
ag2281
ag2281
ag2281
ag2281
ag2281
ag2281
ag2281
ag2281
ag2281
ag2281
ag2281
ag2281
ag2281
ag2281
ag2281
ag2281
ag2281
ag2281
ag2281
ag2281
ag2281
ag2281
ag2281
ag2281
ag2281
ag2281
ag2281
ag2281
ag2281
ag2281
ag2281
ag2281
ag2281
ag2281
ag2281
ag2281
ag2281
ag2281
ag2281
ag2281
ag2281
ag2281
ag2281
ag2281
ag2281
ag2281
ag2281
ag2281
ag2281
ag2281
ag2281
ag2281
ag2281
ag2281
ag2281
ag2281
ag2281
ag2281
ag2281
ag2281
ag2281
ag2281
ag2281
ag2281
ag2281
ag2281
ag2281
ag2281
ag2281
ag2281
ag2281
ag2281
ag2281
ag2281
ag2281
ag2281
ag2281
ag2281
ag2281
ag2281
ag2281
ag2281
ag2281
ag2281
ag2281
ag2281
ag2281
ag2281
ag2281
ag2281
ag2281
ag2281
ag2281
ag2281
ag2281
ag2281
ag2281
ag2281
ag2281
ag2281
ag2281
ag2281
ag2281
ag2281
ag2281
ag2281
ag2281
ag2281
ag2281
ag2281
ag2281
ag2281
ag2281
ag2281
ag2281
ag2281
ag2281
ag2281
ag2281
ag2281
ag2281
ag2281
ag2281
ag2281
ag2281
ag2281
ag2281
ag2281
ag2281
ag2281
ag2281
ag2281
ag2281
ag2281
ag2281
ag2281
ag2281
ag2281
ag2281
ag2281
ag2281
ag2281
ag2281
ag2281
ag2281
ag2281
ag2281
ag2281
ag2281
ag2281
ag2281
ag2281
ag2281
ag2281
ag2281
ag2281
ag2281
ag2281
ag2281
ag2281
ag2281
ag2281
ag2281
ag2281
ag2281
ag2281
ag2281
ag2281
ag2281
ag2281
ag2281
ag2281
ag2281
ag2281
ag2281
ag2281
ag2281
ag2281
ag2281
ag2281
ag2281
ag2281
ag2281
ag2281
ag2281
ag2281
ag2281
ag2281
ag2281
ag2281
ag2281
ag2281
ag2281
ag2281
ag2281
ag2281
ag2281
ag2281
ag2281
ag2281
ag2281
ag2281
ag2281
ag2281
ag2281
ag2281
ag2281
ag2281
ag2281
ag2281
ag2281
ag2281
ag2281
ag2281
ag2281
ag2281
ag2281
ag2281
ag2281
ag2281
ag2281
ag2281
ag2281
ag2281
ag2281
ag2281
ag2281
ag2281
ag2281
ag2281
ag2281
ag2281
ag2281
ag2281
ag2281
ag2281
ag2281
ag2281
ag2281
ag2281
ag2281
ag2281
ag2281
ag2281
ag2281
ag2281
ag2281
ag2281
ag2281
ag2281
ag2281
ag2281
ag2281
ag2281
ag2281
ag2281
ag2281
ag2281
ag2281
ag2281
ag2281
ag2281
ag2281
ag2281
ag2281
ag2281
ag2281
ag2281
ag2281
ag2281
ag2281
ag2281
ag2281
ag2281
ag2281
ag2281
ag2281
ag2281
ag2281
ag2281
ag2281
ag2281
ag2281
ag2281
ag2281
ag2281
ag2281
ag2281
ag2281
ag2281
ag2281
ag2281
ag2281
ag2281
ag2281
ag2281
ag2281
ag2281
ag2281
ag2281
ag2281
ag2281
ag2281
ag2281
ag2281
ag2281
ag2281
ag2281
ag2281
ag2281
ag2281
ag2281
ag2281
ag2281
ag2281
ag2281
ag2281
ag2281
ag2281
ag2281
ag2281
ag2281
ag2281
ag2281
ag2281
ag2281
ag2281
ag2281
ag2281
ag2281
ag2281
ag2281
ag2281
ag2281
ag2281
ag2281
ag2281
ag2281
ag2281
ag2281
ag2281
ag2281
ag2281
ag2281
ag2281
ag2281
ag2281
ag2281
ag2281
ag2281
ag2281
ag2281
ag2281
ag2281
ag2281
ag2281
ag2281
ag2281
ag2281
ag2281
ag2281
ag2281
ag2281
ag2281
ag2281
ag2281
ag2281
ag2281
ag2281
ag2281
ag2281
ag2281
ag2281
ag2281
ag2281
ag2281
ag2281
ag2281
ag2281
ag2281
ag2281
ag2281
ag2281
ag2281
ag2281
ag2281
ag2281
ag2281
ag2281
ag2281
ag2281
ag2281
ag2281
ag2281
ag2281
ag2281
ag2281
ag2281
ag2281
ag2281
ag2281
ag2281
ag2281
ag2281
ag2281
ag2281
ag2281
ag2281
ag2281
ag2281
ag2281
ag2281
ag2281
ag2281
ag2281
ag2281
ag2281
ag2281
ag2281
ag2281
ag2281
ag2281
ag2281
ag2281
ag2281
ag2281
ag2281
ag2281
ag2281
ag2281
ag2281
ag2281
ag2281
ag2281
ag2281
ag2281
ag2281
ag2281
ag2281
ag2281
ag2281
ag2281
ag2281
ag2281
ag2281
ag2281
ag2281
ag2281
ag2281
ag2281
ag2281
ag2281
ag2281
ag2281
ag2281
ag2281
ag2281
ag2281
ag2281
ag2281
ag2281
ag2281
ag2281
ag2281
ag2281
ag2281
ag2281
ag2281
ag2281
ag2281
ag2281
ag2281
ag2281
ag2281
ag2281
ag2281
ag2281
ag2281
ag2281
ag2281
ag2281
ag2281
ag2281
ag2281
ag2281
ag2281
ag2281
ag2281
ag2281
ag2281
ag2281
ag2281
ag2281
ag2281
ag2281
ag2281
ag2281
ag2281
ag2281
ag2281
ag2281
ag2281
ag2281
ag2281
ag2281
ag2281
ag2281
ag2281
ag2281
ag2281
ag2281
ag2281
ag2281
ag2281
ag2281
ag2281
ag2281
ag2281
ag2281
ag2281
ag2281
ag2281
ag2281
ag2281
ag2281
ag2281
ag2281
ag2281
ag2281
ag2281
ag2281
ag2281
ag2281
ag2281
ag2281
ag2281
ag2281
ag2281
ag2281
ag2281
ag2281
ag2281
ag2281
ag2281
ag2281
ag2281
ag2281
ag2281
ag2281
ag2281
ag2281
ag2281
ag2281
ag2281
ag2281
ag2281
ag2281
ag2281
ag2281
ag2281
ag2281
ag2281
ag2281
ag2281
ag2281
ag2281
ag2281
ag2281
ag2281
ag2281
ag2281
ag2281
ag2281
ag2281
ag2281
ag2281
ag2281
ag2281
ag2281
ag2281
ag2281
ag2281
ag2281
ag2281
ag2281
ag2281
ag2281
ag2281
ag2281
ag2281
ag2281
ag2281
ag2281
ag2281
ag2281
ag2281
ag2281
ag2281
ag2281
ag2281
ag2281
ag2281
ag2281
ag2281
ag2281
ag2281
ag2281
ag2281
ag2281
ag2281
ag2281
ag2281
ag2281
ag2281
ag2281
ag2281
ag2281
ag2281
ag2281
ag2281
ag2281
ag2281
ag2281
ag2281
ag2281
ag2281
ag2281
ag2281
ag2281
ag2281
ag2281
ag2281
ag2281
ag2281
ag2281
ag2281
ag2281
ag2281
ag2281
ag2281
ag2281
ag2281
ag2281
ag2281
ag2281
ag2281
ag2281
ag2281
ag2281
ag2281
ag2281
ag2281
ag2281
ag2281
ag2281
ag2281
ag2281
ag2281
ag2281
ag2281
ag2281
ag2281
ag2281
ag2281
ag2281
ag2281
ag2281
ag2281
ag2281
ag2281
ag2281
ag2281
ag2281
ag2281
ag2281
ag2281
ag2281
ag2281
ag2281
ag2281
ag2281
ag2281
ag2281
ag2281
ag2281
ag2281
ag2281
ag2281
ag2281
ag2281
ag2281
ag2281
ag2281
ag2281
ag2281
ag2281
ag2281
ag2281
ag2281
ag2281
ag2281
ag2281
ag2281
ag2281
ag2281
ag2281
ag2281
ag2281
ag2281
ag2281
ag2281
ag2281
ag2281
ag2281
ag2281
ag2281
ag2281
ag2281
ag2281
ag2281
ag2281
ag2281
ag2281
ag2281
ag2281
ag2281
ag2281
ag2281
ag2281
ag2281
ag2281
ag2281
ag2281
ag2281
ag2281
ag2281
ag2281
ag2281
ag2281
ag2281
ag2281
ag2281
ag2281
ag2281
ag2281
ag2281
ag2281
ag2281
ag2281
ag2281
ag2281
ag2281
ag2281
ag2281
ag2281
ag2281
ag2281
ag2281
ag2281
ag2281
ag2281
ag2281
ag2281
ag2281
ag2281
ag2281
ag2281
ag2281
ag2281
ag2281
ag2281
ag2281
ag2281
ag2281
ag2281
ag2281
ag2281
ag2281
ag2281
ag2281
ag2281
ag2281
ag2281
ag2281
ag2281
ag2281
ag2281
ag2281
ag2281
ag2281
ag2281
ag2281
ag2281
ag2281
ag2281
ag2281
ag2281
ag2281
ag2281
ag2281
ag2281
ag2281
ag2281
ag2281
ag2281
ag2281
ag2281
ag2281
ag2281
ag2281
ag2281
ag2281
ag2281
ag2281
ag2281
ag2281
ag2281
ag2281
aa.