(dp0
S'1-wave-opensocial.googleusercontent.com'
p1
(lp2
V2a00:1450:4002:802::100a
p3
aV2a00:1450:4017:801::100a
p4
aV2a00:1450:4013:c01::84
p5
aV2a00:1450:4001:c02::84
p6
aV2607:f8b0:4004:806::100a
p7
aV2607:f8b0:4004:800::100a
p8
aV2404:6800:4005:800::100b
p9
aV2a00:1450:4001:805::100a
p10
aV2607:f8b0:4006:808::100c
p11
aV2a00:1450:4007:80a::100b
p12
aV2a00:1450:4013:c00::84
p13
aV2a00:1450:400c:c00::84
p14
aV2a00:1450:4003:803::100b
p15
aV2a00:1450:400c:c00::84
p16
aV2607:f8b0:400a:802::100b
p17
aV2a00:1450:4002:803::100a
p18
aV2404:6800:4006:806::100b
p19
aV2607:f8b0:4001:c02::84
p20
aV2607:f8b0:4000:800::100a
p21
aV2a00:1450:4001:c02::84
p22
aV2a00:1450:4013:c01::84
p23
as.