(dp0
S'1.gvt0.com'
p1
(lp2
V2a00:1450:4002:802::1009
p3
aV2a00:1450:4013:c00::8a
p4
aV2a00:1450:4016:801::1003
p5
aV2a00:1450:4017:801::1000
p6
aV2a00:1450:4005:808::1000
p7
aV2607:f8b0:4004:800::1000
p8
aV2404:6800:4005:800::100e
p9
aV2a00:1450:4001:c02::71
p10
aV2607:f8b0:400b:80a::1006
p11
aV2607:f8b0:400a:801::1002
p12
aV2a00:1450:4001:c02::64
p13
aV2a00:1450:4002:801::1001
p14
aV2a00:1450:4013:c01::8a
p15
aV2607:f8b0:400c:c03::65
p16
aV2a00:1450:4009:804::1000
p17
aV2607:f8b0:400a:805::1000
p18
aV2a00:1450:4002:803::1001
p19
aV2a00:1450:4013:c00::65
p20
aV2404:6800:4006:804::100e
p21
aV2607:f8b0:4009:800::100e
p22
aV2607:f8b0:4004:800::1008
p23
aV2a00:1450:4001:c02::71
p24
aV2a00:1450:4010:c08::65
p25
as.