(dp0
S'15.docs.google.com'
p1
(lp2
V2a00:1450:4001:c02::bd
p3
aV2a00:1450:4013:c00::bd
p4
aV2a00:1450:4001:c02::bd
p5
aV2607:f8b0:400c:c03::bd
p6
aV2607:f8b0:400d:c03::bd
p7
aV2404:6800:4008:c04::bd
p8
aV2a00:1450:4001:c02::bd
p9
aV2607:f8b0:4001:c05::bd
p10
aV2607:f8b0:400e:c01::bd
p11
aV2a00:1450:4013:c00::bd
p12
aV2a00:1450:4001:c02::bd
p13
aV2a00:1450:4013:c01::bd
p14
aV2a00:1450:4001:c02::bd
p15
aV2a00:1450:400c:c01::bd
p16
aV2001:4860:400b:c01::bd
p17
aV2a00:1450:4001:c02::bd
p18
aV2404:6800:4008:c01::bd
p19
aV2607:f8b0:4001:c02::bd
p20
aV2607:f8b0:400d:c03::bd
p21
aV2a00:1450:4001:c02::bd
p22
aV2a00:1450:4010:c08::bd
p23
as.