(dp0
S'3.gvt0.com'
p1
(lp2
V2a00:1450:4002:802::1005
p3
aV2a00:1450:4017:801::1004
p4
aV2a00:1450:4013:c01::65
p5
aV2a00:1450:4001:c02::64
p6
aV2607:f8b0:4004:806::1003
p7
aV2607:f8b0:4004:800::1005
p8
aV2404:6800:4005:800::1004
p9
aV2a00:1450:400d:802::1000
p10
aV2607:f8b0:4006:808::1007
p11
aV2a00:1450:4007:80a::1001
p12
aV2a00:1450:4013:c00::71
p13
aV2a00:1450:400c:c00::8a
p14
aV2a00:1450:400c:c00::71
p15
aV2607:f8b0:400a:802::1005
p16
aV2a00:1450:4002:803::1008
p17
aV2404:6800:4006:806::1008
p18
aV2607:f8b0:4001:c02::71
p19
aV2607:f8b0:4000:800::1001
p20
aV2a00:1450:4001:c02::64
p21
aV2a00:1450:4013:c01::8b
p22
aV2a00:1450:4003:803::1009
p23
as.