(dp0
S'36-wave-opensocial.googleusercontent.com'
p1
(lp2
V2a00:1450:4002:802::100c
p3
aV2a00:1450:4017:801::100c
p4
aV2a00:1450:4013:c01::84
p5
aV2a00:1450:4001:c02::84
p6
aV2607:f8b0:4004:800::100b
p7
aV2404:6800:4005:800::100b
p8
aV2a00:1450:4001:80a::100a
p9
aV2607:f8b0:4006:808::100b
p10
aV2a00:1450:4007:80a::100a
p11
aV2a00:1450:4013:c00::84
p12
aV2a00:1450:400c:c00::84
p13
aV2a00:1450:4003:803::100a
p14
aV2a00:1450:400c:c00::84
p15
aV2607:f8b0:400a:802::100a
p16
aV2a00:1450:4002:803::100b
p17
aV2404:6800:4006:806::100c
p18
aV2607:f8b0:4001:c02::84
p19
aV2607:f8b0:4000:800::100b
p20
aV2a00:1450:4013:c01::84
p21
aV2a00:1450:4001:c02::84
p22
as.