(dp0
S'accounts.google.com.hk'
p1
(lp2
V2a00:1450:4001:c02::5e
p3
aV2a00:1450:4001:c02::5e
p4
aV2a00:1450:4013:c01::5e
p5
aV2a00:1450:4001:c02::5e
p6
aV2607:f8b0:400d:c00::5e
p7
aV2607:f8b0:400d:c04::5e
p8
aV2404:6800:4008:c01::5e
p9
aV2a00:1450:4001:c02::5e
p10
aV2607:f8b0:400d:c06::5e
p11
aV2a00:1450:400c:c03::5e
p12
aV2a00:1450:4013:c00::5e
p13
aV2a00:1450:400c:c00::5e
p14
aV2a00:1450:400c:c03::5e
p15
aV2a00:1450:400c:c00::5e
p16
aV2001:4860:400b:c01::5e
p17
aV2a00:1450:4001:c02::5e
p18
aV2a00:1450:4013:c01::5e
p19
aV2404:6800:4008:c01::5e
p20
aV2607:f8b0:4001:c02::5e
p21
aV2607:f8b0:4003:c05::5e
p22
aV2a00:1450:4001:c02::5e
p23
as.