(dp0
S'accounts.l.google.com'
p1
(lp2
V2a00:1450:4001:c02::54
p3
aV2a00:1450:4001:c02::54
p4
aV2a00:1450:4013:c01::54
p5
aV2a00:1450:4001:c02::54
p6
aV2a00:1450:400c:c00::54
p7
aV2607:f8b0:400d:c04::54
p8
aV2404:6800:4008:c01::54
p9
aV2a00:1450:4001:c02::54
p10
aV2607:f8b0:400d:c06::54
p11
aV2a00:1450:400c:c03::54
p12
aV2a00:1450:4013:c00::54
p13
aV2607:f8b0:400d:c00::54
p14
aV2a00:1450:400c:c03::54
p15
aV2001:4860:400b:c01::54
p16
aV2a00:1450:4001:c02::54
p17
aV2404:6800:4008:c01::54
p18
aV2607:f8b0:4001:c02::54
p19
aV2a00:1450:4013:c01::54
p20
aV2a00:1450:4001:c02::54
p21
as.