(dp0
S'answers.google.com'
p1
(lp2
V2a00:1450:4002:802::1000
p3
aV2a00:1450:4013:c00::64
p4
aV2a00:1450:4016:801::1003
p5
aV2607:f8b0:4004:800::1000
p6
aV2404:6800:4005:800::1005
p7
aV2a00:1450:4017:801::1001
p8
aV2a00:1450:400d:805::1001
p9
aV2607:f8b0:400b:80b::1005
p10
aV2607:f8b0:400a:801::1009
p11
aV2a00:1450:4001:c02::66
p12
aV2a00:1450:4002:801::1005
p13
aV2a00:1450:4013:c01::8b
p14
aV2a00:1450:4005:808::1007
p15
aV2a00:1450:4013:c00::8b
p16
aV2a00:1450:4009:804::100e
p17
aV2607:f8b0:400a:805::100e
p18
aV2a00:1450:4002:803::1000
p19
aV2404:6800:4006:804::1008
p20
aV2607:f8b0:4009:800::1002
p21
aV2607:f8b0:4004:800::1009
p22
aV2a00:1450:4001:c02::66
p23
aV2a00:1450:4010:c08::71
p24
as.