(dp0
S'au.youtube.com'
p1
(lp2
V2a00:1450:4002:802::1008
p3
aV2a00:1450:4017:801::100e
p4
aV2a00:1450:4013:c01::5d
p5
aV2a00:1450:4001:c02::5b
p6
aV2607:f8b0:4004:806::1005
p7
aV2607:f8b0:4004:800::1000
p8
aV2404:6800:4005:800::1004
p9
aV2a00:1450:400d:803::1009
p10
aV2607:f8b0:4006:808::1004
p11
aV2a00:1450:4007:80a::1004
p12
aV2a00:1450:4013:c00::be
p13
aV2a00:1450:400c:c00::5d
p14
aV2a00:1450:4003:803::1009
p15
aV2a00:1450:400c:c00::be
p16
aV2607:f8b0:400a:802::1000
p17
aV2a00:1450:4013:c01::5b
p18
aV2404:6800:4006:806::1004
p19
aV2607:f8b0:4001:c02::88
p20
aV2607:f8b0:4000:800::1007
p21
aV2a00:1450:4001:c02::be
p22
as.