(dp0
S'auth.keyhole.com'
p1
(lp2
V2a00:1450:4002:802::1005
p3
aV2a00:1450:4017:801::1006
p4
aV2a00:1450:4013:c01::8b
p5
aV2a00:1450:4001:c02::8a
p6
aV2607:f8b0:4004:806::1007
p7
aV2607:f8b0:4004:800::1001
p8
aV2404:6800:4005:800::1008
p9
aV2a00:1450:400d:804::1000
p10
aV2607:f8b0:4006:808::1002
p11
aV2a00:1450:4007:80a::1005
p12
aV2a00:1450:4013:c00::64
p13
aV2a00:1450:400c:c00::64
p14
aV2a00:1450:4003:803::100e
p15
aV2a00:1450:400c:c00::66
p16
aV2607:f8b0:400a:802::1002
p17
aV2404:6800:4006:806::1006
p18
aV2607:f8b0:4001:c02::64
p19
aV2607:f8b0:4000:800::1001
p20
aV2a00:1450:4001:c02::8a
p21
aV2a00:1450:4013:c01::8a
p22
as.