(dp0
S'bks1.books.google.com.hk'
p1
(lp2
V2a00:1450:4002:802::1004
p3
aV2a00:1450:4017:801::1008
p4
aV2a00:1450:4013:c00::8a
p5
aV2a00:1450:4016:801::1000
p6
aV2a00:1450:4005:808::100e
p7
aV2607:f8b0:4004:800::1001
p8
aV2404:6800:4005:800::1001
p9
aV2a00:1450:400d:805::1000
p10
aV2607:f8b0:400b:80b::1003
p11
aV2607:f8b0:400a:801::1007
p12
aV2a00:1450:4001:808::100e
p13
aV2a00:1450:4002:801::1005
p14
aV2a00:1450:4013:c01::64
p15
aV2607:f8b0:400c:c03::66
p16
aV2a00:1450:4009:804::1003
p17
aV2607:f8b0:400a:800::1004
p18
aV2a00:1450:4002:803::1002
p19
aV2404:6800:4006:804::1007
p20
aV2607:f8b0:4009:800::1001
p21
aV2607:f8b0:4004:800::1007
p22
aV2a00:1450:4001:c02::66
p23
aV2a00:1450:4010:c08::8a
p24
as.