(dp0
S'bks2.books.google.com'
p1
(lp2
V2a00:1450:4002:802::1001
p3
aV2a00:1450:4013:c01::8b
p4
aV2a00:1450:4001:c02::8a
p5
aV2a00:1450:4017:801::1007
p6
aV2607:f8b0:4004:806::1007
p7
aV2607:f8b0:4004:800::100e
p8
aV2404:6800:4005:800::1008
p9
aV2a00:1450:400d:803::1007
p10
aV2607:f8b0:4006:808::1008
p11
aV2a00:1450:4007:80a::1009
p12
aV2a00:1450:4013:c00::8a
p13
aV2a00:1450:400c:c00::65
p14
aV2607:f8b0:400a:802::100e
p15
aV2a00:1450:4002:803::1001
p16
aV2404:6800:4006:806::1004
p17
aV2607:f8b0:4001:c02::66
p18
aV2a00:1450:4001:c02::8a
p19
aV2a00:1450:4013:c01::64
p20
aV2a00:1450:4003:803::1005
p21
as.