(dp0
S'bks3.books.google.com.hk'
p1
(lp2
V2a00:1450:4002:802::1008
p3
aV2a00:1450:4013:c01::8a
p4
aV2a00:1450:4001:c02::8a
p5
aV2a00:1450:4017:801::1008
p6
aV2607:f8b0:4004:806::1003
p7
aV2607:f8b0:4004:800::1006
p8
aV2404:6800:4005:800::1000
p9
aV2a00:1450:400d:802::1008
p10
aV2607:f8b0:4006:808::1007
p11
aV2a00:1450:400c:c00::64
p12
aV2a00:1450:4007:80a::1009
p13
aV2a00:1450:4013:c00::66
p14
aV2a00:1450:400c:c00::64
p15
aV2a00:1450:4003:803::1007
p16
aV2607:f8b0:400a:802::1006
p17
aV2a00:1450:4002:803::1004
p18
aV2a00:1450:4013:c01::64
p19
aV2404:6800:4006:806::1004
p20
aV2607:f8b0:4001:c02::8b
p21
aV2607:f8b0:4000:800::1008
p22
aV2a00:1450:4001:c02::8a
p23
as.