(dp0
S'bks5.books.google.com'
p1
(lp2
V2a00:1450:4002:802::1004
p3
aV2a00:1450:4017:801::1008
p4
aV2a00:1450:4013:c01::8a
p5
aV2a00:1450:4001:c02::65
p6
aV2a00:1450:400c:c00::64
p7
aV2607:f8b0:4004:800::1000
p8
aV2404:6800:4005:800::1000
p9
aV2a00:1450:400d:804::1004
p10
aV2607:f8b0:4006:808::1003
p11
aV2a00:1450:4007:80a::1006
p12
aV2a00:1450:4013:c00::8b
p13
aV2607:f8b0:4004:806::1006
p14
aV2a00:1450:4003:803::100e
p15
aV2a00:1450:400c:c00::66
p16
aV2607:f8b0:400a:802::100e
p17
aV2a00:1450:4002:803::1003
p18
aV2404:6800:4006:806::100e
p19
aV2607:f8b0:4001:c02::8a
p20
aV2607:f8b0:4000:800::1008
p21
aV2a00:1450:4013:c01::8b
p22
aV2a00:1450:4001:c02::8b
p23
as.