(dp0
S'bks5.books.google.com.hk'
p1
(lp2
V2a00:1450:4002:802::1006
p3
aV2a00:1450:4013:c00::8a
p4
aV2a00:1450:4016:801::1000
p5
aV2a00:1450:4017:801::1006
p6
aV2a00:1450:4005:808::1002
p7
aV2607:f8b0:4004:800::1001
p8
aV2404:6800:4005:800::1001
p9
aV2a00:1450:400d:805::1006
p10
aV2607:f8b0:400b:80b::1002
p11
aV2607:f8b0:400a:801::1006
p12
aV2a00:1450:4001:800::1005
p13
aV2a00:1450:4002:801::1003
p14
aV2a00:1450:4013:c01::71
p15
aV2607:f8b0:400c:c03::8b
p16
aV2a00:1450:4009:804::1003
p17
aV2607:f8b0:400a:800::100e
p18
aV2a00:1450:4002:803::1002
p19
aV2404:6800:4006:804::1003
p20
aV2607:f8b0:4009:800::1006
p21
aV2607:f8b0:4004:800::1004
p22
aV2a00:1450:4001:c02::66
p23
aV2a00:1450:4010:c08::8a
p24
as.