(dp0
S'blob-s-docs.googlegroups.com'
p1
(lp2
V2a00:1450:4001:c02::89
p3
aV2a00:1450:4001:c02::89
p4
aV2a00:1450:4013:c00::89
p5
aV2a00:1450:4001:c02::89
p6
aV2a00:1450:4001:c02::89
p7
aV2607:f8b0:400d:c03::89
p8
aV2404:6800:4008:c04::89
p9
aV2a00:1450:4001:c02::89
p10
aV2607:f8b0:4001:c05::89
p11
aV2607:f8b0:400e:c01::89
p12
aV2a00:1450:4013:c00::89
p13
aV2a00:1450:4001:c02::89
p14
aV2a00:1450:4013:c01::89
p15
aV2607:f8b0:400c:c03::89
p16
aV2a00:1450:400c:c01::89
p17
aV2001:4860:400b:c01::89
p18
aV2a00:1450:4001:c02::89
p19
aV2a00:1450:4013:c00::89
p20
aV2404:6800:4008:c01::89
p21
aV2607:f8b0:4001:c02::89
p22
aV2607:f8b0:400d:c03::89
p23
aV2a00:1450:4001:c02::89
p24
aV2a00:1450:4010:c08::89
p25
as.