(dp0
S'books.google.com.hk'
p1
(lp2
V2a00:1450:4002:802::1009
p3
aV2a00:1450:4017:801::1003
p4
aV2a00:1450:4013:c00::66
p5
aV2a00:1450:4016:801::1003
p6
aV2a00:1450:4005:808::1007
p7
aV2607:f8b0:4004:800::1008
p8
aV2404:6800:4005:800::1000
p9
aV2a00:1450:400d:804::100e
p10
aV2607:f8b0:400b:80b::1003
p11
aV2607:f8b0:400a:801::1004
p12
aV2a00:1450:4001:c02::66
p13
aV2a00:1450:4002:801::1008
p14
aV2a00:1450:4013:c01::71
p15
aV2607:f8b0:400c:c03::65
p16
aV2a00:1450:4009:804::1003
p17
aV2607:f8b0:400a:800::1003
p18
aV2a00:1450:4002:803::1007
p19
aV2404:6800:4006:804::1006
p20
aV2607:f8b0:4009:800::1002
p21
aV2607:f8b0:4004:800::1000
p22
aV2a00:1450:4001:c02::65
p23
aV2a00:1450:4010:c08::8b
p24
as.