(dp0
S'c.commondatastorage.googleapis.com'
p1
(lp2
V2a00:1450:4001:c02::80
p3
aV2a00:1450:4001:c02::80
p4
aV2a00:1450:4013:c00::80
p5
aV2a00:1450:4001:c02::80
p6
aV2a00:1450:4001:c02::80
p7
aV2607:f8b0:400d:c03::80
p8
aV2404:6800:4008:c04::80
p9
aV2a00:1450:4001:c02::80
p10
aV2607:f8b0:4001:c05::80
p11
aV2a00:1450:400c:c01::80
p12
aV2a00:1450:4013:c00::80
p13
aV2a00:1450:4001:c02::80
p14
aV2a00:1450:4013:c01::80
p15
aV2607:f8b0:400c:c03::80
p16
aV2607:f8b0:400e:c01::80
p17
aV2001:4860:400b:c01::80
p18
aV2a00:1450:4001:c02::80
p19
aV2404:6800:4008:c01::80
p20
aV2607:f8b0:4001:c02::80
p21
aV2607:f8b0:400d:c03::80
p22
aV2a00:1450:4001:c02::80
p23
aV2a00:1450:4013:c00::80
p24
aV2a00:1450:4010:c08::80
p25
as.