(dp0
S'ca.youtube.com'
p1
(lp2
V2a00:1450:4002:802::1008
p3
aV2a00:1450:4017:801::100e
p4
aV2a00:1450:4013:c01::be
p5
aV2a00:1450:4001:c02::be
p6
aV2607:f8b0:4004:806::1007
p7
aV2607:f8b0:4004:800::1001
p8
aV2404:6800:4005:800::1006
p9
aV2a00:1450:400d:805::1006
p10
aV2607:f8b0:4006:808::100e
p11
aV2a00:1450:400c:c00::5d
p12
aV2a00:1450:4007:80a::100e
p13
aV2a00:1450:4013:c00::be
p14
aV2a00:1450:400c:c00::be
p15
aV2a00:1450:4003:803::1005
p16
aV2607:f8b0:400a:802::1002
p17
aV2a00:1450:4002:803::1007
p18
aV2a00:1450:4013:c01::88
p19
aV2404:6800:4006:806::1009
p20
aV2607:f8b0:4001:c02::5d
p21
aV2607:f8b0:4000:800::1002
p22
aV2a00:1450:4001:c02::88
p23
as.