(dp0
S'cache.l.google.com'
p1
(lp2
V2a00:1450:4014:7::f
p3
aV2a02:2148:2fff:ff00::13
p4
aV2607:f8b0:4006:25::f
p5
aV2a00:1450:400e:15::f
p6
aV2a00:1450:4009:39::f
p7
aV2607:f8b0:4004:15::f
p8
aV2001:4860:4001:f::f
p9
aV2607:f8b0:4006:25::f
p10
aV2607:f8b0:400b:805::f
p11
aV2607:f8b0:400a:6::f
p12
aV2607:f8b0:4006:4::f
p13
aV2a00:1450:4002:6::f
p14
aV2607:f8b0:4006:4::f
p15
aV2001:4860:4001:14::f
p16
aV2607:f8b0:4006:5::f
p17
aV2607:f8b0:400a:4::f
p18
aV2607:f8b0:4006:a::f
p19
aV2a00:1450:4007:f::f
p20
aV2800:3f0:4003:4::f
p21
aV2607:f8b0:4009:2::8
p22
aV2607:f8b0:4004:11::f
p23
aV2607:f8b0:4006:d::8
p24
aV2607:f8b0:4006:25::f
p25
as.