(dp0
S'cache.l.google.com'
p1
(lp2
V2a00:1450:4014:b::e
p3
aV2607:f8b0:4006:d::9
p4
aV2a00:1450:400e:14::e
p5
aV2a02:2148:2fff:ff00::12
p6
aV2001:4860:4001:7::e
p7
aV2607:f8b0:4004:15::e
p8
aV2001:4860:4001:6::e
p9
aV2607:f8b0:4006:25::e
p10
aV2a00:1450:4002:6::e
p11
aV2607:f8b0:4006:d::9
p12
aV2607:f8b0:4006:c::9
p13
aV2a00:1450:4009:2c::e
p14
aV2607:f8b0:4006:d::9
p15
aV2a00:1450:4001:f::e
p16
aV2607:f8b0:400a:2::e
p17
aV2607:f8b0:4006:6::e
p18
aV2800:3f0:4003:2::e
p19
aV2607:f8b0:4009:d::e
p20
aV2607:f8b0:4000:4::e
p21
aV2607:f8b0:4006:3::e
p22
aV2a00:1450:4007:c::e
p23
as.