(dp0
S'cbks3.google.com'
p1
(lp2
V2a00:1450:4017:801::1008
p3
aV2a00:1450:4013:c01::71
p4
aV2a00:1450:4001:c02::66
p5
aV2607:f8b0:4004:806::1009
p6
aV2607:f8b0:4004:800::1003
p7
aV2404:6800:4005:800::1002
p8
aV2a00:1450:400d:804::1008
p9
aV2607:f8b0:4006:808::1003
p10
aV2a00:1450:4007:80a::1004
p11
aV2a00:1450:4013:c00::71
p12
aV2a00:1450:400c:c00::66
p13
aV2a00:1450:4003:803::1005
p14
aV2a00:1450:400c:c00::66
p15
aV2607:f8b0:400a:802::100e
p16
aV2a00:1450:4002:803::1002
p17
aV2404:6800:4006:806::100e
p18
aV2607:f8b0:4001:c02::8b
p19
aV2607:f8b0:4000:800::1003
p20
aV2a00:1450:4001:c02::8a
p21
aV2a00:1450:4013:c01::64
p22
as.