(dp0
S'chart.apis.google.com'
p1
(lp2
V2a00:1450:4017:801::1000
p3
aV2a00:1450:4013:c01::65
p4
aV2a00:1450:4001:c02::8b
p5
aV2607:f8b0:4004:806::1009
p6
aV2607:f8b0:4004:800::1005
p7
aV2404:6800:4005:800::1009
p8
aV2a00:1450:400d:804::1001
p9
aV2607:f8b0:4006:808::1006
p10
aV2a00:1450:4007:80a::1009
p11
aV2a00:1450:4013:c00::64
p12
aV2a00:1450:400c:c00::8b
p13
aV2a00:1450:4003:803::1001
p14
aV2a00:1450:400c:c00::64
p15
aV2607:f8b0:400a:802::1006
p16
aV2a00:1450:4002:803::1003
p17
aV2404:6800:4006:806::1007
p18
aV2607:f8b0:4001:c02::8b
p19
aV2607:f8b0:4000:800::1007
p20
aV2a00:1450:4013:c01::8b
p21
aV2a00:1450:4001:c02::65
p22
as.