(dp0
S'chrome.google.com'
p1
(lp2
V2a00:1450:4002:802::1002
p3
aV2a00:1450:4017:801::1002
p4
aV2a00:1450:4013:c00::8a
p5
aV2a00:1450:4016:801::1002
p6
aV2a00:1450:4005:808::1004
p7
aV2607:f8b0:4004:800::1002
p8
aV2404:6800:4005:800::1005
p9
aV2a00:1450:400d:804::1003
p10
aV2607:f8b0:400b:80b::1000
p11
aV2607:f8b0:400a:801::1005
p12
aV2a00:1450:4001:c02::65
p13
aV2a00:1450:4002:801::100e
p14
aV2a00:1450:4013:c01::8a
p15
aV2607:f8b0:400c:c03::71
p16
aV2a00:1450:4013:c00::71
p17
aV2a00:1450:4009:804::1003
p18
aV2607:f8b0:400a:805::1002
p19
aV2404:6800:4006:804::1001
p20
aV2607:f8b0:4009:800::1003
p21
aV2607:f8b0:4004:800::1001
p22
aV2a00:1450:4001:c02::66
p23
aV2a00:1450:4010:c08::64
p24
as.