(dp0
S'chrome.google.com'
p1
(lp2
V2a00:1450:4002:802::1001
p3
aV2a00:1450:4017:801::1003
p4
aV2a00:1450:4013:c01::64
p5
aV2a00:1450:4001:c02::8b
p6
aV2607:f8b0:4004:806::100e
p7
aV2607:f8b0:4004:800::100e
p8
aV2404:6800:4005:800::1003
p9
aV2a00:1450:400d:802::1000
p10
aV2607:f8b0:4006:808::100e
p11
aV2a00:1450:4007:80a::1001
p12
aV2a00:1450:4013:c00::65
p13
aV2a00:1450:400c:c00::65
p14
aV2607:f8b0:400a:802::1002
p15
aV2a00:1450:4002:803::1008
p16
aV2404:6800:4006:806::1000
p17
aV2607:f8b0:4001:c02::66
p18
aV2a00:1450:4001:c02::65
p19
aV2a00:1450:4013:c01::71
p20
as.