(dp0
S'clients5.google.com'
p1
(lp2
V2a00:1450:4002:802::1001
p3
aV2a00:1450:4016:801::1000
p4
aV2a00:1450:4017:801::1001
p5
aV2a00:1450:4005:808::1002
p6
aV2607:f8b0:4004:800::1008
p7
aV2404:6800:4005:800::1005
p8
aV2a00:1450:400d:805::1001
p9
aV2607:f8b0:400b:80b::1002
p10
aV2a00:1450:4009:804::1000
p11
aV2a00:1450:4001:808::1005
p12
aV2a00:1450:4002:801::1007
p13
aV2a00:1450:4013:c01::8b
p14
aV2607:f8b0:400a:801::1000
p15
aV2607:f8b0:400a:800::1004
p16
aV2a00:1450:4002:803::1008
p17
aV2404:6800:4006:804::1006
p18
aV2607:f8b0:4009:800::1000
p19
aV2607:f8b0:4004:800::1004
p20
aV2a00:1450:4001:c02::71
p21
aV2a00:1450:4010:c08::64
p22
as.