(dp0
S'clients1.google.com.hk'
p1
(lp2
V2a00:1450:4002:802::101f
p3
aV2a00:1450:4013:c01::5e
p4
aV2a00:1450:4001:c02::5e
p5
aV2a00:1450:4017:801::101f
p6
aV2607:f8b0:4004:800::1017
p7
aV2404:6800:4005:800::101f
p8
aV2a00:1450:400d:803::100f
p9
aV2607:f8b0:4006:808::1017
p10
aV2a00:1450:4007:80a::101f
p11
aV2a00:1450:4013:c00::5e
p12
aV2a00:1450:4003:803::101f
p13
aV2a00:1450:400c:c00::5e
p14
aV2607:f8b0:400a:802::100f
p15
aV2a00:1450:4002:803::1018
p16
aV2404:6800:4006:806::1017
p17
aV2607:f8b0:4001:c02::5e
p18
aV2607:f8b0:4000:800::101f
p19
aV2a00:1450:4013:c01::5e
p20
aV2a00:1450:4001:c02::5e
p21
as.