(dp0
S'clients1.google.com'
p1
(lp2
V2a00:1450:4002:802::1006
p3
aV2a00:1450:4017:801::1006
p4
aV2a00:1450:4013:c00::8b
p5
aV2a00:1450:4016:801::1000
p6
aV2a00:1450:4005:808::1001
p7
aV2607:f8b0:4004:800::1009
p8
aV2404:6800:4005:800::1004
p9
aV2a00:1450:400d:805::1001
p10
aV2607:f8b0:400b:80b::1003
p11
aV2a00:1450:4009:804::1006
p12
aV2a00:1450:4001:808::1005
p13
aV2a00:1450:4002:801::100e
p14
aV2a00:1450:4013:c01::71
p15
aV2607:f8b0:400c:c03::66
p16
aV2607:f8b0:400a:801::1004
p17
aV2607:f8b0:400a:800::1004
p18
aV2a00:1450:4002:803::1008
p19
aV2404:6800:4006:804::100e
p20
aV2607:f8b0:4009:800::1006
p21
aV2607:f8b0:4004:800::1003
p22
aV2a00:1450:4001:c02::65
p23
aV2a00:1450:4010:c08::71
p24
as.