(dp0
S'clients5.google.com'
p1
(lp2
V2a00:1450:4002:802::1005
p3
aV2a00:1450:4013:c01::8a
p4
aV2a00:1450:4001:c02::65
p5
aV2a00:1450:4017:801::1007
p6
aV2a00:1450:400c:c00::64
p7
aV2607:f8b0:4004:800::1008
p8
aV2404:6800:4005:800::1003
p9
aV2a00:1450:400d:804::1005
p10
aV2607:f8b0:4006:808::1003
p11
aV2a00:1450:4007:80a::1005
p12
aV2a00:1450:4013:c00::66
p13
aV2607:f8b0:4004:806::1002
p14
aV2a00:1450:4003:803::1003
p15
aV2a00:1450:400c:c00::8b
p16
aV2607:f8b0:400a:802::1001
p17
aV2a00:1450:4002:803::1008
p18
aV2404:6800:4006:806::1009
p19
aV2607:f8b0:4001:c02::71
p20
aV2607:f8b0:4000:800::100e
p21
aV2a00:1450:4013:c01::8a
p22
aV2a00:1450:4001:c02::65
p23
as.