(dp0
S'csi.l.google.com'
p1
(lp2
V2607:f8b0:4007:805::101f
p3
aV2607:f8b0:4006:806::1018
p4
aV2404:6800:4003:c00::5e
p5
aV2607:f8b0:4007:803::1018
p6
aV2a00:1450:400c:c01::5e
p7
aV2404:6800:4004:80a::1017
p8
aV2a00:1450:400c:c04::5e
p9
aV2a00:1450:4007:806::101f
p10
aV2a00:1450:4009:803::1018
p11
aV2800:3f0:4001:814::101f
p12
aV2607:f8b0:4007:803::1018
p13
aV2607:f8b0:4012:800::101f
p14
aV2607:f8b0:4001:c02::5e
p15
aV2404:6800:4004:80c::100f
p16
aV2a00:1450:400d:804::100f
p17
aV2607:f8b0:400a:801::100f
p18
aV2404:6800:4005:806::101f
p19
aV2a00:1450:4004:802::101f
p20
aV2a00:1450:4013:c00::5e
p21
aV2a00:1450:4014:80b::1017
p22
aV2a00:1450:4003:801::1018
p23
as.