(dp0
S'csi.gstatic.com'
p1
(lp2
V2607:f8b0:4007:802::101f
p3
aV2a00:1450:4014:80b::1018
p4
aV2a00:1450:400c:c01::5e
p5
aV2a00:1450:400c:c00::5e
p6
aV2404:6800:4006:806::101f
p7
aV2404:6800:400a:800::1018
p8
aV2800:3f0:4001:811::1017
p9
aV2404:6800:4004:80d::1018
p10
aV2607:f8b0:4009:802::100f
p11
aV2a00:1450:400c:c05::5e
p12
aV2607:f8b0:4003:c03::5e
p13
aV2404:6800:4001:804::101f
p14
aV2607:f8b0:4007:801::101f
p15
aV2607:f8b0:4000:804::101f
p16
aV2404:6800:4004:805::100f
p17
aV2a00:1450:4001:802::101f
p18
aV2607:f8b0:4000:804::1018
p19
aV2a00:1450:400f:800::1017
p20
aV2404:6800:4009:801::1018
p21
aV2607:f8b0:4001:c01::5e
p22
aV2a00:1450:4005:808::1018
p23
aV2404:6800:4009:802::1017
p24
as.