(dp0
S'csi.l.google.com'
p1
(lp2
V2a00:1450:4005:801::1018
p3
aV2a00:1450:4009:809::101f
p4
aV2404:6800:4005:804::100f
p5
aV2001:4860:4007:801::1018
p6
aV2800:3f0:4003:800::100f
p7
aV2a00:1450:4008:c01::5e
p8
aV2404:6800:4003:c01::5e
p9
aV2a00:1450:4009:804::1018
p10
aV2a00:1450:4007:807::101f
p11
aV2607:f8b0:4009:800::1017
p12
aV2607:f8b0:4009:800::1017
p13
aV2607:f8b0:4004:803::100f
p14
aV2607:f8b0:4008:803::1017
p15
aV2607:f8b0:4000:808::100f
p16
aV2404:6800:4005:802::1017
p17
aV2a00:1450:4001:c02::5e
p18
aV2a00:1450:4001:806::101f
p19
aV2607:f8b0:4004:801::101f
p20
aV2a00:1450:4001:c02::5e
p21
aV2404:6800:4004:807::100f
p22
aV2404:6800:4004:807::100f
p23
aV2a00:1450:4003:801::1018
p24
aV2a00:1450:4001:c02::5e
p25
as.