(dp0
S'developers.google.com'
p1
(lp2
V2a00:1450:4002:802::1007
p3
aV2a00:1450:4017:801::1000
p4
aV2a00:1450:4002:801::1005
p5
aV2a00:1450:4001:c02::65
p6
aV2a00:1450:4013:c00::8b
p7
aV2a00:1450:4016:801::1003
p8
aV2a00:1450:4005:808::1009
p9
aV2607:f8b0:400a:800::1005
p10
aV2a00:1450:4002:803::1000
p11
aV2404:6800:4005:800::1002
p12
aV2404:6800:4006:804::1000
p13
aV2a00:1450:4001:c02::64
p14
aV2607:f8b0:400b:80a::1003
p15
aV2607:f8b0:400a:801::1000
p16
as.