(dp0
S'dl-ssl.google.com'
p1
(lp2
V2a00:1450:4001:c02::5d
p3
aV2a00:1450:4013:c00::5d
p4
aV2a00:1450:4001:c02::88
p5
aV2a00:1450:4001:c02::5b
p6
aV2a00:1450:4001:c02::5b
p7
aV2607:f8b0:400d:c03::88
p8
aV2404:6800:4008:c04::5d
p9
aV2a00:1450:4001:c02::5b
p10
aV2607:f8b0:4001:c05::5b
p11
aV2607:f8b0:400e:c01::5b
p12
aV2a00:1450:4013:c00::be
p13
aV2a00:1450:4001:c02::5b
p14
aV2a00:1450:4013:c01::5d
p15
aV2607:f8b0:400c:c03::be
p16
aV2a00:1450:400c:c01::5b
p17
aV2001:4860:400b:c01::5d
p18
aV2a00:1450:4013:c00::be
p19
aV2404:6800:4008:c01::5b
p20
aV2607:f8b0:4001:c02::5d
p21
aV2607:f8b0:400d:c03::5b
p22
aV2a00:1450:4001:c02::5d
p23
aV2a00:1450:4010:c08::88
p24
as.