(dp0
S'dl-ssl.google.com'
p1
(lp2
V2a00:1450:4001:c02::be
p3
aV2a00:1450:4001:c02::be
p4
aV2a00:1450:4013:c01::5b
p5
aV2a00:1450:4001:c02::5b
p6
aV2607:f8b0:400d:c00::be
p7
aV2607:f8b0:400d:c04::5b
p8
aV2404:6800:4008:c01::be
p9
aV2a00:1450:4001:c02::88
p10
aV2607:f8b0:400d:c06::88
p11
aV2a00:1450:400c:c03::5d
p12
aV2a00:1450:4013:c00::5d
p13
aV2a00:1450:400c:c00::5d
p14
aV2a00:1450:400c:c03::88
p15
aV2a00:1450:400c:c00::5b
p16
aV2001:4860:400b:c01::5b
p17
aV2a00:1450:4001:c02::be
p18
aV2a00:1450:4013:c01::be
p19
aV2404:6800:4008:c01::be
p20
aV2607:f8b0:4001:c02::5d
p21
aV2607:f8b0:4003:c05::88
p22
aV2a00:1450:4001:c02::88
p23
as.