(dp0
S'dl.google.com'
p1
(lp2
V2a00:1450:4002:802::1005
p3
aV2a00:1450:4017:801::1008
p4
aV2a00:1450:4013:c00::be
p5
aV2a00:1450:4016:801::1006
p6
aV2a00:1450:4005:808::1005
p7
aV2607:f8b0:4004:800::1000
p8
aV2404:6800:4005:800::1003
p9
aV2a00:1450:4001:804::1002
p10
aV2607:f8b0:400b:80b::1001
p11
aV2607:f8b0:400a:801::1005
p12
aV2a00:1450:4001:80e::1001
p13
aV2a00:1450:4002:801::1003
p14
aV2a00:1450:4013:c01::88
p15
aV2607:f8b0:400c:c03::5d
p16
aV2a00:1450:4009:804::1009
p17
aV2607:f8b0:400a:805::1001
p18
aV2a00:1450:4002:803::100e
p19
aV2a00:1450:4013:c00::88
p20
aV2404:6800:4006:804::1009
p21
aV2607:f8b0:4009:800::1001
p22
aV2607:f8b0:4004:800::1004
p23
aV2a00:1450:4001:c02::be
p24
aV2a00:1450:4010:c08::5b
p25
as.