(dp0
S'doc-10-9k-docs.googleusercontent.com'
p1
(lp2
V2a00:1450:4002:802::100b
p3
aV2a00:1450:4013:c01::84
p4
aV2a00:1450:4001:c02::84
p5
aV2a00:1450:4017:801::100c
p6
aV2607:f8b0:4004:806::100b
p7
aV2607:f8b0:4004:800::100b
p8
aV2404:6800:4005:800::100a
p9
aV2a00:1450:4001:c02::84
p10
aV2607:f8b0:4006:808::100c
p11
aV2a00:1450:400c:c00::84
p12
aV2a00:1450:4007:80a::100b
p13
aV2a00:1450:4013:c00::84
p14
aV2a00:1450:400c:c00::84
p15
aV2a00:1450:4003:803::100b
p16
aV2607:f8b0:400a:802::100a
p17
aV2a00:1450:4002:803::100b
p18
aV2a00:1450:4013:c01::84
p19
aV2404:6800:4006:806::100a
p20
aV2607:f8b0:4001:c02::84
p21
aV2607:f8b0:4000:800::100c
p22
aV2a00:1450:4001:c02::84
p23
as.