(dp0
S'doc-14-2g-3dwarehouse.googleusercontent.com'
p1
(lp2
V2a00:1450:4002:802::100a
p3
aV2a00:1450:4017:801::100c
p4
aV2a00:1450:4013:c00::84
p5
aV2a00:1450:4016:801::100a
p6
aV2607:f8b0:400c:c03::84
p7
aV2607:f8b0:4004:800::100b
p8
aV2404:6800:4005:800::100c
p9
aV2a00:1450:4001:c02::84
p10
aV2607:f8b0:400b:80b::100b
p11
aV2a00:1450:4009:804::100b
p12
aV2a00:1450:4013:c00::84
p13
aV2a00:1450:4002:801::100b
p14
aV2a00:1450:4013:c01::84
p15
aV2a00:1450:4005:808::100a
p16
aV2607:f8b0:400a:801::100a
p17
aV2607:f8b0:400a:805::100a
p18
aV2a00:1450:4002:803::100a
p19
aV2404:6800:4006:804::100c
p20
aV2607:f8b0:4009:800::100b
p21
aV2607:f8b0:4004:800::100a
p22
aV2a00:1450:4001:c02::84
p23
aV2a00:1450:4013:c00::84
p24
aV2a00:1450:4010:c08::84
p25
as.