(dp0
S'doc-0c-as-docs.googleusercontent.com'
p1
(lp2
V2a00:1450:4002:802::100a
p3
aV2a00:1450:4017:801::100a
p4
aV2a00:1450:4013:c00::84
p5
aV2a00:1450:4016:801::100c
p6
aV2607:f8b0:4004:800::100b
p7
aV2404:6800:4005:800::100c
p8
aV2a00:1450:4001:c02::84
p9
aV2607:f8b0:400b:80b::100a
p10
aV2a00:1450:4009:804::100c
p11
aV2a00:1450:4013:c01::84
p12
aV2a00:1450:4002:801::100a
p13
aV2a00:1450:4013:c01::84
p14
aV2607:f8b0:400a:801::100c
p15
aV2607:f8b0:400a:800::100b
p16
aV2a00:1450:4013:c00::84
p17
aV2404:6800:4006:804::100b
p18
aV2607:f8b0:4009:800::100a
p19
aV2607:f8b0:4004:800::100a
p20
aV2a00:1450:4001:c02::84
p21
aV2a00:1450:4010:c08::84
p22
as.