(dp0
S'docs4.google.com'
p1
(lp2
V2a00:1450:4002:802::1000
p3
aV2a00:1450:4013:c00::8a
p4
aV2a00:1450:4016:801::1009
p5
aV2a00:1450:4017:801::1005
p6
aV2607:f8b0:4004:800::1000
p7
aV2404:6800:4005:800::1006
p8
aV2a00:1450:400d:802::1003
p9
aV2607:f8b0:400b:80b::1004
p10
aV2607:f8b0:400a:801::1003
p11
aV2a00:1450:4001:802::1005
p12
aV2a00:1450:4002:801::1009
p13
aV2a00:1450:4013:c01::8a
p14
aV2a00:1450:4005:808::1008
p15
aV2a00:1450:4013:c00::71
p16
aV2a00:1450:4009:804::1003
p17
aV2607:f8b0:400a:800::1006
p18
aV2a00:1450:4002:803::1003
p19
aV2404:6800:4006:804::1000
p20
aV2607:f8b0:4009:800::1001
p21
aV2607:f8b0:4004:800::1005
p22
aV2a00:1450:4001:c02::8a
p23
aV2a00:1450:4010:c08::66
p24
as.