(dp0
S'docs8.google.com'
p1
(lp2
V2a00:1450:4002:802::1008
p3
aV2a00:1450:4013:c00::8a
p4
aV2a00:1450:4016:801::1009
p5
aV2a00:1450:4017:801::1004
p6
aV2607:f8b0:4004:800::1008
p7
aV2404:6800:4005:800::1003
p8
aV2a00:1450:400d:803::1006
p9
aV2607:f8b0:400b:80b::1002
p10
aV2607:f8b0:400a:801::1000
p11
aV2a00:1450:4001:c02::65
p12
aV2a00:1450:4002:801::1008
p13
aV2a00:1450:4013:c01::65
p14
aV2607:f8b0:400c:c03::64
p15
aV2a00:1450:4009:804::1003
p16
aV2607:f8b0:400a:800::1006
p17
aV2a00:1450:4013:c00::8a
p18
aV2a00:1450:4002:803::1003
p19
aV2404:6800:4006:804::1006
p20
aV2607:f8b0:4009:800::1001
p21
aV2607:f8b0:4004:800::1002
p22
aV2a00:1450:4001:c02::71
p23
aV2a00:1450:4010:c08::8a
p24
as.