(dp0
S'encrypted-tbn3.google.com'
p1
(lp2
V2a00:1450:4002:802::1004
p3
aV2a00:1450:4017:801::100e
p4
aV2a00:1450:4013:c01::65
p5
aV2a00:1450:4001:c02::64
p6
aV2607:f8b0:4004:806::1000
p7
aV2607:f8b0:4004:800::1000
p8
aV2a00:1450:400d:803::1005
p9
aV2607:f8b0:4006:808::1007
p10
aV2a00:1450:4007:80a::1001
p11
aV2a00:1450:4013:c00::66
p12
aV2a00:1450:400c:c00::8a
p13
aV2a00:1450:400c:c00::66
p14
aV2607:f8b0:400a:802::1000
p15
aV2a00:1450:4002:803::1002
p16
aV2404:6800:4006:806::1008
p17
aV2607:f8b0:4001:c02::65
p18
aV2607:f8b0:4000:800::1007
p19
aV2a00:1450:4001:c02::64
p20
aV2a00:1450:4013:c01::8a
p21
aV2a00:1450:4003:803::1001
p22
as.