(dp0
S'filetransferenabled.mail.google.com'
p1
(lp2
V2a00:1450:4002:802::101d
p3
aV2a00:1450:4013:c01::bd
p4
aV2a00:1450:4001:c02::bd
p5
aV2a00:1450:4017:801::101d
p6
aV2607:f8b0:4004:806::101d
p7
aV2607:f8b0:4004:800::101d
p8
aV2404:6800:4005:800::101d
p9
aV2a00:1450:4001:805::101d
p10
aV2607:f8b0:4006:808::101d
p11
aV2a00:1450:4007:80a::101d
p12
aV2a00:1450:4013:c00::bd
p13
aV2a00:1450:400c:c00::bd
p14
aV2a00:1450:4003:803::101d
p15
aV2607:f8b0:400a:802::101d
p16
aV2a00:1450:4002:803::101d
p17
aV2a00:1450:4013:c01::bd
p18
aV2404:6800:4006:806::101d
p19
aV2607:f8b0:4001:c02::bd
p20
aV2607:f8b0:4000:800::101d
p21
aV2a00:1450:4001:c02::bd
p22
as.