(dp0
S'friendconnect.gmodules.com'
p1
(lp2
V2a00:1450:4002:802::1006
p3
aV2a00:1450:4017:801::1004
p4
aV2a00:1450:4013:c01::76
p5
aV2a00:1450:4001:c02::76
p6
aV2a00:1450:400c:c00::76
p7
aV2607:f8b0:4004:800::1005
p8
aV2404:6800:4005:800::1007
p9
aV2a00:1450:400d:802::1008
p10
aV2607:f8b0:4006:808::1000
p11
aV2a00:1450:4007:80a::1008
p12
aV2a00:1450:4013:c00::76
p13
aV2607:f8b0:4004:806::1009
p14
aV2a00:1450:4003:803::1004
p15
aV2a00:1450:400c:c00::76
p16
aV2607:f8b0:400a:802::1005
p17
aV2a00:1450:4002:803::1008
p18
aV2404:6800:4006:806::1000
p19
aV2607:f8b0:4001:c02::76
p20
aV2607:f8b0:4000:800::1008
p21
aV2a00:1450:4001:c02::76
p22
aV2a00:1450:4013:c01::76
p23
as.