(dp0
S'g2.gstatic.com'
p1
(lp2
V2a00:1450:4002:802::100f
p3
aV2a00:1450:4017:801::1017
p4
aV2a00:1450:4013:c01::5e
p5
aV2a00:1450:4001:c02::5e
p6
aV2607:f8b0:4004:806::1018
p7
aV2607:f8b0:4004:800::1018
p8
aV2404:6800:4005:800::1017
p9
aV2a00:1450:400d:803::101f
p10
aV2607:f8b0:4006:808::1017
p11
aV2a00:1450:4007:80a::1017
p12
aV2a00:1450:4013:c00::5e
p13
aV2a00:1450:400c:c00::5e
p14
aV2a00:1450:4003:803::100f
p15
aV2a00:1450:400c:c00::5e
p16
aV2607:f8b0:400a:802::100f
p17
aV2a00:1450:4002:803::101f
p18
aV2404:6800:4006:806::100f
p19
aV2607:f8b0:4001:c02::5e
p20
aV2607:f8b0:4000:800::1017
p21
aV2a00:1450:4013:c01::5e
p22
aV2a00:1450:4001:c02::5e
p23
as.