(dp0
S'g3.gstatic.com'
p1
(lp2
V2a00:1450:4002:802::100f
p3
aV2a00:1450:4017:801::1017
p4
aV2a00:1450:4013:c00::5e
p5
aV2a00:1450:4016:801::1018
p6
aV2a00:1450:4005:808::101f
p7
aV2404:6800:4005:800::1018
p8
aV2a00:1450:400d:802::100f
p9
aV2607:f8b0:400b:80b::100f
p10
aV2607:f8b0:400a:801::1017
p11
aV2a00:1450:4001:809::100f
p12
aV2a00:1450:4002:801::1018
p13
aV2a00:1450:4013:c01::5e
p14
aV2607:f8b0:400c:c03::5e
p15
aV2a00:1450:4009:804::1018
p16
aV2607:f8b0:400a:800::101f
p17
aV2a00:1450:4002:803::1018
p18
aV2a00:1450:4013:c00::5e
p19
aV2404:6800:4006:804::100f
p20
aV2607:f8b0:4009:800::1018
p21
aV2607:f8b0:4004:800::101f
p22
aV2a00:1450:4001:c02::5e
p23
aV2a00:1450:4010:c08::5e
p24
as.