(dp0
S'gadgets.l.google.com'
p1
(lp2
V2a00:1450:4002:802::1001
p3
aV2a00:1450:4017:801::1000
p4
aV2a00:1450:4013:c01::76
p5
aV2a00:1450:4001:c02::76
p6
aV2607:f8b0:4004:806::1004
p7
aV2607:f8b0:4004:800::1008
p8
aV2404:6800:4005:800::1004
p9
aV2a00:1450:400d:804::1001
p10
aV2607:f8b0:4006:808::1003
p11
aV2a00:1450:4007:80a::1008
p12
aV2a00:1450:4013:c00::76
p13
aV2a00:1450:400c:c00::76
p14
aV2a00:1450:4003:803::1007
p15
aV2a00:1450:400c:c00::76
p16
aV2607:f8b0:400a:802::1001
p17
aV2a00:1450:4002:803::1006
p18
aV2a00:1450:4013:c01::76
p19
aV2404:6800:4006:806::100e
p20
aV2607:f8b0:4001:c02::76
p21
aV2607:f8b0:4000:800::1006
p22
aV2a00:1450:4001:c02::76
p23
as.