(dp0
S'gadgets.l.google.com'
p1
(lp2
V2a00:1450:4002:802::1000
p3
aV2a00:1450:4017:801::1009
p4
aV2a00:1450:4013:c00::76
p5
aV2a00:1450:4016:801::1008
p6
aV2a00:1450:4005:808::1003
p7
aV2607:f8b0:4004:800::1004
p8
aV2404:6800:4005:800::100e
p9
aV2a00:1450:400d:802::1002
p10
aV2607:f8b0:400b:80b::1007
p11
aV2607:f8b0:400a:801::1002
p12
aV2a00:1450:4001:c02::76
p13
aV2a00:1450:4002:801::1007
p14
aV2a00:1450:4013:c01::76
p15
aV2607:f8b0:400c:c03::76
p16
aV2a00:1450:4009:804::1006
p17
aV2607:f8b0:400a:800::1002
p18
aV2a00:1450:4002:803::1004
p19
aV2404:6800:4006:804::1005
p20
aV2607:f8b0:4009:800::1005
p21
aV2607:f8b0:4004:800::1004
p22
aV2a00:1450:4001:c02::76
p23
aV2a00:1450:4010:c08::76
p24
as.