(dp0
S'gdata.youtube.com'
p1
(lp2
V2a00:1450:4002:802::1000
p3
aV2a00:1450:4013:c00::76
p4
aV2a00:1450:4016:801::1004
p5
aV2a00:1450:4017:801::1004
p6
aV2607:f8b0:4004:800::1003
p7
aV2404:6800:4005:800::1006
p8
aV2a00:1450:4001:c02::76
p9
aV2607:f8b0:400b:80b::1002
p10
aV2607:f8b0:400a:801::1003
p11
aV2a00:1450:4001:80e::1006
p12
aV2a00:1450:4002:801::1008
p13
aV2a00:1450:4013:c01::76
p14
aV2607:f8b0:400c:c03::76
p15
aV2a00:1450:4009:804::1009
p16
aV2607:f8b0:400a:805::1001
p17
aV2a00:1450:4002:803::100e
p18
aV2a00:1450:4013:c00::76
p19
aV2404:6800:4006:804::1006
p20
aV2607:f8b0:4009:800::1000
p21
aV2607:f8b0:4004:800::1008
p22
aV2a00:1450:4001:c02::76
p23
aV2a00:1450:4010:c08::76
p24
as.