(dp0
S'gmail-smtp.l.google.com'
p1
(lp2
V2607:f8b0:4002:c06::6c
p3
aV2607:f8b0:4002:c06::6d
p4
aV2607:f8b0:4002:c06::6d
p5
aV2607:f8b0:4002:c06::6d
p6
aV2404:6800:4008:c01::6c
p7
aV2404:6800:4008:c01::6c
p8
aV2404:6800:4008:c01::6c
p9
aV2607:f8b0:4002:c06::6d
p10
aV2404:6800:4008:c01::6c
p11
aV2404:6800:4008:c01::6c
p12
aV2607:f8b0:4002:c06::6d
p13
aV2607:f8b0:4002:c06::6d
p14
aV2607:f8b0:4002:c06::6c
p15
aV2607:f8b0:4002:c06::6c
p16
aV2a00:1450:400c:c06::6d
p17
aV2607:f8b0:4002:c06::6d
p18
aV2a00:1450:400c:c00::6c
p19
aV2404:6800:4008:c01::6c
p20
aV2607:f8b0:4002:c06::6c
p21
aV2607:f8b0:4002:c06::6c
p22
aV2607:f8b0:4002:c06::6d
p23
aV2607:f8b0:4002:c06::6d
p24
aV2607:f8b0:4002:c06::6d
p25
as.