(dp0
S'gmail-smtp.l.google.com'
p1
(lp2
V2607:f8b0:4002:c06::6c
p3
aV2607:f8b0:400e:c03::6c
p4
aV2607:f8b0:4002:c06::6c
p5
aV2607:f8b0:4002:c06::6d
p6
aV2a00:1450:400c:c00::6d
p7
aV2607:f8b0:400d:c00::6c
p8
aV2607:f8b0:4002:c06::6d
p9
aV2a00:1450:400c:c00::6c
p10
aV2607:f8b0:4002:c06::6d
p11
aV2a00:1450:400c:c00::6d
p12
aV2a00:1450:400c:c00::6c
p13
aV2607:f8b0:400d:c00::6d
p14
aV2607:f8b0:400c:c02::6d
p15
aV2a00:1450:400c:c00::6c
p16
aV2607:f8b0:400e:c03::6d
p17
aV2a00:1450:400c:c00::6d
p18
aV2a00:1450:400c:c00::6d
p19
aV2a00:1450:400c:c00::6c
p20
aV2607:f8b0:400d:c00::6d
p21
aV2607:f8b0:400d:c00::6d
p22
as.