(dp0
S'gmail.com'
p1
(lp2
V2a00:1450:4002:802::1016
p3
aV2a00:1450:4017:801::1016
p4
aV2a00:1450:4013:c00::12
p5
aV2a00:1450:4016:801::1015
p6
aV2a00:1450:4005:808::1016
p7
aV2607:f8b0:4004:800::1016
p8
aV2404:6800:4005:800::1015
p9
aV2a00:1450:4001:c02::53
p10
aV2607:f8b0:400b:80b::1015
p11
aV2a00:1450:4009:804::1015
p12
aV2a00:1450:4013:c01::13
p13
aV2a00:1450:4002:801::1015
p14
aV2a00:1450:4013:c01::13
p15
aV2607:f8b0:400c:c03::53
p16
aV2607:f8b0:400a:801::1016
p17
aV2607:f8b0:400a:800::1016
p18
aV2a00:1450:4002:803::1016
p19
aV2404:6800:4006:804::1015
p20
aV2607:f8b0:4009:800::1015
p21
aV2607:f8b0:4004:800::1016
p22
aV2a00:1450:4013:c00::12
p23
aV2a00:1450:4001:c02::11
p24
aV2a00:1450:4010:c08::11
p25
as.