(dp0
S'gmail-smtp-in.l.google.com'
p1
(lp2
V2a00:1450:4013:c01::1b
p3
aV2a00:1450:400c:c05::1b
p4
aV2a00:1450:4013:c01::1b
p5
aV2a00:1450:4013:c01::1b
p6
aV2a00:1450:4013:c01::1a
p7
aV2607:f8b0:400d:c01::1a
p8
aV2607:f8b0:400e:c01::1b
p9
aV2a00:1450:4013:c01::1b
p10
aV2607:f8b0:4001:c05::1b
p11
aV2a00:1450:400c:c03::1a
p12
aV2a00:1450:4013:c01::1b
p13
aV2a00:1450:4013:c01::1b
p14
aV2a00:1450:4013:c01::1b
p15
aV2607:f8b0:400c:c01::1b
p16
aV2607:f8b0:400e:c01::1b
p17
aV2607:f8b0:400e:c03::1b
p18
aV2a00:1450:4013:c01::1a
p19
aV2607:f8b0:400e:c02::1a
p20
aV2607:f8b0:4001:c03::1a
p21
aV2607:f8b0:400d:c01::1a
p22
aV2a00:1450:4013:c01::1a
p23
aV2a00:1450:4013:c01::1b
p24
aV2a00:1450:4010:c03::1a
p25
as.