(dp0
S'gmail-smtp-in.l.google.com'
p1
(lp2
V2a00:1450:4013:c01::1a
p3
aV2a00:1450:4013:c01::1a
p4
aV2a00:1450:4013:c01::1b
p5
aV2a00:1450:4013:c01::1b
p6
aV2607:f8b0:400d:c00::1b
p7
aV2607:f8b0:400d:c01::1a
p8
aV2607:f8b0:400d:c04::1b
p9
aV2a00:1450:400c:c00::1a
p10
aV2a00:1450:400c:c03::1a
p11
aV2a00:1450:4013:c01::1b
p12
aV2a00:1450:400c:c00::1b
p13
aV2a00:1450:400c:c03::1b
p14
aV2607:f8b0:400e:c03::1a
p15
aV2a00:1450:4013:c01::1a
p16
aV2a00:1450:4013:c01::1b
p17
aV2607:f8b0:400e:c02::1b
p18
aV2607:f8b0:4001:c03::1b
p19
aV2607:f8b0:4003:c01::1b
p20
aV2a00:1450:4013:c01::1b
p21
as.