(dp0
S'gmr-smtp-in.l.google.com'
p1
(lp2
V2a00:1450:4013:c01::e
p3
aV2a00:1450:4013:c01::e
p4
aV2a00:1450:4013:c01::e
p5
aV2a00:1450:4013:c01::e
p6
aV2607:f8b0:400d:c00::e
p7
aV2607:f8b0:400d:c01::e
p8
aV2a00:1450:4013:c01::e
p9
aV2607:f8b0:400d:c04::e
p10
aV2a00:1450:400c:c03::e
p11
aV2a00:1450:4013:c01::e
p12
aV2a00:1450:400c:c00::e
p13
aV2607:f8b0:400e:c03::e
p14
aV2a00:1450:4013:c01::e
p15
aV2607:f8b0:400e:c02::e
p16
aV2607:f8b0:4001:c03::e
p17
aV2a00:1450:4013:c01::e
p18
aV2a00:1450:4013:c01::e
p19
aV2a00:1450:400c:c03::e
p20
as.