(dp0
S'googlewave.com'
p1
(lp2
V2a00:1450:4002:802::1010
p3
aV2a00:1450:400d:805::1010
p4
aV2a00:1450:4013:c01::6a
p5
aV2a00:1450:4001:c02::93
p6
aV2a00:1450:4001:801::1012
p7
aV2607:f8b0:4004:800::1014
p8
aV2404:6800:4005:800::1014
p9
aV2a00:1450:400d:805::1010
p10
aV2607:f8b0:4009:806::1012
p11
aV2a00:1450:4007:80a::1011
p12
aV2a00:1450:4013:c00::93
p13
aV2607:f8b0:400c:c03::6a
p14
aV2001:4860:400b:c01::69
p15
aV2a00:1450:4002:803::1010
p16
aV2404:6800:4006:806::1013
p17
aV2607:f8b0:4009:800::1012
p18
aV2a00:1450:4005:808::1011
p19
aV2a00:1450:400c:c03::63
p20
as.