(dp0
S'googlewave.com'
p1
(lp2
V2a00:1450:4002:802::1014
p3
aV2a00:1450:400d:805::1014
p4
aV2a00:1450:4013:c00::68
p5
aV2a00:1450:4001:c02::68
p6
aV2a00:1450:4008:800::1013
p7
aV2607:f8b0:4004:800::1010
p8
aV2404:6800:4005:800::1010
p9
aV2a00:1450:4001:c02::93
p10
aV2607:f8b0:4009:806::1010
p11
aV2607:f8b0:400a:801::1014
p12
aV2a00:1450:4001:806::1010
p13
aV2a00:1450:4016:800::1014
p14
aV2a00:1450:4013:c01::63
p15
aV2607:f8b0:400c:c03::68
p16
aV2a00:1450:400c:c01::67
p17
aV2001:4860:400b:c01::63
p18
aV2a00:1450:4002:803::1012
p19
aV2a00:1450:4005:808::1013
p20
aV2404:6800:4006:804::1012
p21
aV2607:f8b0:4009:800::1013
p22
aV2607:f8b0:4004:800::1014
p23
aV2a00:1450:4001:c02::6a
p24
aV2a00:1450:4010:c08::63
p25
as.