(dp0
S'googlemail-smtp.l.google.com'
p1
(lp2
V2a00:1450:4013:c01::10
p3
aV2a00:1450:4013:c01::10
p4
aV2a00:1450:4013:c01::10
p5
aV2a00:1450:400c:c05::10
p6
aV2a00:1450:4013:c01::10
p7
aV2607:f8b0:400d:c01::10
p8
aV2607:f8b0:400e:c01::10
p9
aV2a00:1450:4013:c01::10
p10
aV2607:f8b0:4001:c05::10
p11
aV2a00:1450:400c:c03::10
p12
aV2a00:1450:4013:c01::10
p13
aV2a00:1450:4013:c01::10
p14
aV2a00:1450:4013:c01::10
p15
aV2607:f8b0:400c:c01::10
p16
aV2607:f8b0:400e:c01::10
p17
aV2607:f8b0:400e:c03::10
p18
aV2a00:1450:4013:c01::10
p19
aV2607:f8b0:400e:c02::10
p20
aV2607:f8b0:4001:c03::10
p21
aV2607:f8b0:400d:c01::10
p22
aV2a00:1450:4013:c01::10
p23
aV2a00:1450:4013:c01::10
p24
aV2a00:1450:4010:c03::10
p25
as.