(dp0
S'googlemashups.com'
p1
(lp2
V2a00:1450:4002:802::1013
p3
aV2a00:1450:400d:805::1013
p4
aV2a00:1450:4013:c00::68
p5
aV2a00:1450:4001:c02::93
p6
aV2a00:1450:4008:800::1011
p7
aV2607:f8b0:4004:800::1014
p8
aV2404:6800:4005:800::1011
p9
aV2a00:1450:4001:c02::93
p10
aV2607:f8b0:400a:801::1011
p11
aV2a00:1450:4001:c02::67
p12
aV2a00:1450:4016:800::1011
p13
aV2a00:1450:4013:c01::67
p14
aV2607:f8b0:400c:c03::63
p15
aV2a00:1450:400c:c01::63
p16
aV2001:4860:400b:c01::69
p17
aV2a00:1450:4002:803::1011
p18
aV2a00:1450:4005:808::1013
p19
aV2404:6800:4006:804::1014
p20
aV2607:f8b0:4009:800::1011
p21
aV2607:f8b0:4004:800::1011
p22
aV2a00:1450:4005:800::1010
p23
aV2a00:1450:4010:c08::69
p24
as.