(dp0
S'google-public-dns-a.google.com'
p1
(lp2
V2001:4860:4860::8888
p3
aV2001:4860:4860::8888
p4
aV2001:4860:4860::8888
p5
aV2001:4860:4860::8888
p6
aV2001:4860:4860::8888
p7
aV2001:4860:4860::8888
p8
aV2001:4860:4860::8888
p9
aV2001:4860:4860::8888
p10
aV2001:4860:4860::8888
p11
aV2001:4860:4860::8888
p12
aV2001:4860:4860::8888
p13
aV2001:4860:4860::8888
p14
aV2001:4860:4860::8888
p15
aV2001:4860:4860::8888
p16
aV2001:4860:4860::8888
p17
aV2001:4860:4860::8888
p18
aV2001:4860:4860::8888
p19
aV2001:4860:4860::8888
p20
aV2001:4860:4860::8888
p21
aV2001:4860:4860::8888
p22
aV2001:4860:4860::8888
p23
aV2001:4860:4860::8888
p24
aV2001:4860:4860::8888
p25
as.