(dp0
S'google-public-dns-b.google.com'
p1
(lp2
V2001:4860:4860::8844
p3
aV2001:4860:4860::8844
p4
aV2001:4860:4860::8844
p5
aV2001:4860:4860::8844
p6
aV2001:4860:4860::8844
p7
aV2001:4860:4860::8844
p8
aV2001:4860:4860::8844
p9
aV2001:4860:4860::8844
p10
aV2001:4860:4860::8844
p11
aV2001:4860:4860::8844
p12
aV2001:4860:4860::8844
p13
aV2001:4860:4860::8844
p14
aV2001:4860:4860::8844
p15
aV2001:4860:4860::8844
p16
aV2001:4860:4860::8844
p17
aV2001:4860:4860::8844
p18
aV2001:4860:4860::8844
p19
aV2001:4860:4860::8844
p20
aV2001:4860:4860::8844
p21
aV2001:4860:4860::8844
p22
aV2001:4860:4860::8844
p23
aV2001:4860:4860::8844
p24
aV2001:4860:4860::8844
p25
as.