(dp0
S'goto.google.com'
p1
(lp2
V2a00:1450:4002:802::1008
p3
aV2a00:1450:4013:c01::64
p4
aV2a00:1450:4001:c02::66
p5
aV2a00:1450:4017:801::1003
p6
aV2607:f8b0:4004:806::1009
p7
aV2607:f8b0:4004:800::1006
p8
aV2a00:1450:400d:805::1000
p9
aV2607:f8b0:4006:808::1008
p10
aV2a00:1450:4007:80a::1001
p11
aV2a00:1450:4013:c00::66
p12
aV2a00:1450:400c:c00::8a
p13
aV2a00:1450:400c:c00::64
p14
aV2607:f8b0:400a:802::1009
p15
aV2a00:1450:4002:803::1004
p16
aV2404:6800:4006:806::100e
p17
aV2607:f8b0:4001:c02::8a
p18
aV2607:f8b0:4000:800::1008
p19
aV2a00:1450:4001:c02::66
p20
aV2a00:1450:4013:c01::64
p21
aV2a00:1450:4003:803::1005
p22
as.