(dp0
S'groups-beta.google.com'
p1
(lp2
V2a00:1450:4001:c02::64
p3
aV2a00:1450:4001:c02::65
p4
aV2a00:1450:4013:c01::8b
p5
aV2a00:1450:4001:c02::66
p6
aV2607:f8b0:400d:c00::66
p7
aV2607:f8b0:400d:c04::8a
p8
aV2404:6800:4008:c01::8b
p9
aV2a00:1450:4001:c02::64
p10
aV2607:f8b0:400d:c06::71
p11
aV2a00:1450:400c:c00::66
p12
aV2a00:1450:400c:c03::66
p13
aV2a00:1450:4013:c00::64
p14
aV2a00:1450:400c:c00::71
p15
aV2a00:1450:400c:c03::71
p16
aV2001:4860:400b:c01::65
p17
aV2a00:1450:4001:c02::64
p18
aV2a00:1450:4013:c01::8b
p19
aV2404:6800:4008:c01::65
p20
aV2607:f8b0:4001:c02::71
p21
aV2607:f8b0:4003:c05::8a
p22
aV2a00:1450:4001:c02::71
p23
as.