(dp0
S'i1.ytimg.com'
p1
(lp2
V2a00:1450:4002:802::1005
p3
aV2a00:1450:4013:c01::66
p4
aV2a00:1450:4016:801::1004
p5
aV2a00:1450:4017:801::1007
p6
aV2a00:1450:4005:809::1003
p7
aV2607:f8b0:4004:800::1002
p8
aV2404:6800:4005:806::1004
p9
aV2a00:1450:400d:805::1006
p10
aV2607:f8b0:400b:807::1008
p11
aV2a00:1450:4009:802::1008
p12
aV2a00:1450:4001:80f::1001
p13
aV2a00:1450:4002:801::1003
p14
aV2a00:1450:4013:c00::8b
p15
aV2607:f8b0:400c:c04::8b
p16
aV2a00:1450:4013:c01::8b
p17
aV2607:f8b0:400a:805::1009
p18
aV2a00:1450:4002:803::1005
p19
aV2404:6800:4006:804::100e
p20
aV2607:f8b0:4009:800::1005
p21
aV2607:f8b0:4004:800::1005
p22
aV2a00:1450:4001:c02::64
p23
aV2a00:1450:4010:c07::65
p24
as.