(dp0
S'id.google.com'
p1
(lp2
V2607:f8b0:4004:808::100f
p3
aV2a00:1450:4017:801::1018
p4
aV2a00:1450:4013:c00::5e
p5
aV2a00:1450:4001:c02::5e
p6
aV2607:f8b0:4004:800::100f
p7
aV2607:f8b0:4004:809::101f
p8
aV2a00:1450:4007:806::100f
p9
aV2404:6800:4004:809::101f
p10
aV2607:f8b0:4009:805::1018
p11
aV2a00:1450:4002:801::1017
p12
aV2a00:1450:4013:c01::5e
p13
aV2a00:1450:400c:c00::5e
p14
aV2a00:1450:4003:803::101f
p15
aV2a00:1450:400c:c00::5e
p16
aV2607:f8b0:400a:803::100f
p17
aV2a00:1450:4002:801::100f
p18
aV2a00:1450:4013:c00::5e
p19
aV2404:6800:4006:806::1018
p20
aV2607:f8b0:4001:c02::5e
p21
aV2607:f8b0:4000:80a::1017
p22
aV2a00:1450:4001:805::100f
p23
as.