(dp0
S'id.google.com.hk'
p1
(lp2
V2607:f8b0:4004:808::100f
p3
aV2a00:1450:4017:801::1018
p4
aV2a00:1450:4013:c00::5e
p5
aV2404:6800:400a:802::1018
p6
aV2a00:1450:400c:c03::5e
p7
aV2607:f8b0:4004:809::101f
p8
aV2a00:1450:4007:806::100f
p9
aV2404:6800:4004:809::101f
p10
aV2607:f8b0:4006:806::100f
p11
aV2a00:1450:4007:808::1018
p12
aV2a00:1450:4013:c00::5e
p13
aV2607:f8b0:4004:802::1018
p14
aV2a00:1450:4003:803::101f
p15
aV2a00:1450:400c:c00::5e
p16
aV2607:f8b0:400a:803::1018
p17
aV2a00:1450:4002:802::1018
p18
aV2404:6800:4006:806::101f
p19
aV2607:f8b0:4001:c02::5e
p20
aV2607:f8b0:4000:80a::1017
p21
aV2a00:1450:4013:c00::5e
p22
aV2a00:1450:4001:805::100f
p23
as.