(dp0
S'id.google.cn'
p1
(lp2
V2a00:1450:4002:803::101f
p3
aV2a00:1450:4017:801::1017
p4
aV2a00:1450:4013:c00::5e
p5
aV2404:6800:400a:802::1018
p6
aV2a00:1450:400c:c00::5e
p7
aV2607:f8b0:4004:806::101f
p8
aV2a00:1450:4007:806::100f
p9
aV2a00:1450:400d:804::1017
p10
aV2607:f8b0:4009:805::1018
p11
aV2a00:1450:4002:801::1017
p12
aV2607:f8b0:4012:802::100f
p13
aV2607:f8b0:4004:802::1018
p14
aV2a00:1450:4003:802::1017
p15
aV2a00:1450:400c:c04::5e
p16
aV2607:f8b0:400a:803::1018
p17
aV2a00:1450:4002:801::100f
p18
aV2404:6800:4006:806::101f
p19
aV2607:f8b0:4001:c05::5e
p20
aV2607:f8b0:4000:806::1017
p21
aV2a00:1450:4013:c00::5e
p22
aV2a00:1450:4001:c02::5e
p23
as.