(dp0
S'id.l.google.com'
p1
(lp2
V2a00:1450:4002:803::1017
p3
aV2a00:1450:4007:803::1018
p4
aV2a00:1450:400c:c05::5e
p5
aV2404:6800:4008:c02::5e
p6
aV2a00:1450:400c:c00::5e
p7
aV2607:f8b0:4004:806::1018
p8
aV2404:6800:4005:804::1018
p9
aV2a00:1450:400d:803::1017
p10
aV2607:f8b0:400b:806::100f
p11
aV2607:f8b0:400a:801::1018
p12
aV2607:f8b0:4002:c07::5e
p13
aV2607:f8b0:4000:808::1018
p14
aV2a00:1450:4013:c01::5e
p15
aV2607:f8b0:400c:c03::5e
p16
aV2a00:1450:4009:804::101f
p17
aV2607:f8b0:400a:803::1017
p18
aV2a00:1450:4002:800::101f
p19
aV2a00:1450:4013:c00::5e
p20
aV2a00:1450:400c:c03::5e
p21
aV2607:f8b0:4009:803::1017
p22
aV2607:f8b0:4004:801::1018
p23
aV2a00:1450:4001:80a::101f
p24
aV2a00:1450:4014:80a::100f
p25
as.