(dp0
S'id.l.google.com'
p1
(lp2
V2607:f8b0:4004:808::100f
p3
aV2a00:1450:4013:c00::5e
p4
aV2404:6800:400a:802::1018
p5
aV2a00:1450:4017:801::1018
p6
aV2607:f8b0:4004:800::100f
p7
aV2607:f8b0:4004:809::101f
p8
aV2404:6800:4005:804::101f
p9
aV2404:6800:4004:809::101f
p10
aV2607:f8b0:4006:806::100f
p11
aV2a00:1450:400c:c00::5e
p12
aV2a00:1450:4002:801::1017
p13
aV2607:f8b0:4012:802::100f
p14
aV2a00:1450:400c:c00::5e
p15
aV2a00:1450:4013:c00::5e
p16
aV2a00:1450:4003:802::1017
p17
aV2607:f8b0:400a:803::1018
p18
aV2a00:1450:4002:802::1018
p19
aV2404:6800:4006:806::101f
p20
aV2607:f8b0:4001:c05::5e
p21
aV2607:f8b0:4000:806::1017
p22
aV2a00:1450:4001:805::100f
p23
as.