(dp0
S'ipv6.google.co.jp'
p1
(lp2
V2a00:1450:4002:802::1007
p3
aV2a00:1450:400d:805::1005
p4
aV2a00:1450:4013:c00::66
p5
aV2a00:1450:4001:c02::65
p6
aV2607:f8b0:4004:800::1009
p7
aV2404:6800:4005:800::1003
p8
aV2a00:1450:4001:c02::71
p9
aV2607:f8b0:4009:806::1004
p10
aV2a00:1450:400c:c01::71
p11
aV2a00:1450:4001:80a::1005
p12
aV2a00:1450:4016:800::1006
p13
aV2a00:1450:4013:c01::66
p14
aV2a00:1450:4008:800::1000
p15
aV2607:f8b0:400a:801::1000
p16
aV2001:4860:400b:c01::71
p17
aV2a00:1450:4002:803::1000
p18
aV2a00:1450:4005:808::1005
p19
aV2404:6800:4006:804::1003
p20
aV2607:f8b0:4009:800::1009
p21
aV2607:f8b0:4004:800::1002
p22
aV2a00:1450:4001:c02::8a
p23
aV2a00:1450:4010:c08::8b
p24
as.