(dp0
S'ipv6.google.cn'
p1
(lp2
V2a00:1450:4002:802::1001
p3
aV2a00:1450:400d:805::1008
p4
aV2a00:1450:4013:c00::66
p5
aV2a00:1450:4001:c02::65
p6
aV2a00:1450:4008:800::1000
p7
aV2607:f8b0:4004:800::1004
p8
aV2404:6800:4005:800::1000
p9
aV2a00:1450:4001:c02::71
p10
aV2607:f8b0:4009:806::100e
p11
aV2a00:1450:400c:c01::8b
p12
aV2a00:1450:4001:c02::71
p13
aV2a00:1450:4016:800::1006
p14
aV2a00:1450:4013:c01::66
p15
aV2607:f8b0:400c:c03::8b
p16
aV2607:f8b0:400a:801::1009
p17
aV2001:4860:400b:c01::71
p18
aV2a00:1450:4002:803::1009
p19
aV2a00:1450:4005:808::1006
p20
aV2404:6800:4006:804::100e
p21
aV2607:f8b0:4009:800::1009
p22
aV2607:f8b0:4004:800::1001
p23
aV2a00:1450:4001:c02::66
p24
aV2a00:1450:4010:c08::64
p25
as.