(dp0
S'ipv6.google.com'
p1
(lp2
V2a00:1450:4002:802::1007
p3
aV2a00:1450:400d:805::1008
p4
aV2a00:1450:4013:c00::8a
p5
aV2a00:1450:4001:c02::65
p6
aV2a00:1450:4008:800::1000
p7
aV2607:f8b0:4004:800::1009
p8
aV2a00:1450:4001:c02::66
p9
aV2607:f8b0:4009:806::1006
p10
aV2a00:1450:400c:c01::71
p11
aV2a00:1450:4001:801::100e
p12
aV2a00:1450:4016:800::1006
p13
aV2a00:1450:4013:c01::8a
p14
aV2607:f8b0:400c:c03::66
p15
aV2607:f8b0:400a:801::1000
p16
aV2001:4860:400b:c01::71
p17
aV2a00:1450:4002:803::1000
p18
aV2a00:1450:4005:808::1005
p19
aV2404:6800:4006:804::1003
p20
aV2607:f8b0:4009:800::1008
p21
aV2607:f8b0:4004:800::1002
p22
aV2a00:1450:4001:c02::65
p23
aV2a00:1450:4010:c08::65
p24
as.