(dp0
S'jp.youtube.com'
p1
(lp2
V2a00:1450:4002:802::1002
p3
aV2a00:1450:4017:801::1005
p4
aV2a00:1450:4013:c01::be
p5
aV2a00:1450:4001:c02::be
p6
aV2607:f8b0:4004:806::1008
p7
aV2607:f8b0:4004:800::1006
p8
aV2404:6800:4005:800::100e
p9
aV2a00:1450:400d:804::100e
p10
aV2607:f8b0:4006:808::1009
p11
aV2a00:1450:4007:80a::1007
p12
aV2a00:1450:4013:c00::5b
p13
aV2a00:1450:400c:c00::88
p14
aV2a00:1450:4003:803::100e
p15
aV2a00:1450:400c:c00::be
p16
aV2607:f8b0:400a:802::1005
p17
aV2a00:1450:4002:803::1007
p18
aV2404:6800:4006:806::1000
p19
aV2607:f8b0:4001:c02::be
p20
aV2607:f8b0:4000:800::1006
p21
aV2a00:1450:4001:c02::be
p22
aV2a00:1450:4013:c01::88
p23
as.