(dp0
S'k6v18tjr24doa89b55o3na41kn4v73eb-a-oz-opensocial.googleusercontent.com'
p1
(lp2
V2a00:1450:4002:802::100c
p3
aV2a00:1450:4013:c01::84
p4
aV2a00:1450:4001:c02::84
p5
aV2a00:1450:4017:801::100c
p6
aV2607:f8b0:4004:800::100c
p7
aV2404:6800:4005:800::100a
p8
aV2a00:1450:4001:c02::84
p9
aV2a00:1450:4007:80a::100c
p10
aV2a00:1450:4013:c00::84
p11
aV2607:f8b0:4004:806::100a
p12
aV2607:f8b0:400a:802::100a
p13
aV2a00:1450:4002:803::100b
p14
aV2404:6800:4006:806::100b
p15
aV2607:f8b0:4001:c02::84
p16
aV2a00:1450:4001:c02::84
p17
aV2a00:1450:4013:c01::84
p18
as.