(dp0
S'kh.google.com'
p1
(lp2
V2a00:1450:4002:802::1002
p3
aV2a00:1450:4017:801::1009
p4
aV2a00:1450:4013:c01::5b
p5
aV2a00:1450:4001:c02::be
p6
aV2a00:1450:400c:c00::88
p7
aV2607:f8b0:4004:800::1005
p8
aV2404:6800:4005:800::1008
p9
aV2a00:1450:400d:803::1008
p10
aV2607:f8b0:4006:808::1006
p11
aV2a00:1450:4007:80a::1000
p12
aV2a00:1450:4013:c00::be
p13
aV2607:f8b0:4004:806::1005
p14
aV2a00:1450:400c:c00::be
p15
aV2607:f8b0:400a:802::1008
p16
aV2a00:1450:4002:803::100e
p17
aV2404:6800:4006:806::1000
p18
aV2607:f8b0:4001:c02::5b
p19
aV2607:f8b0:4000:800::1004
p20
aV2a00:1450:4001:c02::be
p21
aV2a00:1450:4013:c01::5b
p22
aV2a00:1450:4003:803::1005
p23
as.