(dp0
S'khm0.google.com'
p1
(lp2
V2a00:1450:4002:802::1000
p3
aV2a00:1450:4017:801::1001
p4
aV2a00:1450:4013:c00::66
p5
aV2a00:1450:4016:801::1008
p6
aV2a00:1450:4005:808::1000
p7
aV2607:f8b0:4004:800::100e
p8
aV2404:6800:4005:800::1000
p9
aV2a00:1450:400d:805::1000
p10
aV2607:f8b0:400b:80b::1003
p11
aV2607:f8b0:400a:801::1009
p12
aV2a00:1450:4001:80f::1008
p13
aV2a00:1450:4002:801::1003
p14
aV2a00:1450:4013:c01::64
p15
aV2607:f8b0:400c:c03::65
p16
aV2a00:1450:4013:c00::8b
p17
aV2a00:1450:4009:804::1005
p18
aV2607:f8b0:400a:805::1004
p19
aV2a00:1450:4002:803::1003
p20
aV2404:6800:4006:804::1008
p21
aV2607:f8b0:4009:800::1007
p22
aV2607:f8b0:4004:800::1003
p23
aV2a00:1450:4001:c02::66
p24
aV2a00:1450:4010:c08::8a
p25
as.