(dp0
S'large-uploads.l.google.com'
p1
(lp2
V2a00:1450:4001:c02::74
p3
aV2a00:1450:4001:c02::74
p4
aV2a00:1450:4013:c01::74
p5
aV2a00:1450:4001:c02::75
p6
aV2a00:1450:400c:c00::74
p7
aV2607:f8b0:400d:c03::74
p8
aV2404:6800:4008:c01::75
p9
aV2a00:1450:4001:c02::75
p10
aV2607:f8b0:400d:c04::75
p11
aV2a00:1450:400c:c05::74
p12
aV2a00:1450:4013:c00::74
p13
aV2a00:1450:400c:c03::74
p14
aV2a00:1450:400c:c00::75
p15
aV2001:4860:400b:c01::74
p16
aV2a00:1450:4001:c02::75
p17
aV2404:6800:4008:c02::74
p18
aV2607:f8b0:4001:c00::75
p19
aV2607:f8b0:4003:c03::74
p20
aV2a00:1450:4013:c01::75
p21
aV2a00:1450:4001:c02::75
p22
as.