(dp0
S'lh2.l.google.com'
p1
(lp2
V2a00:1450:4002:802::1007
p3
aV2a00:1450:4017:801::1001
p4
aV2a00:1450:4002:801::1005
p5
aV2a00:1450:4013:c00::66
p6
aV2a00:1450:4016:801::1009
p7
aV2a00:1450:4013:c01::71
p8
aV2a00:1450:4005:808::1004
p9
aV2607:f8b0:400a:805::1006
p10
aV2a00:1450:4002:803::1000
p11
aV2404:6800:4005:800::1005
p12
aV2404:6800:4006:804::1007
p13
aV2a00:1450:4001:c02::65
p14
aV2a00:1450:4001:800::1000
p15
aV2607:f8b0:400b:80b::100e
p16
aV2607:f8b0:400a:801::100e
p17
aV2a00:1450:4013:c00::71
p18
as.