(dp0
S'lh5.ggpht.com'
p1
(lp2
V2a00:1450:4013:c01::84
p3
aV2a00:1450:4017:801::100a
p4
aV2a00:1450:4002:801::100b
p5
aV2a00:1450:4002:802::100b
p6
aV2a00:1450:4013:c00::84
p7
aV2a00:1450:4016:801::100a
p8
aV2a00:1450:4005:808::100c
p9
aV2607:f8b0:400a:805::100b
p10
aV2a00:1450:4002:803::100c
p11
aV2404:6800:4005:800::100c
p12
aV2404:6800:4006:804::100c
p13
aV2a00:1450:4001:c02::84
p14
as.