(dp0
S'lh5.google.com'
p1
(lp2
V2a00:1450:4002:802::1007
p3
aV2a00:1450:4013:c00::64
p4
aV2a00:1450:4016:801::1009
p5
aV2607:f8b0:400a:805::1006
p6
aV2a00:1450:4001:800::1000
p7
aV2404:6800:4006:804::1003
p8
aV2a00:1450:4017:801::1001
p9
aV2404:6800:4005:800::1005
p10
as.