(dp0
S'm.youtube.com'
p1
(lp2
V2a00:1450:4002:802::1004
p3
aV2a00:1450:4013:c00::64
p4
aV2a00:1450:4016:801::1003
p5
aV2a00:1450:4005:808::1006
p6
aV2607:f8b0:4004:800::100e
p7
aV2404:6800:4005:800::1003
p8
aV2a00:1450:4017:801::1001
p9
aV2a00:1450:400d:803::1005
p10
aV2607:f8b0:400b:80b::1006
p11
aV2a00:1450:4013:c00::64
p12
aV2607:f8b0:400a:801::1005
p13
aV2a00:1450:4001:c02::65
p14
aV2a00:1450:4002:801::1005
p15
aV2a00:1450:4013:c01::8b
p16
aV2607:f8b0:400c:c03::65
p17
aV2a00:1450:4009:804::1001
p18
aV2607:f8b0:400a:805::1009
p19
aV2a00:1450:4002:803::100e
p20
aV2404:6800:4006:804::100e
p21
aV2607:f8b0:4009:800::1003
p22
aV2607:f8b0:4004:800::1005
p23
aV2a00:1450:4001:c02::66
p24
aV2a00:1450:4010:c08::8b
p25
as.