(dp0
S'maps.google.com.hk'
p1
(lp2
V2a00:1450:4002:802::100f
p3
aV2a00:1450:4017:801::1018
p4
aV2a00:1450:4013:c00::5e
p5
aV2a00:1450:4016:801::1018
p6
aV2607:f8b0:400c:c03::5e
p7
aV2607:f8b0:4004:800::101f
p8
aV2404:6800:4005:800::1018
p9
aV2a00:1450:400d:803::100f
p10
aV2607:f8b0:400b:80a::1017
p11
aV2a00:1450:4009:804::1017
p12
aV2a00:1450:4001:c02::5e
p13
aV2a00:1450:4002:801::1018
p14
aV2a00:1450:4013:c01::5e
p15
aV2a00:1450:4005:808::100f
p16
aV2a00:1450:4010:c08::5e
p17
aV2607:f8b0:400a:801::100f
p18
aV2607:f8b0:400a:805::101f
p19
aV2a00:1450:4002:803::1017
p20
aV2a00:1450:4013:c00::5e
p21
aV2404:6800:4006:804::1017
p22
aV2607:f8b0:4009:800::101f
p23
aV2607:f8b0:4004:800::1017
p24
aV2a00:1450:4001:c02::5e
p25
as.