(dp0
S'maps.google.com.tw'
p1
(lp2
V2a00:1450:4002:802::1017
p3
aV2a00:1450:4017:801::1018
p4
aV2a00:1450:4013:c00::5e
p5
aV2a00:1450:4016:801::1018
p6
aV2a00:1450:4005:808::1017
p7
aV2607:f8b0:4004:800::1018
p8
aV2404:6800:4005:800::1017
p9
aV2a00:1450:400d:803::100f
p10
aV2607:f8b0:400b:80a::101f
p11
aV2607:f8b0:400a:801::100f
p12
aV2a00:1450:4001:808::100f
p13
aV2a00:1450:4002:801::1018
p14
aV2a00:1450:4013:c01::5e
p15
aV2607:f8b0:400c:c03::5e
p16
aV2a00:1450:4010:c08::5e
p17
aV2a00:1450:4009:804::100f
p18
aV2607:f8b0:400a:805::1017
p19
aV2a00:1450:4002:803::101f
p20
aV2404:6800:4006:804::1017
p21
aV2607:f8b0:4009:800::101f
p22
aV2607:f8b0:4004:800::1017
p23
aV2a00:1450:4013:c00::5e
p24
aV2a00:1450:4001:c02::5e
p25
as.