(dp0
S'maps-api-ssl.google.com'
p1
(lp2
V2a00:1450:4002:802::1008
p3
aV2a00:1450:4017:801::1000
p4
aV2a00:1450:4013:c00::65
p5
aV2a00:1450:4016:801::100e
p6
aV2a00:1450:4005:808::1000
p7
aV2607:f8b0:4004:800::1009
p8
aV2404:6800:4005:800::1005
p9
aV2a00:1450:400d:805::1007
p10
aV2607:f8b0:400b:80a::1000
p11
aV2607:f8b0:400a:801::100e
p12
aV2a00:1450:4001:808::1000
p13
aV2a00:1450:4002:801::1004
p14
aV2a00:1450:4013:c01::66
p15
aV2607:f8b0:400c:c03::66
p16
aV2607:f8b0:400a:800::100e
p17
aV2a00:1450:4002:803::1009
p18
aV2404:6800:4006:804::1006
p19
aV2a00:1450:4013:c00::64
p20
aV2a00:1450:4001:c02::65
p21
as.