(dp0
S'maps-api-ssl.google.com'
p1
(lp2
V2a00:1450:4002:802::1003
p3
aV2a00:1450:4013:c01::65
p4
aV2a00:1450:4001:c02::66
p5
aV2a00:1450:4017:801::1000
p6
aV2607:f8b0:4004:800::100e
p7
aV2a00:1450:400d:803::100e
p8
aV2607:f8b0:4006:808::1007
p9
aV2a00:1450:4007:80a::1003
p10
aV2a00:1450:4013:c00::71
p11
aV2607:f8b0:4004:806::1005
p12
aV2607:f8b0:400a:802::1006
p13
aV2a00:1450:4002:803::1004
p14
aV2404:6800:4006:806::1004
p15
aV2607:f8b0:4001:c02::65
p16
aV2a00:1450:4013:c01::8a
p17
aV2a00:1450:4001:c02::8a
p18
as.