(dp0
S'maps.gstatic.com'
p1
(lp2
V2a00:1450:4002:802::101f
p3
aV2a00:1450:4017:801::1018
p4
aV2a00:1450:4013:c01::5e
p5
aV2a00:1450:4001:c02::5e
p6
aV2607:f8b0:4004:806::101f
p7
aV2607:f8b0:4004:800::1018
p8
aV2404:6800:4005:800::1017
p9
aV2a00:1450:400d:804::100f
p10
aV2607:f8b0:4006:808::101f
p11
aV2a00:1450:4007:80a::1017
p12
aV2a00:1450:4013:c00::5e
p13
aV2a00:1450:400c:c00::5e
p14
aV2a00:1450:4003:803::1018
p15
aV2a00:1450:400c:c00::5e
p16
aV2607:f8b0:400a:802::100f
p17
aV2404:6800:4006:806::100f
p18
aV2607:f8b0:4001:c02::5e
p19
aV2607:f8b0:4000:800::1017
p20
aV2a00:1450:4001:c02::5e
p21
aV2a00:1450:4013:c01::5e
p22
as.