(dp0
S'mobile.google.com.hk'
p1
(lp2
V2a00:1450:4002:802::1013
p3
aV2a00:1450:4013:c00::67
p4
aV2a00:1450:4001:c02::6a
p5
aV2a00:1450:400d:805::1014
p6
aV2a00:1450:4008:800::1010
p7
aV2607:f8b0:4004:800::1014
p8
aV2404:6800:4005:800::1012
p9
aV2a00:1450:4001:c02::68
p10
aV2607:f8b0:4009:806::1014
p11
aV2607:f8b0:400a:801::1014
p12
aV2a00:1450:4001:803::1010
p13
aV2a00:1450:4016:800::1011
p14
aV2a00:1450:4013:c01::93
p15
aV2607:f8b0:400c:c03::93
p16
aV2a00:1450:400c:c01::67
p17
aV2001:4860:400b:c01::68
p18
aV2a00:1450:4005:808::1013
p19
aV2404:6800:4006:804::1012
p20
aV2607:f8b0:4009:800::1013
p21
aV2607:f8b0:4004:800::1011
p22
aV2a00:1450:4001:c02::69
p23
aV2a00:1450:4010:c08::69
p24
as.