(dp0
S'mobile.google.com.hk'
p1
(lp2
V2a00:1450:4002:802::1011
p3
aV2a00:1450:4013:c01::6a
p4
aV2a00:1450:4001:c02::6a
p5
aV2a00:1450:400d:805::1010
p6
aV2607:f8b0:400c:c03::68
p7
aV2607:f8b0:4004:800::1013
p8
aV2404:6800:4005:800::1014
p9
aV2a00:1450:400d:804::1011
p10
aV2607:f8b0:4009:806::1012
p11
aV2a00:1450:4007:80a::1012
p12
aV2a00:1450:4013:c00::93
p13
aV2a00:1450:4001:801::1014
p14
aV2001:4860:400b:c01::67
p15
aV2a00:1450:4002:803::1014
p16
aV2404:6800:4006:806::1010
p17
aV2607:f8b0:4009:800::1010
p18
aV2607:f8b0:4004:800::1013
p19
aV2a00:1450:400c:c03::67
p20
aV2a00:1450:4007:805::1011
p21
aV2a00:1450:4005:808::1014
p22
as.