(dp0
S'mobile.google.com'
p1
(lp2
V2a00:1450:4001:c02::c1
p3
aV2a00:1450:4013:c00::c1
p4
aV2a00:1450:4001:c02::c1
p5
aV2a00:1450:4001:c02::c1
p6
aV2a00:1450:4001:c02::c1
p7
aV2607:f8b0:400d:c03::c1
p8
aV2404:6800:4008:c04::c1
p9
aV2a00:1450:4001:c02::c1
p10
aV2607:f8b0:4001:c05::c1
p11
aV2607:f8b0:400e:c01::c1
p12
aV2a00:1450:4013:c00::c1
p13
aV2a00:1450:4001:c02::c1
p14
aV2a00:1450:4013:c01::c1
p15
aV2607:f8b0:400c:c03::c1
p16
aV2a00:1450:400c:c01::c1
p17
aV2001:4860:400b:c01::c1
p18
aV2a00:1450:4013:c00::c1
p19
aV2404:6800:4008:c01::c1
p20
aV2607:f8b0:4001:c02::c1
p21
aV2607:f8b0:400d:c03::c1
p22
aV2a00:1450:4001:c02::c1
p23
aV2a00:1450:4010:c08::c1
p24
as.