(dp0
S'mt.google.cn'
p1
(lp2
V2a00:1450:4001:c02::a0
p3
aV2a00:1450:4013:c00::a0
p4
aV2a00:1450:4001:c02::a0
p5
aV2a00:1450:4001:c02::a0
p6
aV2607:f8b0:400d:c03::a0
p7
aV2607:f8b0:400d:c04::a0
p8
aV2404:6800:4008:c01::a0
p9
aV2a00:1450:4001:c02::a0
p10
aV2607:f8b0:400d:c04::a0
p11
aV2a00:1450:400c:c00::a0
p12
aV2a00:1450:4013:c01::a0
p13
aV2a00:1450:400c:c04::a0
p14
aV2a00:1450:400c:c03::a0
p15
aV2a00:1450:400c:c05::a0
p16
aV2607:f8b0:400e:c04::a0
p17
aV2a00:1450:4001:c02::a0
p18
aV2404:6800:4008:c04::a0
p19
aV2607:f8b0:4001:c07::a0
p20
aV2607:f8b0:4003:c01::a0
p21
aV2a00:1450:4001:c02::a0
p22
aV2a00:1450:4013:c01::a0
p23
as.