(dp0
S'mt.l.google.com'
p1
(lp2
V2a00:1450:4002:802::1008
p3
aV2a00:1450:4017:801::1000
p4
aV2a00:1450:4013:c00::8a
p5
aV2a00:1450:4016:801::1000
p6
aV2a00:1450:4005:808::100e
p7
aV2607:f8b0:4004:800::1004
p8
aV2404:6800:4005:800::1004
p9
aV2a00:1450:400d:803::1001
p10
aV2607:f8b0:400b:80a::1008
p11
aV2607:f8b0:400a:801::100e
p12
aV2a00:1450:4001:802::1001
p13
aV2a00:1450:4002:801::1001
p14
aV2a00:1450:4013:c01::65
p15
aV2607:f8b0:400c:c03::8b
p16
aV2a00:1450:4009:804::1008
p17
aV2607:f8b0:400a:800::1001
p18
aV2a00:1450:4002:803::1008
p19
aV2a00:1450:4013:c00::8b
p20
aV2404:6800:4006:804::1004
p21
aV2607:f8b0:4009:800::1001
p22
aV2607:f8b0:4004:800::1000
p23
aV2a00:1450:4001:c02::66
p24
aV2a00:1450:4010:c08::64
p25
as.