(dp0
S'mt0.googleapis.com'
p1
(lp2
V2a00:1450:4002:802::1005
p3
aV2a00:1450:4013:c01::8b
p4
aV2a00:1450:4001:c02::66
p5
aV2a00:1450:4017:801::1002
p6
aV2607:f8b0:4004:806::1000
p7
aV2607:f8b0:4004:800::1008
p8
aV2404:6800:4005:800::1003
p9
aV2a00:1450:400d:805::1009
p10
aV2607:f8b0:4006:808::1000
p11
aV2a00:1450:4007:80a::1003
p12
aV2a00:1450:4013:c00::71
p13
aV2a00:1450:400c:c00::64
p14
aV2a00:1450:4003:803::1008
p15
aV2a00:1450:400c:c00::64
p16
aV2607:f8b0:400a:802::1009
p17
aV2a00:1450:4002:803::1004
p18
aV2404:6800:4006:806::1005
p19
aV2607:f8b0:4001:c02::8b
p20
aV2607:f8b0:4000:800::1009
p21
aV2a00:1450:4013:c01::71
p22
aV2a00:1450:4001:c02::64
p23
as.