(dp0
S'mt1.gstatic.com'
p1
(lp2
V2a00:1450:4002:802::1002
p3
aV2a00:1450:4013:c00::71
p4
aV2a00:1450:4016:801::1005
p5
aV2a00:1450:4017:801::1002
p6
aV2a00:1450:4005:808::1004
p7
aV2404:6800:4005:800::1007
p8
aV2a00:1450:400d:802::100e
p9
aV2607:f8b0:400b:80b::1007
p10
aV2607:f8b0:400a:801::1002
p11
aV2a00:1450:4001:80e::1009
p12
aV2a00:1450:4002:801::1005
p13
aV2a00:1450:4013:c01::8b
p14
aV2607:f8b0:400c:c03::8a
p15
aV2a00:1450:4009:804::100e
p16
aV2607:f8b0:400a:800::100e
p17
aV2a00:1450:4002:803::1001
p18
aV2404:6800:4006:804::1000
p19
aV2607:f8b0:4009:800::1007
p20
aV2607:f8b0:4004:800::1007
p21
aV2a00:1450:4001:c02::66
p22
aV2a00:1450:4013:c00::66
p23
aV2a00:1450:4010:c08::65
p24
as.