(dp0
S'mt1.google.com'
p1
(lp2
V2a00:1450:4002:802::1003
p3
aV2a00:1450:4013:c01::64
p4
aV2a00:1450:4001:c02::65
p5
aV2a00:1450:4017:801::1008
p6
aV2a00:1450:400c:c00::66
p7
aV2607:f8b0:4004:800::1006
p8
aV2404:6800:4005:800::1004
p9
aV2a00:1450:400d:804::1009
p10
aV2607:f8b0:4006:808::1000
p11
aV2a00:1450:4007:80a::1003
p12
aV2a00:1450:4013:c00::71
p13
aV2607:f8b0:400a:802::1005
p14
aV2a00:1450:4002:803::1001
p15
aV2404:6800:4006:806::1002
p16
aV2607:f8b0:4001:c02::8b
p17
aV2a00:1450:4013:c01::66
p18
aV2a00:1450:4001:c02::8b
p19
as.