(dp0
S'mt2.gstatic.com'
p1
(lp2
V2a00:1450:4002:802::1006
p3
aV2a00:1450:4013:c00::66
p4
aV2a00:1450:4016:801::1009
p5
aV2a00:1450:4017:801::1004
p6
aV2a00:1450:4005:808::1001
p7
aV2a00:1450:400d:802::1000
p8
aV2607:f8b0:400b:80b::1004
p9
aV2607:f8b0:400a:801::1008
p10
aV2a00:1450:4001:c02::64
p11
aV2a00:1450:4002:801::1008
p12
aV2a00:1450:4013:c01::71
p13
aV2607:f8b0:400c:c03::8b
p14
aV2a00:1450:4009:804::1009
p15
aV2607:f8b0:400a:800::100e
p16
aV2a00:1450:4002:803::1000
p17
aV2a00:1450:4013:c00::8b
p18
aV2404:6800:4006:804::1001
p19
aV2607:f8b0:4009:800::1006
p20
aV2607:f8b0:4004:800::1004
p21
aV2a00:1450:4001:c02::66
p22
aV2a00:1450:4010:c08::66
p23
as.