(dp0
S'mt6.gstatic.com'
p1
(lp2
V2a00:1450:4002:802::1001
p3
aV2a00:1450:4017:801::1004
p4
aV2a00:1450:4013:c00::71
p5
aV2a00:1450:4016:801::1003
p6
aV2a00:1450:4005:808::1001
p7
aV2607:f8b0:4004:800::1005
p8
aV2404:6800:4005:800::1006
p9
aV2a00:1450:400d:805::1006
p10
aV2607:f8b0:400b:80b::1006
p11
aV2607:f8b0:400a:801::1002
p12
aV2a00:1450:4001:80f::1004
p13
aV2a00:1450:4002:801::1005
p14
aV2a00:1450:4013:c01::66
p15
aV2607:f8b0:400c:c03::8a
p16
aV2a00:1450:4009:804::1001
p17
aV2607:f8b0:400a:805::1008
p18
aV2a00:1450:4013:c00::71
p19
aV2404:6800:4006:804::100e
p20
aV2607:f8b0:4009:800::1001
p21
aV2607:f8b0:4004:800::1005
p22
aV2a00:1450:4001:c02::8b
p23
aV2a00:1450:4010:c08::65
p24
as.