(dp0
S'mtalk.google.com'
p1
(lp2
V2a00:1450:4013:c01::bc
p3
aV2a00:1450:4008:c01::bc
p4
aV2a00:1450:4013:c01::bc
p5
aV2a00:1450:4013:c01::bc
p6
aV2a00:1450:4013:c01::bc
p7
aV2607:f8b0:400d:c01::bc
p8
aV2404:6800:4008:c04::bc
p9
aV2a00:1450:4008:c01::bc
p10
aV2607:f8b0:4001:c07::bc
p11
aV2607:f8b0:400e:c04::bc
p12
aV2a00:1450:4013:c01::bc
p13
aV2a00:1450:4013:c01::bc
p14
aV2a00:1450:4013:c01::bc
p15
aV2607:f8b0:400c:c03::bc
p16
aV2a00:1450:4013:c00::bc
p17
aV2a00:1450:400c:c03::bc
p18
aV2607:f8b0:400e:c04::bc
p19
aV2a00:1450:4013:c00::bc
p20
aV2404:6800:4008:c01::bc
p21
aV2607:f8b0:4001:c07::bc
p22
aV2607:f8b0:400d:c06::bc
p23
aV2a00:1450:4008:c01::bc
p24
aV2a00:1450:4010:c08::bc
p25
as.