(dp0
S'mts.l.google.com'
p1
(lp2
V2a00:1450:4002:802::1006
p3
aV2a00:1450:4017:801::1009
p4
aV2a00:1450:4013:c00::8b
p5
aV2a00:1450:4016:801::1009
p6
aV2a00:1450:4005:808::100e
p7
aV2607:f8b0:4004:800::1005
p8
aV2404:6800:4005:800::1001
p9
aV2a00:1450:400d:803::1006
p10
aV2607:f8b0:400b:80a::1000
p11
aV2607:f8b0:400a:801::1001
p12
aV2a00:1450:4001:802::1000
p13
aV2a00:1450:4002:801::100e
p14
aV2a00:1450:4013:c01::8b
p15
aV2607:f8b0:400c:c03::8b
p16
aV2a00:1450:4009:804::1005
p17
aV2607:f8b0:400a:805::1005
p18
aV2a00:1450:4002:803::100e
p19
aV2a00:1450:4013:c00::8b
p20
aV2404:6800:4006:804::1000
p21
aV2607:f8b0:4009:800::1005
p22
aV2607:f8b0:4004:800::1007
p23
aV2a00:1450:4001:c02::71
p24
aV2a00:1450:4010:c08::66
p25
as.