(dp0
S'music-streaming.l.google.com'
p1
(lp2
V2a00:1450:4001:c02::75
p3
aV2a00:1450:4013:c00::74
p4
aV2a00:1450:4001:c02::75
p5
aV2a00:1450:4001:c02::75
p6
aV2a00:1450:4001:c02::75
p7
aV2607:f8b0:400d:c03::75
p8
aV2404:6800:4008:c04::74
p9
aV2a00:1450:4001:c02::75
p10
aV2607:f8b0:4001:c05::74
p11
aV2607:f8b0:400e:c01::75
p12
aV2a00:1450:4013:c00::75
p13
aV2a00:1450:4001:c02::75
p14
aV2a00:1450:4013:c01::75
p15
aV2607:f8b0:400c:c03::74
p16
aV2a00:1450:400c:c01::75
p17
aV2001:4860:400b:c01::74
p18
aV2a00:1450:4001:c02::75
p19
aV2a00:1450:4013:c00::74
p20
aV2404:6800:4008:c01::74
p21
aV2607:f8b0:4001:c02::75
p22
aV2607:f8b0:400d:c03::75
p23
aV2a00:1450:4001:c02::75
p24
aV2a00:1450:4010:c08::75
p25
as.