(dp0
S'news.google.com.hk'
p1
(lp2
V2a00:1450:4002:802::100f
p3
aV2a00:1450:4017:801::1017
p4
aV2a00:1450:4013:c01::5e
p5
aV2a00:1450:4001:c02::5e
p6
aV2a00:1450:400c:c00::5e
p7
aV2607:f8b0:4004:800::100f
p8
aV2404:6800:4005:800::100f
p9
aV2a00:1450:400d:802::1018
p10
aV2607:f8b0:4006:808::101f
p11
aV2a00:1450:4007:80a::1017
p12
aV2a00:1450:4013:c00::5e
p13
aV2607:f8b0:4004:806::1018
p14
aV2a00:1450:4003:803::1018
p15
aV2a00:1450:400c:c00::5e
p16
aV2607:f8b0:400a:802::101f
p17
aV2a00:1450:4002:803::1017
p18
aV2404:6800:4006:806::1017
p19
aV2607:f8b0:4001:c02::5e
p20
aV2607:f8b0:4000:800::101f
p21
aV2a00:1450:4013:c01::5e
p22
aV2a00:1450:4001:c02::5e
p23
as.