(dp0
S'pack.google.cn'
p1
(lp2
V2a00:1450:4002:802::1011
p3
aV2a00:1450:4017:801::1014
p4
aV2a00:1450:4013:c01::67
p5
aV2a00:1450:4001:c02::69
p6
aV2607:f8b0:4004:806::1014
p7
aV2607:f8b0:4004:800::1012
p8
aV2404:6800:4005:800::1010
p9
aV2a00:1450:400d:803::1014
p10
aV2607:f8b0:4006:808::1010
p11
aV2a00:1450:4007:80a::1011
p12
aV2a00:1450:4013:c00::69
p13
aV2a00:1450:400c:c00::68
p14
aV2a00:1450:4003:803::1011
p15
aV2a00:1450:400c:c00::67
p16
aV2607:f8b0:400a:802::1011
p17
aV2a00:1450:4002:803::1014
p18
aV2404:6800:4006:806::1012
p19
aV2607:f8b0:4001:c02::93
p20
aV2607:f8b0:4000:800::1014
p21
aV2a00:1450:4001:c02::68
p22
aV2a00:1450:4013:c01::63
p23
as.