(dp0
S'photos.google.com'
p1
(lp2
V2a00:1450:4002:802::1008
p3
aV2a00:1450:4017:801::1003
p4
aV2a00:1450:4013:c01::be
p5
aV2a00:1450:4001:c02::88
p6
aV2607:f8b0:4004:806::1008
p7
aV2607:f8b0:4004:800::100e
p8
aV2404:6800:4005:800::1001
p9
aV2a00:1450:400d:803::1009
p10
aV2607:f8b0:4006:808::1005
p11
aV2a00:1450:4007:80a::1008
p12
aV2a00:1450:4013:c00::5b
p13
aV2a00:1450:400c:c00::5d
p14
aV2a00:1450:400c:c00::88
p15
aV2607:f8b0:400a:802::1004
p16
aV2a00:1450:4002:803::1004
p17
aV2404:6800:4006:806::1008
p18
aV2607:f8b0:4001:c02::be
p19
aV2607:f8b0:4000:800::1006
p20
aV2a00:1450:4001:c02::be
p21
aV2a00:1450:4013:c01::be
p22
aV2a00:1450:4003:803::1006
p23
as.