(dp0
S'picasa.google.com'
p1
(lp2
V2a00:1450:4002:802::1013
p3
aV2a00:1450:4013:c00::68
p4
aV2a00:1450:4016:801::1014
p5
aV2404:6800:4005:800::1010
p6
aV2607:f8b0:400a:805::1013
p7
aV2a00:1450:4001:80b::1014
p8
aV2404:6800:4006:804::1011
p9
aV2a00:1450:4017:801::1012
p10
as.