(dp0
S'picasaweb.google.com.tw'
p1
(lp2
V2a00:1450:4002:802::1006
p3
aV2a00:1450:4017:801::1002
p4
aV2a00:1450:4013:c00::be
p5
aV2a00:1450:4016:801::1006
p6
aV2a00:1450:4005:808::1004
p7
aV2607:f8b0:4004:800::1003
p8
aV2404:6800:4005:800::1000
p9
aV2a00:1450:400d:803::100e
p10
aV2607:f8b0:400b:80b::1000
p11
aV2607:f8b0:400a:801::1001
p12
aV2a00:1450:4001:c02::88
p13
aV2a00:1450:4002:801::1004
p14
aV2a00:1450:4013:c01::88
p15
aV2607:f8b0:400c:c03::5b
p16
aV2a00:1450:4013:c00::be
p17
aV2a00:1450:4009:804::1006
p18
aV2607:f8b0:400a:800::1000
p19
aV2a00:1450:4002:803::1004
p20
aV2404:6800:4006:804::1001
p21
aV2607:f8b0:4009:800::1008
p22
aV2607:f8b0:4004:800::1003
p23
aV2a00:1450:4001:c02::5d
p24
aV2a00:1450:4010:c08::88
p25
as.