(dp0
S'picasaweb.l.google.com'
p1
(lp2
V2a00:1450:4002:802::100e
p3
aV2607:f8b0:4004:806::100e
p4
aV2a00:1450:4007:80a::1008
p5
aV2a00:1450:4013:c01::5b
p6
aV2a00:1450:4001:c02::88
p7
aV2a00:1450:4017:801::1000
p8
aV2a00:1450:4013:c00::5b
p9
aV2607:f8b0:4004:800::100e
p10
aV2a00:1450:400c:c00::5d
p11
aV2a00:1450:4003:803::1003
p12
aV2607:f8b0:400a:802::1004
p13
aV2a00:1450:4002:803::1003
p14
aV2404:6800:4005:800::1000
p15
aV2404:6800:4006:806::1004
p16
aV2a00:1450:400d:805::100e
p17
aV2607:f8b0:4001:c02::5b
p18
aV2a00:1450:4001:c02::5d
p19
aV2607:f8b0:4006:808::1006
p20
aV2a00:1450:4013:c01::88
p21
as.