(dp0
S'profiles.google.com'
p1
(lp2
V2a00:1450:4002:802::1003
p3
aV2a00:1450:4017:801::1008
p4
aV2a00:1450:4013:c00::8b
p5
aV2a00:1450:4016:801::1009
p6
aV2607:f8b0:400c:c03::66
p7
aV2607:f8b0:4004:800::1003
p8
aV2404:6800:4005:800::1004
p9
aV2a00:1450:400d:802::1001
p10
aV2607:f8b0:400b:80a::1009
p11
aV2607:f8b0:400a:801::1000
p12
aV2a00:1450:4001:c02::66
p13
aV2a00:1450:4002:801::1009
p14
aV2a00:1450:4013:c01::8b
p15
aV2a00:1450:4005:808::1009
p16
aV2a00:1450:4010:c08::8a
p17
aV2a00:1450:4009:804::1008
p18
aV2607:f8b0:400a:805::1000
p19
aV2a00:1450:4002:803::1000
p20
aV2a00:1450:4013:c00::71
p21
aV2404:6800:4006:804::1006
p22
aV2607:f8b0:4009:800::1008
p23
aV2607:f8b0:4004:800::1006
p24
aV2a00:1450:4001:c02::66
p25
as.