(dp0
S'r1---sn-o097znes.googlevideo.com'
p1
(lp2
V2001:4860:4001:10::6
p3
aV2001:4860:4001:10::6
p4
aV2001:4860:4001:10::6
p5
aV2001:4860:4001:10::6
p6
aV2001:4860:4001:10::6
p7
aV2001:4860:4001:10::6
p8
aV2001:4860:4001:10::6
p9
aV2001:4860:4001:10::6
p10
aV2001:4860:4001:10::6
p11
aV2001:4860:4001:10::6
p12
aV2001:4860:4001:10::6
p13
aV2001:4860:4001:10::6
p14
aV2001:4860:4001:10::6
p15
aV2001:4860:4001:10::6
p16
aV2001:4860:4001:10::6
p17
aV2001:4860:4001:10::6
p18
aV2001:4860:4001:10::6
p19
aV2001:4860:4001:10::6
p20
aV2001:4860:4001:10::6
p21
aV2001:4860:4001:10::6
p22
aV2001:4860:4001:10::6
p23
as.