(dp0
S'r1---sn-a8au-naje.googlevideo.com'
p1
(lp2
V2001:1900:2200:20::c
p3
aV2001:1900:2200:20::c
p4
aV2001:1900:2200:20::c
p5
aV2001:1900:2200:20::c
p6
aV2001:1900:2200:20::c
p7
aV2001:1900:2200:20::c
p8
aV2001:1900:2200:20::c
p9
aV2001:1900:2200:20::c
p10
aV2001:1900:2200:20::c
p11
aV2001:1900:2200:20::c
p12
aV2001:1900:2200:20::c
p13
aV2001:1900:2200:20::c
p14
aV2001:1900:2200:20::c
p15
aV2001:1900:2200:20::c
p16
aV2001:1900:2200:20::c
p17
aV2001:1900:2200:20::c
p18
aV2001:1900:2200:20::c
p19
aV2001:1900:2200:20::c
p20
aV2001:1900:2200:20::c
p21
aV2001:1900:2200:20::c
p22
aV2001:1900:2200:20::c
p23
aV2001:1900:2200:20::c
p24
as.