(dp0
S'r1---sn-a5m7lnes.googlevideo.com'
p1
(lp2
V2607:f8b0:4007:16::6
p3
aV2607:f8b0:4007:16::6
p4
aV2607:f8b0:4007:16::6
p5
aV2607:f8b0:4007:16::6
p6
aV2607:f8b0:4007:16::6
p7
aV2607:f8b0:4007:16::6
p8
aV2607:f8b0:4007:16::6
p9
aV2607:f8b0:4007:16::6
p10
aV2607:f8b0:4007:16::6
p11
aV2607:f8b0:4007:16::6
p12
aV2607:f8b0:4007:16::6
p13
aV2607:f8b0:4007:16::6
p14
aV2607:f8b0:4007:16::6
p15
aV2607:f8b0:4007:16::6
p16
aV2607:f8b0:4007:16::6
p17
aV2607:f8b0:4007:16::6
p18
aV2607:f8b0:4007:16::6
p19
aV2607:f8b0:4007:16::6
p20
aV2607:f8b0:4007:16::6
p21
aV2607:f8b0:4007:16::6
p22
as.