(dp0
S'r1.hkg03s07.googlevideo.com'
p1
(lp2
V2404:6800:4005:6::6
p3
aV2404:6800:4005:6::6
p4
aV2404:6800:4005:6::6
p5
aV2404:6800:4005:6::6
p6
aV2404:6800:4005:6::6
p7
aV2404:6800:4005:6::6
p8
aV2404:6800:4005:6::6
p9
aV2404:6800:4005:6::6
p10
aV2404:6800:4005:6::6
p11
aV2404:6800:4005:6::6
p12
aV2404:6800:4005:6::6
p13
aV2404:6800:4005:6::6
p14
aV2404:6800:4005:6::6
p15
aV2404:6800:4005:6::6
p16
aV2404:6800:4005:6::6
p17
aV2404:6800:4005:6::6
p18
aV2404:6800:4005:6::6
p19
aV2404:6800:4005:6::6
p20
aV2404:6800:4005:6::6
p21
aV2404:6800:4005:6::6
p22
aV2404:6800:4005:6::6
p23
aV2404:6800:4005:6::6
p24
aV2404:6800:4005:6::6
p25
as.