(dp0
S'r10.tpe05s03.c.youtube.com'
p1
(lp2
V2404:6800:4008:2::f
p3
aV2404:6800:4008:2::f
p4
aV2404:6800:4008:2::f
p5
aV2404:6800:4008:2::f
p6
aV2404:6800:4008:2::f
p7
aV2404:6800:4008:2::f
p8
aV2404:6800:4008:2::f
p9
aV2404:6800:4008:2::f
p10
aV2404:6800:4008:2::f
p11
aV2404:6800:4008:2::f
p12
aV2404:6800:4008:2::f
p13
aV2404:6800:4008:2::f
p14
aV2404:6800:4008:2::f
p15
aV2404:6800:4008:2::f
p16
aV2404:6800:4008:2::f
p17
aV2404:6800:4008:2::f
p18
aV2404:6800:4008:2::f
p19
aV2404:6800:4008:2::f
p20
aV2404:6800:4008:2::f
p21
aV2404:6800:4008:2::f
p22
aV2404:6800:4008:2::f
p23
as.