(dp0
S'r11.hkg03s07.c.bigcache.googleapis.com'
p1
(lp2
V2404:6800:4005:6::10
p3
aV2404:6800:4005:6::10
p4
aV2404:6800:4005:6::10
p5
aV2404:6800:4005:6::10
p6
aV2404:6800:4005:6::10
p7
aV2404:6800:4005:6::10
p8
aV2404:6800:4005:6::10
p9
aV2404:6800:4005:6::10
p10
aV2404:6800:4005:6::10
p11
aV2404:6800:4005:6::10
p12
aV2404:6800:4005:6::10
p13
aV2404:6800:4005:6::10
p14
aV2404:6800:4005:6::10
p15
aV2404:6800:4005:6::10
p16
aV2404:6800:4005:6::10
p17
aV2404:6800:4005:6::10
p18
aV2404:6800:4005:6::10
p19
aV2404:6800:4005:6::10
p20
aV2404:6800:4005:6::10
p21
aV2404:6800:4005:6::10
p22
aV2404:6800:4005:6::10
p23
as.