(dp0
S'r12---sn-o097znes.googlevideo.com'
p1
(lp2
V2001:4860:4001:10::11
p3
aV2001:4860:4001:10::11
p4
aV2001:4860:4001:10::11
p5
aV2001:4860:4001:10::11
p6
aV2001:4860:4001:10::11
p7
aV2001:4860:4001:10::11
p8
aV2001:4860:4001:10::11
p9
aV2001:4860:4001:10::11
p10
aV2001:4860:4001:10::11
p11
aV2001:4860:4001:10::11
p12
aV2001:4860:4001:10::11
p13
aV2001:4860:4001:10::11
p14
aV2001:4860:4001:10::11
p15
aV2001:4860:4001:10::11
p16
aV2001:4860:4001:10::11
p17
aV2001:4860:4001:10::11
p18
aV2001:4860:4001:10::11
p19
aV2001:4860:4001:10::11
p20
aV2001:4860:4001:10::11
p21
aV2001:4860:4001:10::11
p22
as.