(dp0
S'r12.hkg03s08.c.bigcache.googleapis.com'
p1
(lp2
V2404:6800:4005:7::11
p3
aV2404:6800:4005:7::11
p4
aV2404:6800:4005:7::11
p5
aV2404:6800:4005:7::11
p6
aV2404:6800:4005:7::11
p7
aV2404:6800:4005:7::11
p8
aV2404:6800:4005:7::11
p9
aV2404:6800:4005:7::11
p10
aV2404:6800:4005:7::11
p11
aV2404:6800:4005:7::11
p12
aV2404:6800:4005:7::11
p13
aV2404:6800:4005:7::11
p14
aV2404:6800:4005:7::11
p15
aV2404:6800:4005:7::11
p16
aV2404:6800:4005:7::11
p17
aV2404:6800:4005:7::11
p18
aV2404:6800:4005:7::11
p19
aV2404:6800:4005:7::11
p20
aV2404:6800:4005:7::11
p21
aV2404:6800:4005:7::11
p22
aV2404:6800:4005:7::11
p23
as.