(dp0
S'r13.maa03s09.googlevideo.com'
p1
(lp2
V2404:6800:4007:1::12
p3
aV2404:6800:4007:1::12
p4
aV2404:6800:4007:1::12
p5
aV2404:6800:4007:1::12
p6
aV2404:6800:4007:1::12
p7
aV2404:6800:4007:1::12
p8
aV2404:6800:4007:1::12
p9
aV2404:6800:4007:1::12
p10
aV2404:6800:4007:1::12
p11
aV2404:6800:4007:1::12
p12
aV2404:6800:4007:1::12
p13
aV2404:6800:4007:1::12
p14
aV2404:6800:4007:1::12
p15
aV2404:6800:4007:1::12
p16
aV2404:6800:4007:1::12
p17
aV2404:6800:4007:1::12
p18
aV2404:6800:4007:1::12
p19
aV2404:6800:4007:1::12
p20
aV2404:6800:4007:1::12
p21
aV2404:6800:4007:1::12
p22
aV2404:6800:4007:1::12
p23
aV2404:6800:4007:1::12
p24
aV2404:6800:4007:1::12
p25
as.