(dp0
S'r15---sn-o097znes.googlevideo.com'
p1
(lp2
V2001:4860:4001:10::14
p3
aV2001:4860:4001:10::14
p4
aV2001:4860:4001:10::14
p5
aV2001:4860:4001:10::14
p6
aV2001:4860:4001:10::14
p7
aV2001:4860:4001:10::14
p8
aV2001:4860:4001:10::14
p9
aV2001:4860:4001:10::14
p10
aV2001:4860:4001:10::14
p11
aV2001:4860:4001:10::14
p12
aV2001:4860:4001:10::14
p13
aV2001:4860:4001:10::14
p14
aV2001:4860:4001:10::14
p15
aV2001:4860:4001:10::14
p16
aV2001:4860:4001:10::14
p17
aV2001:4860:4001:10::14
p18
aV2001:4860:4001:10::14
p19
aV2001:4860:4001:10::14
p20
aV2001:4860:4001:10::14
p21
aV2001:4860:4001:10::14
p22
aV2001:4860:4001:10::14
p23
aV2001:4860:4001:10::14
p24
as.