(dp0
S'r16.hkg03s05.c.bigcache.googleapis.com'
p1
(lp2
V2404:6800:4005:4::15
p3
aV2404:6800:4005:4::15
p4
aV2404:6800:4005:4::15
p5
aV2404:6800:4005:4::15
p6
aV2404:6800:4005:4::15
p7
aV2404:6800:4005:4::15
p8
aV2404:6800:4005:4::15
p9
aV2404:6800:4005:4::15
p10
aV2404:6800:4005:4::15
p11
aV2404:6800:4005:4::15
p12
aV2404:6800:4005:4::15
p13
aV2404:6800:4005:4::15
p14
aV2404:6800:4005:4::15
p15
aV2404:6800:4005:4::15
p16
aV2404:6800:4005:4::15
p17
aV2404:6800:4005:4::15
p18
aV2404:6800:4005:4::15
p19
aV2404:6800:4005:4::15
p20
aV2404:6800:4005:4::15
p21
aV2404:6800:4005:4::15
p22
aV2404:6800:4005:4::15
p23
as.