(dp0
S'r17---sn-o097znes.googlevideo.com'
p1
(lp2
V2001:4860:4001:10::16
p3
aV2001:4860:4001:10::16
p4
aV2001:4860:4001:10::16
p5
aV2001:4860:4001:10::16
p6
aV2001:4860:4001:10::16
p7
aV2001:4860:4001:10::16
p8
aV2001:4860:4001:10::16
p9
aV2001:4860:4001:10::16
p10
aV2001:4860:4001:10::16
p11
aV2001:4860:4001:10::16
p12
aV2001:4860:4001:10::16
p13
aV2001:4860:4001:10::16
p14
aV2001:4860:4001:10::16
p15
aV2001:4860:4001:10::16
p16
aV2001:4860:4001:10::16
p17
aV2001:4860:4001:10::16
p18
aV2001:4860:4001:10::16
p19
aV2001:4860:4001:10::16
p20
aV2001:4860:4001:10::16
p21
aV2001:4860:4001:10::16
p22
aV2001:4860:4001:10::16
p23
aV2001:4860:4001:10::16
p24
as.