(dp0
S'r17.hkg03s05.c.youtube.com'
p1
(lp2
V2404:6800:4005:4::16
p3
aV2404:6800:4005:4::16
p4
aV2404:6800:4005:4::16
p5
aV2404:6800:4005:4::16
p6
aV2404:6800:4005:4::16
p7
aV2404:6800:4005:4::16
p8
aV2404:6800:4005:4::16
p9
aV2404:6800:4005:4::16
p10
aV2404:6800:4005:4::16
p11
aV2404:6800:4005:4::16
p12
aV2404:6800:4005:4::16
p13
aV2404:6800:4005:4::16
p14
aV2404:6800:4005:4::16
p15
aV2404:6800:4005:4::16
p16
aV2404:6800:4005:4::16
p17
aV2404:6800:4005:4::16
p18
aV2404:6800:4005:4::16
p19
aV2404:6800:4005:4::16
p20
aV2404:6800:4005:4::16
p21
aV2404:6800:4005:4::16
p22
aV2404:6800:4005:4::16
p23
as.