(dp0
S'r18---sn-o097znes.googlevideo.com'
p1
(lp2
V2001:4860:4001:10::17
p3
aV2001:4860:4001:10::17
p4
aV2001:4860:4001:10::17
p5
aV2001:4860:4001:10::17
p6
aV2001:4860:4001:10::17
p7
aV2001:4860:4001:10::17
p8
aV2001:4860:4001:10::17
p9
aV2001:4860:4001:10::17
p10
aV2001:4860:4001:10::17
p11
aV2001:4860:4001:10::17
p12
aV2001:4860:4001:10::17
p13
aV2001:4860:4001:10::17
p14
aV2001:4860:4001:10::17
p15
aV2001:4860:4001:10::17
p16
aV2001:4860:4001:10::17
p17
aV2001:4860:4001:10::17
p18
aV2001:4860:4001:10::17
p19
aV2001:4860:4001:10::17
p20
aV2001:4860:4001:10::17
p21
aV2001:4860:4001:10::17
p22
aV2001:4860:4001:10::17
p23
aV2001:4860:4001:10::17
p24
as.