(dp0
S'r18.hkg03s06.c.bigcache.googleapis.com'
p1
(lp2
V2404:6800:4005:5::17
p3
aV2404:6800:4005:5::17
p4
aV2404:6800:4005:5::17
p5
aV2404:6800:4005:5::17
p6
aV2404:6800:4005:5::17
p7
aV2404:6800:4005:5::17
p8
aV2404:6800:4005:5::17
p9
aV2404:6800:4005:5::17
p10
aV2404:6800:4005:5::17
p11
aV2404:6800:4005:5::17
p12
aV2404:6800:4005:5::17
p13
aV2404:6800:4005:5::17
p14
aV2404:6800:4005:5::17
p15
aV2404:6800:4005:5::17
p16
aV2404:6800:4005:5::17
p17
aV2404:6800:4005:5::17
p18
aV2404:6800:4005:5::17
p19
aV2404:6800:4005:5::17
p20
aV2404:6800:4005:5::17
p21
aV2404:6800:4005:5::17
p22
aV2404:6800:4005:5::17
p23
aV2404:6800:4005:5::17
p24
aV2404:6800:4005:5::17
p25
as.