(dp0
S'r19---sn-o097znes.googlevideo.com'
p1
(lp2
V2001:4860:4001:10::18
p3
aV2001:4860:4001:10::18
p4
aV2001:4860:4001:10::18
p5
aV2001:4860:4001:10::18
p6
aV2001:4860:4001:10::18
p7
aV2001:4860:4001:10::18
p8
aV2001:4860:4001:10::18
p9
aV2001:4860:4001:10::18
p10
aV2001:4860:4001:10::18
p11
aV2001:4860:4001:10::18
p12
aV2001:4860:4001:10::18
p13
aV2001:4860:4001:10::18
p14
aV2001:4860:4001:10::18
p15
aV2001:4860:4001:10::18
p16
aV2001:4860:4001:10::18
p17
aV2001:4860:4001:10::18
p18
aV2001:4860:4001:10::18
p19
aV2001:4860:4001:10::18
p20
aV2001:4860:4001:10::18
p21
aV2001:4860:4001:10::18
p22
as.