(dp0
S'r19.hkg03s08.googlevideo.com'
p1
(lp2
V2404:6800:4005:7::18
p3
aV2404:6800:4005:7::18
p4
aV2404:6800:4005:7::18
p5
aV2404:6800:4005:7::18
p6
aV2404:6800:4005:7::18
p7
aV2404:6800:4005:7::18
p8
aV2404:6800:4005:7::18
p9
aV2404:6800:4005:7::18
p10
aV2404:6800:4005:7::18
p11
aV2404:6800:4005:7::18
p12
aV2404:6800:4005:7::18
p13
aV2404:6800:4005:7::18
p14
aV2404:6800:4005:7::18
p15
aV2404:6800:4005:7::18
p16
aV2404:6800:4005:7::18
p17
aV2404:6800:4005:7::18
p18
aV2404:6800:4005:7::18
p19
aV2404:6800:4005:7::18
p20
aV2404:6800:4005:7::18
p21
aV2404:6800:4005:7::18
p22
aV2404:6800:4005:7::18
p23
aV2404:6800:4005:7::18
p24
aV2404:6800:4005:7::18
p25
as.