(dp0
S'r2---sn-a8au-naje.googlevideo.com'
p1
(lp2
V2001:1900:2200:20::d
p3
aV2001:1900:2200:20::d
p4
aV2001:1900:2200:20::d
p5
aV2001:1900:2200:20::d
p6
aV2001:1900:2200:20::d
p7
aV2001:1900:2200:20::d
p8
aV2001:1900:2200:20::d
p9
aV2001:1900:2200:20::d
p10
aV2001:1900:2200:20::d
p11
aV2001:1900:2200:20::d
p12
aV2001:1900:2200:20::d
p13
aV2001:1900:2200:20::d
p14
aV2001:1900:2200:20::d
p15
aV2001:1900:2200:20::d
p16
aV2001:1900:2200:20::d
p17
aV2001:1900:2200:20::d
p18
aV2001:1900:2200:20::d
p19
aV2001:1900:2200:20::d
p20
aV2001:1900:2200:20::d
p21
aV2001:1900:2200:20::d
p22
aV2001:1900:2200:20::d
p23
aV2001:1900:2200:20::d
p24
as.