(dp0
S'r2.tpe05s03.c.youtube.com'
p1
(lp2
V2404:6800:4008:2::7
p3
aV2404:6800:4008:2::7
p4
aV2404:6800:4008:2::7
p5
aV2404:6800:4008:2::7
p6
aV2404:6800:4008:2::7
p7
aV2404:6800:4008:2::7
p8
aV2404:6800:4008:2::7
p9
aV2404:6800:4008:2::7
p10
aV2404:6800:4008:2::7
p11
aV2404:6800:4008:2::7
p12
aV2404:6800:4008:2::7
p13
aV2404:6800:4008:2::7
p14
aV2404:6800:4008:2::7
p15
aV2404:6800:4008:2::7
p16
aV2404:6800:4008:2::7
p17
aV2404:6800:4008:2::7
p18
aV2404:6800:4008:2::7
p19
aV2404:6800:4008:2::7
p20
aV2404:6800:4008:2::7
p21
aV2404:6800:4008:2::7
p22
aV2404:6800:4008:2::7
p23
aV2404:6800:4008:2::7
p24
as.