(dp0
S'r20---sn-o097znes.googlevideo.com'
p1
(lp2
V2001:4860:4001:10::19
p3
aV2001:4860:4001:10::19
p4
aV2001:4860:4001:10::19
p5
aV2001:4860:4001:10::19
p6
aV2001:4860:4001:10::19
p7
aV2001:4860:4001:10::19
p8
aV2001:4860:4001:10::19
p9
aV2001:4860:4001:10::19
p10
aV2001:4860:4001:10::19
p11
aV2001:4860:4001:10::19
p12
aV2001:4860:4001:10::19
p13
aV2001:4860:4001:10::19
p14
aV2001:4860:4001:10::19
p15
aV2001:4860:4001:10::19
p16
aV2001:4860:4001:10::19
p17
aV2001:4860:4001:10::19
p18
aV2001:4860:4001:10::19
p19
aV2001:4860:4001:10::19
p20
aV2001:4860:4001:10::19
p21
aV2001:4860:4001:10::19
p22
aV2001:4860:4001:10::19
p23
as.