(dp0
S'r20.hkg03s07.googlevideo.com'
p1
(lp2
V2404:6800:4005:6::19
p3
aV2404:6800:4005:6::19
p4
aV2404:6800:4005:6::19
p5
aV2404:6800:4005:6::19
p6
aV2404:6800:4005:6::19
p7
aV2404:6800:4005:6::19
p8
aV2404:6800:4005:6::19
p9
aV2404:6800:4005:6::19
p10
aV2404:6800:4005:6::19
p11
aV2404:6800:4005:6::19
p12
aV2404:6800:4005:6::19
p13
aV2404:6800:4005:6::19
p14
aV2404:6800:4005:6::19
p15
aV2404:6800:4005:6::19
p16
aV2404:6800:4005:6::19
p17
aV2404:6800:4005:6::19
p18
aV2404:6800:4005:6::19
p19
aV2404:6800:4005:6::19
p20
aV2404:6800:4005:6::19
p21
aV2404:6800:4005:6::19
p22
aV2404:6800:4005:6::19
p23
aV2404:6800:4005:6::19
p24
aV2404:6800:4005:6::19
p25
as.