(dp0
S'r3---sn-a8au-naje.googlevideo.com'
p1
(lp2
V2001:1900:2200:20::e
p3
aV2001:1900:2200:20::e
p4
aV2001:1900:2200:20::e
p5
aV2001:1900:2200:20::e
p6
aV2001:1900:2200:20::e
p7
aV2001:1900:2200:20::e
p8
aV2001:1900:2200:20::e
p9
aV2001:1900:2200:20::e
p10
aV2001:1900:2200:20::e
p11
aV2001:1900:2200:20::e
p12
aV2001:1900:2200:20::e
p13
aV2001:1900:2200:20::e
p14
aV2001:1900:2200:20::e
p15
aV2001:1900:2200:20::e
p16
aV2001:1900:2200:20::e
p17
aV2001:1900:2200:20::e
p18
aV2001:1900:2200:20::e
p19
aV2001:1900:2200:20::e
p20
aV2001:1900:2200:20::e
p21
aV2001:1900:2200:20::e
p22
as.