(dp0
S'r3---sn-a5m7ln7s.googlevideo.com'
p1
(lp2
V2001:4860:4007:4::8
p3
aV2001:4860:4007:4::8
p4
aV2001:4860:4007:4::8
p5
aV2001:4860:4007:4::8
p6
aV2001:4860:4007:4::8
p7
aV2001:4860:4007:4::8
p8
aV2001:4860:4007:4::8
p9
aV2001:4860:4007:4::8
p10
aV2001:4860:4007:4::8
p11
aV2001:4860:4007:4::8
p12
aV2001:4860:4007:4::8
p13
aV2001:4860:4007:4::8
p14
aV2001:4860:4007:4::8
p15
aV2001:4860:4007:4::8
p16
aV2001:4860:4007:4::8
p17
aV2001:4860:4007:4::8
p18
aV2001:4860:4007:4::8
p19
aV2001:4860:4007:4::8
p20
aV2001:4860:4007:4::8
p21
aV2001:4860:4007:4::8
p22
aV2001:4860:4007:4::8
p23
as.