(dp0
S'r3.hkg03s06.c.youtube.com'
p1
(lp2
V2404:6800:4005:5::8
p3
aV2404:6800:4005:5::8
p4
aV2404:6800:4005:5::8
p5
aV2404:6800:4005:5::8
p6
aV2404:6800:4005:5::8
p7
aV2404:6800:4005:5::8
p8
aV2404:6800:4005:5::8
p9
aV2404:6800:4005:5::8
p10
aV2404:6800:4005:5::8
p11
aV2404:6800:4005:5::8
p12
aV2404:6800:4005:5::8
p13
aV2404:6800:4005:5::8
p14
aV2404:6800:4005:5::8
p15
aV2404:6800:4005:5::8
p16
aV2404:6800:4005:5::8
p17
aV2404:6800:4005:5::8
p18
aV2404:6800:4005:5::8
p19
aV2404:6800:4005:5::8
p20
aV2404:6800:4005:5::8
p21
aV2404:6800:4005:5::8
p22
aV2404:6800:4005:5::8
p23
aV2404:6800:4005:5::8
p24
aV2404:6800:4005:5::8
p25
as.