(dp0
S'r4---sn-o097znes.googlevideo.com'
p1
(lp2
V2001:4860:4001:10::9
p3
aV2001:4860:4001:10::9
p4
aV2001:4860:4001:10::9
p5
aV2001:4860:4001:10::9
p6
aV2001:4860:4001:10::9
p7
aV2001:4860:4001:10::9
p8
aV2001:4860:4001:10::9
p9
aV2001:4860:4001:10::9
p10
aV2001:4860:4001:10::9
p11
aV2001:4860:4001:10::9
p12
aV2001:4860:4001:10::9
p13
aV2001:4860:4001:10::9
p14
aV2001:4860:4001:10::9
p15
aV2001:4860:4001:10::9
p16
aV2001:4860:4001:10::9
p17
aV2001:4860:4001:10::9
p18
aV2001:4860:4001:10::9
p19
aV2001:4860:4001:10::9
p20
aV2001:4860:4001:10::9
p21
aV2001:4860:4001:10::9
p22
as.