(dp0
S'r4---sn-a8au-naje.googlevideo.com'
p1
(lp2
V2001:1900:2200:20::f
p3
aV2001:1900:2200:20::f
p4
aV2001:1900:2200:20::f
p5
aV2001:1900:2200:20::f
p6
aV2001:1900:2200:20::f
p7
aV2001:1900:2200:20::f
p8
aV2001:1900:2200:20::f
p9
aV2001:1900:2200:20::f
p10
aV2001:1900:2200:20::f
p11
aV2001:1900:2200:20::f
p12
aV2001:1900:2200:20::f
p13
aV2001:1900:2200:20::f
p14
aV2001:1900:2200:20::f
p15
aV2001:1900:2200:20::f
p16
aV2001:1900:2200:20::f
p17
aV2001:1900:2200:20::f
p18
aV2001:1900:2200:20::f
p19
aV2001:1900:2200:20::f
p20
aV2001:1900:2200:20::f
p21
aV2001:1900:2200:20::f
p22
aV2001:1900:2200:20::f
p23
aV2001:1900:2200:20::f
p24
as.