(dp0
S'r5---sn-a8au-naje.googlevideo.com'
p1
(lp2
V2001:1900:2200:20::10
p3
aV2001:1900:2200:20::10
p4
aV2001:1900:2200:20::10
p5
aV2001:1900:2200:20::10
p6
aV2001:1900:2200:20::10
p7
aV2001:1900:2200:20::10
p8
aV2001:1900:2200:20::10
p9
aV2001:1900:2200:20::10
p10
aV2001:1900:2200:20::10
p11
aV2001:1900:2200:20::10
p12
aV2001:1900:2200:20::10
p13
aV2001:1900:2200:20::10
p14
aV2001:1900:2200:20::10
p15
aV2001:1900:2200:20::10
p16
aV2001:1900:2200:20::10
p17
aV2001:1900:2200:20::10
p18
aV2001:1900:2200:20::10
p19
aV2001:1900:2200:20::10
p20
aV2001:1900:2200:20::10
p21
aV2001:1900:2200:20::10
p22
aV2001:1900:2200:20::10
p23
aV2001:1900:2200:20::10
p24
as.