(dp0
S'r5---sn-a5m7ln7z.googlevideo.com'
p1
(lp2
V2001:4860:4007:5::a
p3
aV2001:4860:4007:5::a
p4
aV2001:4860:4007:5::a
p5
aV2001:4860:4007:5::a
p6
aV2001:4860:4007:5::a
p7
aV2001:4860:4007:5::a
p8
aV2001:4860:4007:5::a
p9
aV2001:4860:4007:5::a
p10
aV2001:4860:4007:5::a
p11
aV2001:4860:4007:5::a
p12
aV2001:4860:4007:5::a
p13
aV2001:4860:4007:5::a
p14
aV2001:4860:4007:5::a
p15
aV2001:4860:4007:5::a
p16
aV2001:4860:4007:5::a
p17
aV2001:4860:4007:5::a
p18
aV2001:4860:4007:5::a
p19
aV2001:4860:4007:5::a
p20
aV2001:4860:4007:5::a
p21
aV2001:4860:4007:5::a
p22
aV2001:4860:4007:5::a
p23
as.