(dp0
S'r5.hkg03s08.c.youtube.com'
p1
(lp2
V2404:6800:4005:7::a
p3
aV2404:6800:4005:7::a
p4
aV2404:6800:4005:7::a
p5
aV2404:6800:4005:7::a
p6
aV2404:6800:4005:7::a
p7
aV2404:6800:4005:7::a
p8
aV2404:6800:4005:7::a
p9
aV2404:6800:4005:7::a
p10
aV2404:6800:4005:7::a
p11
aV2404:6800:4005:7::a
p12
aV2404:6800:4005:7::a
p13
aV2404:6800:4005:7::a
p14
aV2404:6800:4005:7::a
p15
aV2404:6800:4005:7::a
p16
aV2404:6800:4005:7::a
p17
aV2404:6800:4005:7::a
p18
aV2404:6800:4005:7::a
p19
aV2404:6800:4005:7::a
p20
aV2404:6800:4005:7::a
p21
aV2404:6800:4005:7::a
p22
aV2404:6800:4005:7::a
p23
as.