(dp0
S'r6---sn-o097znes.googlevideo.com'
p1
(lp2
V2001:4860:4001:10::b
p3
aV2001:4860:4001:10::b
p4
aV2001:4860:4001:10::b
p5
aV2001:4860:4001:10::b
p6
aV2001:4860:4001:10::b
p7
aV2001:4860:4001:10::b
p8
aV2001:4860:4001:10::b
p9
aV2001:4860:4001:10::b
p10
aV2001:4860:4001:10::b
p11
aV2001:4860:4001:10::b
p12
aV2001:4860:4001:10::b
p13
aV2001:4860:4001:10::b
p14
aV2001:4860:4001:10::b
p15
aV2001:4860:4001:10::b
p16
aV2001:4860:4001:10::b
p17
aV2001:4860:4001:10::b
p18
aV2001:4860:4001:10::b
p19
aV2001:4860:4001:10::b
p20
aV2001:4860:4001:10::b
p21
aV2001:4860:4001:10::b
p22
aV2001:4860:4001:10::b
p23
as.