(dp0
S'r6.maa03s08.googlevideo.com'
p1
(lp2
V2404:6800:4007::b
p3
aV2404:6800:4007::b
p4
aV2404:6800:4007::b
p5
aV2404:6800:4007::b
p6
aV2404:6800:4007::b
p7
aV2404:6800:4007::b
p8
aV2404:6800:4007::b
p9
aV2404:6800:4007::b
p10
aV2404:6800:4007::b
p11
aV2404:6800:4007::b
p12
aV2404:6800:4007::b
p13
aV2404:6800:4007::b
p14
aV2404:6800:4007::b
p15
aV2404:6800:4007::b
p16
aV2404:6800:4007::b
p17
aV2404:6800:4007::b
p18
aV2404:6800:4007::b
p19
aV2404:6800:4007::b
p20
aV2404:6800:4007::b
p21
aV2404:6800:4007::b
p22
aV2404:6800:4007::b
p23
as.