(dp0
S'r7---sn-a8au-naje.googlevideo.com'
p1
(lp2
V2001:1900:2200:20::12
p3
aV2001:1900:2200:20::12
p4
aV2001:1900:2200:20::12
p5
aV2001:1900:2200:20::12
p6
aV2001:1900:2200:20::12
p7
aV2001:1900:2200:20::12
p8
aV2001:1900:2200:20::12
p9
aV2001:1900:2200:20::12
p10
aV2001:1900:2200:20::12
p11
aV2001:1900:2200:20::12
p12
aV2001:1900:2200:20::12
p13
aV2001:1900:2200:20::12
p14
aV2001:1900:2200:20::12
p15
aV2001:1900:2200:20::12
p16
aV2001:1900:2200:20::12
p17
aV2001:1900:2200:20::12
p18
aV2001:1900:2200:20::12
p19
aV2001:1900:2200:20::12
p20
aV2001:1900:2200:20::12
p21
aV2001:1900:2200:20::12
p22
aV2001:1900:2200:20::12
p23
as.