(dp0
S'r7---sn-a5m7lnes.googlevideo.com'
p1
(lp2
V2607:f8b0:4007:16::c
p3
aV2607:f8b0:4007:16::c
p4
aV2607:f8b0:4007:16::c
p5
aV2607:f8b0:4007:16::c
p6
aV2607:f8b0:4007:16::c
p7
aV2607:f8b0:4007:16::c
p8
aV2607:f8b0:4007:16::c
p9
aV2607:f8b0:4007:16::c
p10
aV2607:f8b0:4007:16::c
p11
aV2607:f8b0:4007:16::c
p12
aV2607:f8b0:4007:16::c
p13
aV2607:f8b0:4007:16::c
p14
aV2607:f8b0:4007:16::c
p15
aV2607:f8b0:4007:16::c
p16
aV2607:f8b0:4007:16::c
p17
aV2607:f8b0:4007:16::c
p18
aV2607:f8b0:4007:16::c
p19
aV2607:f8b0:4007:16::c
p20
aV2607:f8b0:4007:16::c
p21
aV2607:f8b0:4007:16::c
p22
aV2607:f8b0:4007:16::c
p23
as.