(dp0
S'r7.tpe05s04.c.youtube.com'
p1
(lp2
V2404:6800:4008:3::c
p3
aV2404:6800:4008:3::c
p4
aV2404:6800:4008:3::c
p5
aV2404:6800:4008:3::c
p6
aV2404:6800:4008:3::c
p7
aV2404:6800:4008:3::c
p8
aV2404:6800:4008:3::c
p9
aV2404:6800:4008:3::c
p10
aV2404:6800:4008:3::c
p11
aV2404:6800:4008:3::c
p12
aV2404:6800:4008:3::c
p13
aV2404:6800:4008:3::c
p14
aV2404:6800:4008:3::c
p15
aV2404:6800:4008:3::c
p16
aV2404:6800:4008:3::c
p17
aV2404:6800:4008:3::c
p18
aV2404:6800:4008:3::c
p19
aV2404:6800:4008:3::c
p20
aV2404:6800:4008:3::c
p21
aV2404:6800:4008:3::c
p22
aV2404:6800:4008:3::c
p23
as.