(dp0
S'r8---sn-a8au-naje.googlevideo.com'
p1
(lp2
V2001:1900:2200:20::13
p3
aV2001:1900:2200:20::13
p4
aV2001:1900:2200:20::13
p5
aV2001:1900:2200:20::13
p6
aV2001:1900:2200:20::13
p7
aV2001:1900:2200:20::13
p8
aV2001:1900:2200:20::13
p9
aV2001:1900:2200:20::13
p10
aV2001:1900:2200:20::13
p11
aV2001:1900:2200:20::13
p12
aV2001:1900:2200:20::13
p13
aV2001:1900:2200:20::13
p14
aV2001:1900:2200:20::13
p15
aV2001:1900:2200:20::13
p16
aV2001:1900:2200:20::13
p17
aV2001:1900:2200:20::13
p18
aV2001:1900:2200:20::13
p19
aV2001:1900:2200:20::13
p20
aV2001:1900:2200:20::13
p21
aV2001:1900:2200:20::13
p22
aV2001:1900:2200:20::13
p23
as.