(dp0
S'r8---sn-a5m7ln76.googlevideo.com'
p1
(lp2
V2001:4860:4007:6::d
p3
aV2001:4860:4007:6::d
p4
aV2001:4860:4007:6::d
p5
aV2001:4860:4007:6::d
p6
aV2001:4860:4007:6::d
p7
aV2001:4860:4007:6::d
p8
aV2001:4860:4007:6::d
p9
aV2001:4860:4007:6::d
p10
aV2001:4860:4007:6::d
p11
aV2001:4860:4007:6::d
p12
aV2001:4860:4007:6::d
p13
aV2001:4860:4007:6::d
p14
aV2001:4860:4007:6::d
p15
aV2001:4860:4007:6::d
p16
aV2001:4860:4007:6::d
p17
aV2001:4860:4007:6::d
p18
aV2001:4860:4007:6::d
p19
aV2001:4860:4007:6::d
p20
aV2001:4860:4007:6::d
p21
aV2001:4860:4007:6::d
p22
aV2001:4860:4007:6::d
p23
as.