(dp0
S'r8.tpe05s03.c.youtube.com'
p1
(lp2
V2404:6800:4008:2::d
p3
aV2404:6800:4008:2::d
p4
aV2404:6800:4008:2::d
p5
aV2404:6800:4008:2::d
p6
aV2404:6800:4008:2::d
p7
aV2404:6800:4008:2::d
p8
aV2404:6800:4008:2::d
p9
aV2404:6800:4008:2::d
p10
aV2404:6800:4008:2::d
p11
aV2404:6800:4008:2::d
p12
aV2404:6800:4008:2::d
p13
aV2404:6800:4008:2::d
p14
aV2404:6800:4008:2::d
p15
aV2404:6800:4008:2::d
p16
aV2404:6800:4008:2::d
p17
aV2404:6800:4008:2::d
p18
aV2404:6800:4008:2::d
p19
aV2404:6800:4008:2::d
p20
aV2404:6800:4008:2::d
p21
aV2404:6800:4008:2::d
p22
aV2404:6800:4008:2::d
p23
aV2404:6800:4008:2::d
p24
aV2404:6800:4008:2::d
p25
as.