(dp0
S'r9---sn-o097znes.googlevideo.com'
p1
(lp2
V2001:4860:4001:10::e
p3
aV2001:4860:4001:10::e
p4
aV2001:4860:4001:10::e
p5
aV2001:4860:4001:10::e
p6
aV2001:4860:4001:10::e
p7
aV2001:4860:4001:10::e
p8
aV2001:4860:4001:10::e
p9
aV2001:4860:4001:10::e
p10
aV2001:4860:4001:10::e
p11
aV2001:4860:4001:10::e
p12
aV2001:4860:4001:10::e
p13
aV2001:4860:4001:10::e
p14
aV2001:4860:4001:10::e
p15
aV2001:4860:4001:10::e
p16
aV2001:4860:4001:10::e
p17
aV2001:4860:4001:10::e
p18
aV2001:4860:4001:10::e
p19
aV2001:4860:4001:10::e
p20
aV2001:4860:4001:10::e
p21
aV2001:4860:4001:10::e
p22
aV2001:4860:4001:10::e
p23
aV2001:4860:4001:10::e
p24
as.