(dp0
S'r9.hkg03s07.googlevideo.com'
p1
(lp2
V2404:6800:4005:6::e
p3
aV2404:6800:4005:6::e
p4
aV2404:6800:4005:6::e
p5
aV2404:6800:4005:6::e
p6
aV2404:6800:4005:6::e
p7
aV2404:6800:4005:6::e
p8
aV2404:6800:4005:6::e
p9
aV2404:6800:4005:6::e
p10
aV2404:6800:4005:6::e
p11
aV2404:6800:4005:6::e
p12
aV2404:6800:4005:6::e
p13
aV2404:6800:4005:6::e
p14
aV2404:6800:4005:6::e
p15
aV2404:6800:4005:6::e
p16
aV2404:6800:4005:6::e
p17
aV2404:6800:4005:6::e
p18
aV2404:6800:4005:6::e
p19
aV2404:6800:4005:6::e
p20
aV2404:6800:4005:6::e
p21
aV2404:6800:4005:6::e
p22
aV2404:6800:4005:6::e
p23
as.