(dp0
S'reader.googleusercontent.com'
p1
(lp2
V2a00:1450:4013:c00::84
p3
aV2a00:1450:4016:801::100a
p4
aV2607:f8b0:4004:800::100a
p5
aV2404:6800:4005:800::100c
p6
aV2a00:1450:4001:c02::84
p7
aV2607:f8b0:400a:801::100b
p8
aV2a00:1450:4013:c01::84
p9
aV2a00:1450:4002:801::100a
p10
aV2a00:1450:4013:c01::84
p11
aV2607:f8b0:400c:c03::84
p12
aV2a00:1450:4009:804::100c
p13
aV2607:f8b0:400a:805::100c
p14
aV2a00:1450:4002:803::100b
p15
aV2a00:1450:4013:c00::84
p16
aV2404:6800:4006:804::100c
p17
aV2607:f8b0:4009:800::100c
p18
aV2607:f8b0:4004:800::100b
p19
aV2a00:1450:4001:c02::84
p20
aV2a00:1450:4010:c08::84
p21
as.