(dp0
S's-static.ak.facebook.com'
p1
(lp2
V2001:5008:101:295::236
p3
aV2001:41a8:806:287::236
p4
aV2a02:26f0:64:181::236
p5
aV2a02:26f0:64:19b::236
p6
aV2600:140a::18c:0:0:0:236
p7
aV2600:1408:7:288::236
p8
aV2600:1417:9:194::236
p9
aV2a02:26f0:f:189::236
p10
aV2600:140a::290:0:0:0:236
p11
aV2a02:26f0:2d:186::236
p12
aV2a02:26f0:8:185::236
p13
aV2a02:26f0:3b:1a3::236
p14
aV2a02:26f0:18:1:9a00::236
p15
aV2a02:26f0:26:389::236
p16
aV2600:1409:a:39c::236
p17
aV2600:1415:8:181::236
p18
aV2600:1407:9:1:8500::236
p19
aV2001:559:13:198::236
p20
aV2a02:26f0:20:1a2::236
p21
aV2a02:26f0:8:183::236
p22
as.