(dp0
S's-static.ak.facebook.com'
p1
(lp2
V2001:5008:101:295::236
p3
aV2a02:26f0:20:1a1::236
p4
aV2a02:26f0:10:2:8400::236
p5
aV2a02:26f0:7b:399::236
p6
aV2a02:26f0:3b:19e::236
p7
aV2600:141b:4:195::236
p8
aV2600:1417:9:194::236
p9
aV2a02:26f0:f:183::236
p10
aV2600:140a::295:0:0:0:236
p11
aV2600:1409:a:39c::236
p12
aV2a02:26f0:2d:384::236
p13
aV2a02:26f0:8:190::236
p14
aV2600:140a::290:0:0:0:236
p15
aV2a02:26f0:2d:18d::236
p16
aV2600:1409:a:39c::236
p17
aV2001:5008:101:289::236
p18
aV2600:1415:8:188::236
p19
aV2600:1407:10:187::236
p20
aV2001:559:13:193::236
p21
aV2a02:26f0:8:186::236
p22
aV2a02:26f0:20:1a4::236
p23
aV2a02:26f0:18:1:9400::236
p24
as.