(dp0
S's.youtube.com'
p1
(lp2
V2a00:1450:4002:802::1000
p3
aV2a00:1450:4017:801::1001
p4
aV2a00:1450:4013:c01::8b
p5
aV2a00:1450:4001:805::1000
p6
aV2a00:1450:4005:809::1002
p7
aV2607:f8b0:4004:800::1001
p8
aV2404:6800:4005:806::1007
p9
aV2a00:1450:400d:802::1005
p10
aV2607:f8b0:400b:807::1000
p11
aV2a00:1450:400c:c03::71
p12
aV2a00:1450:4001:805::1003
p13
aV2a00:1450:4002:801::1007
p14
aV2a00:1450:4013:c00::64
p15
aV2607:f8b0:400c:c04::71
p16
aV2a00:1450:4013:c01::66
p17
aV2607:f8b0:400a:804::1006
p18
aV2a00:1450:4002:803::1008
p19
aV2404:6800:4006:804::1001
p20
aV2607:f8b0:4009:800::1001
p21
aV2607:f8b0:4004:800::1007
p22
aV2a00:1450:4001:c02::71
p23
aV2a00:1450:4010:c07::65
p24
as.