(dp0
S's.youtube.com'
p1
(lp2
V2a00:1450:4002:802::1000
p3
aV2a00:1450:4017:801::1004
p4
aV2a00:1450:4013:c01::64
p5
aV2a00:1450:4001:c02::8a
p6
aV2607:f8b0:4004:806::1008
p7
aV2607:f8b0:4004:800::1005
p8
aV2a00:1450:400d:803::100e
p9
aV2607:f8b0:4006:808::1001
p10
aV2a00:1450:4007:80a::1005
p11
aV2a00:1450:4013:c00::8a
p12
aV2a00:1450:400c:c00::8b
p13
aV2a00:1450:4003:803::1006
p14
aV2a00:1450:400c:c00::66
p15
aV2607:f8b0:400a:802::1007
p16
aV2404:6800:4006:806::1001
p17
aV2607:f8b0:4001:c02::8b
p18
aV2607:f8b0:4000:800::1004
p19
aV2a00:1450:4001:c02::66
p20
aV2a00:1450:4013:c01::8a
p21
as.