(dp0
S's.youtube.com'
p1
(lp2
V2a00:1450:4002:802::1008
p3
aV2a00:1450:4017:801::1006
p4
aV2a00:1450:4013:c01::65
p5
aV2a00:1450:400d:803::1001
p6
aV2a00:1450:4005:808::1009
p7
aV2607:f8b0:4004:800::1006
p8
aV2404:6800:4005:805::1008
p9
aV2a00:1450:400d:803::1005
p10
aV2607:f8b0:4009:805::1009
p11
aV2607:f8b0:4007:805::1001
p12
aV2a00:1450:4002:801::1006
p13
aV2a00:1450:4013:c00::66
p14
aV2607:f8b0:4004:806::1004
p15
aV2a00:1450:400c:c01::8a
p16
aV2607:f8b0:400a:805::1005
p17
aV2a00:1450:4002:803::1003
p18
aV2404:6800:4006:804::1002
p19
aV2607:f8b0:4009:800::1006
p20
aV2607:f8b0:4004:800::100e
p21
aV2a00:1450:4001:c02::65
p22
aV2a00:1450:4013:c01::8b
p23
as.