(dp0
S's.ytimg.com'
p1
(lp2
V2a00:1450:4002:802::1001
p3
aV2a00:1450:4013:c01::65
p4
aV2a00:1450:4016:801::1002
p5
aV2a00:1450:4017:801::100e
p6
aV2a00:1450:4005:809::1007
p7
aV2607:f8b0:4004:800::1006
p8
aV2404:6800:4005:806::1000
p9
aV2a00:1450:400d:803::1003
p10
aV2607:f8b0:400b:807::1000
p11
aV2a00:1450:4009:804::1003
p12
aV2a00:1450:4001:80e::1003
p13
aV2a00:1450:4002:801::1008
p14
aV2a00:1450:4013:c00::66
p15
aV2607:f8b0:400c:c04::71
p16
aV2a00:1450:4013:c01::71
p17
aV2607:f8b0:400a:805::1004
p18
aV2a00:1450:4002:803::1006
p19
aV2404:6800:4006:804::100e
p20
aV2607:f8b0:4009:800::1005
p21
aV2607:f8b0:4004:800::1004
p22
aV2a00:1450:4001:c02::64
p23
aV2a00:1450:4010:c07::8a
p24
as.