(dp0
S'safebrowsing.cache.l.google.com'
p1
(lp2
V2a00:1450:4002:802::1008
p3
aV2a00:1450:4017:801::1001
p4
aV2a00:1450:4013:c01::8b
p5
aV2a00:1450:4001:808::1004
p6
aV2607:f8b0:4004:806::1003
p7
aV2607:f8b0:4004:800::1008
p8
aV2404:6800:4005:800::100e
p9
aV2a00:1450:400d:802::1008
p10
aV2607:f8b0:4006:808::1003
p11
aV2a00:1450:4007:80a::1002
p12
aV2a00:1450:4013:c00::64
p13
aV2a00:1450:400c:c00::8b
p14
aV2a00:1450:4003:803::1009
p15
aV2a00:1450:400c:c00::66
p16
aV2607:f8b0:400a:802::1009
p17
aV2a00:1450:4002:803::1007
p18
aV2404:6800:4006:806::1009
p19
aV2607:f8b0:4001:c02::65
p20
aV2607:f8b0:4000:802::1004
p21
aV2a00:1450:4013:c01::8b
p22
aV2a00:1450:4001:80a::1009
p23
as.