(dp0
S'safebrowsing.cache.l.google.com'
p1
(lp2
V2a00:1450:4002:802::1002
p3
aV2a00:1450:4013:c00::8a
p4
aV2a00:1450:4016:801::1000
p5
aV2a00:1450:4017:801::1004
p6
aV2a00:1450:4005:808::100e
p7
aV2607:f8b0:4004:800::1004
p8
aV2404:6800:4005:800::1004
p9
aV2a00:1450:400d:805::1007
p10
aV2607:f8b0:400b:80b::1007
p11
aV2607:f8b0:400a:801::1007
p12
aV2a00:1450:4001:80b::1009
p13
aV2a00:1450:4002:801::1001
p14
aV2a00:1450:4013:c01::71
p15
aV2607:f8b0:400c:c02::64
p16
aV2a00:1450:4009:804::1008
p17
aV2607:f8b0:400a:800::1005
p18
aV2a00:1450:4002:803::1006
p19
aV2a00:1450:4013:c00::8a
p20
aV2404:6800:4006:804::1004
p21
aV2607:f8b0:4009:800::1001
p22
aV2607:f8b0:4004:800::1007
p23
aV2a00:1450:4001:c02::65
p24
aV2a00:1450:4010:c07::64
p25
as.