(dp0
S'sandbox.google.com'
p1
(lp2
V2a00:1450:4001:c02::51
p3
aV2a00:1450:4001:c02::51
p4
aV2a00:1450:4013:c01::51
p5
aV2a00:1450:4001:c02::51
p6
aV2607:f8b0:400d:c00::51
p7
aV2607:f8b0:400d:c06::51
p8
aV2a00:1450:4001:c02::51
p9
aV2607:f8b0:400d:c00::51
p10
aV2a00:1450:400c:c03::51
p11
aV2a00:1450:4013:c00::51
p12
aV2a00:1450:400c:c00::51
p13
aV2a00:1450:400c:c03::51
p14
aV2a00:1450:400c:c00::51
p15
aV2001:4860:400b:c01::51
p16
aV2a00:1450:4001:c02::51
p17
aV2404:6800:4008:c01::51
p18
aV2607:f8b0:4001:c02::51
p19
aV2607:f8b0:4003:c05::51
p20
aV2a00:1450:4013:c01::51
p21
aV2a00:1450:4001:c02::51
p22
as.