(dp0
S'sb.google.com'
p1
(lp2
V2a00:1450:4002:802::100e
p3
aV2a00:1450:4017:801::1000
p4
aV2a00:1450:4013:c00::5d
p5
aV2a00:1450:4016:801::1007
p6
aV2607:f8b0:400c:c03::be
p7
aV2607:f8b0:4004:800::1002
p8
aV2404:6800:4005:800::1009
p9
aV2a00:1450:4001:80a::1009
p10
aV2607:f8b0:400b:80a::1000
p11
aV2607:f8b0:400a:801::1003
p12
aV2a00:1450:4001:801::1001
p13
aV2a00:1450:4002:801::1004
p14
aV2a00:1450:4013:c01::5d
p15
aV2a00:1450:4005:808::1005
p16
aV2a00:1450:4010:c08::5d
p17
aV2a00:1450:4009:804::1001
p18
aV2607:f8b0:400a:800::1007
p19
aV2a00:1450:4002:803::1007
p20
aV2404:6800:4006:804::100e
p21
aV2607:f8b0:4009:800::1005
p22
aV2607:f8b0:4004:800::1002
p23
aV2a00:1450:4001:c02::88
p24
aV2a00:1450:4013:c00::5d
p25
as.