(dp0
S'smtp.gmail.com'
p1
(lp2
V2a00:1450:4013:c01::6d
p3
aV2a00:1450:4013:c01::6d
p4
aV2a00:1450:4013:c01::6c
p5
aV2a00:1450:4013:c01::6d
p6
aV2a00:1450:400c:c00::6c
p7
aV2607:f8b0:400d:c01::6d
p8
aV2607:f8b0:400e:c02::6d
p9
aV2a00:1450:4013:c01::6c
p10
aV2607:f8b0:400d:c04::6c
p11
aV2a00:1450:400c:c03::6c
p12
aV2a00:1450:4013:c01::6c
p13
aV2607:f8b0:400d:c00::6d
p14
aV2a00:1450:400c:c03::6d
p15
aV2a00:1450:400c:c00::6c
p16
aV2607:f8b0:400e:c03::6d
p17
aV2a00:1450:4013:c01::6d
p18
aV2a00:1450:4013:c01::6d
p19
aV2607:f8b0:400e:c02::6d
p20
aV2607:f8b0:4001:c03::6d
p21
aV2607:f8b0:4003:c01::6d
p22
aV2a00:1450:4013:c01::6c
p23
as.