(dp0
S'smtp.gmail.com'
p1
(lp2
V2a00:1450:4013:c01::6c
p3
aV2a00:1450:400c:c05::6c
p4
aV2a00:1450:4013:c01::6d
p5
aV2a00:1450:4013:c01::6d
p6
aV2a00:1450:4013:c01::6c
p7
aV2607:f8b0:400d:c01::6c
p8
aV2607:f8b0:400e:c01::6c
p9
aV2a00:1450:4013:c01::6c
p10
aV2607:f8b0:4001:c05::6c
p11
aV2a00:1450:400c:c03::6c
p12
aV2a00:1450:4013:c01::6c
p13
aV2a00:1450:4013:c01::6d
p14
aV2a00:1450:4013:c01::6d
p15
aV2607:f8b0:400c:c01::6d
p16
aV2a00:1450:4013:c01::6d
p17
aV2607:f8b0:400e:c01::6c
p18
aV2607:f8b0:400e:c03::6c
p19
aV2a00:1450:4013:c01::6c
p20
aV2607:f8b0:400e:c02::6d
p21
aV2607:f8b0:4001:c03::6c
p22
aV2607:f8b0:400d:c01::6c
p23
aV2a00:1450:4013:c01::6c
p24
aV2a00:1450:4010:c03::6c
p25
as.