(dp0
S'spreadsheets5.google.com'
p1
(lp2
V2a00:1450:4002:802::1004
p3
aV2a00:1450:4013:c01::64
p4
aV2a00:1450:4001:c02::66
p5
aV2a00:1450:4017:801::100e
p6
aV2607:f8b0:4004:806::100e
p7
aV2607:f8b0:4004:800::1008
p8
aV2404:6800:4005:800::1007
p9
aV2a00:1450:400d:802::1008
p10
aV2607:f8b0:4006:808::100e
p11
aV2a00:1450:4007:80a::1000
p12
aV2a00:1450:4013:c00::71
p13
aV2a00:1450:400c:c00::8a
p14
aV2a00:1450:4003:803::100e
p15
aV2a00:1450:400c:c00::8b
p16
aV2607:f8b0:400a:802::1004
p17
aV2a00:1450:4002:803::1004
p18
aV2404:6800:4006:806::1006
p19
aV2607:f8b0:4001:c02::66
p20
aV2607:f8b0:4000:800::1008
p21
aV2a00:1450:4001:c02::8b
p22
aV2a00:1450:4013:c01::66
p23
as.