(dp0
S'ssl.gstatic.com'
p1
(lp2
V2a00:1450:4002:802::101f
p3
aV2a00:1450:4017:801::1017
p4
aV2a00:1450:4013:c00::5e
p5
aV2a00:1450:4016:801::100f
p6
aV2a00:1450:4005:808::100f
p7
aV2607:f8b0:4004:800::101f
p8
aV2404:6800:4005:800::100f
p9
aV2a00:1450:400d:805::100f
p10
aV2607:f8b0:400b:80b::101f
p11
aV2607:f8b0:400a:801::100f
p12
aV2a00:1450:4001:806::100f
p13
aV2a00:1450:4002:801::101f
p14
aV2a00:1450:4013:c01::5e
p15
aV2a00:1450:4009:804::1018
p16
aV2607:f8b0:400a:800::101f
p17
aV2a00:1450:4002:803::1017
p18
aV2404:6800:4006:804::1018
p19
aV2607:f8b0:4009:800::1018
p20
aV2607:f8b0:4004:800::1017
p21
aV2a00:1450:4001:c02::5e
p22
aV2a00:1450:4010:c08::5e
p23
as.