(dp0
S'storegadget.googlelabs.com'
p1
(lp2
V2a00:1450:4013:c01::8d
p3
aV2a00:1450:4001:c02::8d
p4
aV2a00:1450:4001:c02::8d
p5
aV2a00:1450:4001:c02::8d
p6
aV2a00:1450:4013:c00::8d
p7
aV2a00:1450:4001:c02::8d
p8
aV2a00:1450:4001:c02::8d
p9
aV2001:4860:400b:c01::8d
p10
aV2a00:1450:4001:c02::8d
p11
aV2404:6800:4008:c04::8d
p12
aV2404:6800:4008:c01::8d
p13
aV2a00:1450:4001:c02::8d
p14
aV2607:f8b0:4001:c05::8d
p15
aV2607:f8b0:400e:c01::8d
p16
as.