(dp0
S'suggestqueries.google.com'
p1
(lp2
V2a00:1450:4002:802::1004
p3
aV2a00:1450:400d:805::1009
p4
aV2a00:1450:4013:c01::8b
p5
aV2a00:1450:4001:c02::71
p6
aV2607:f8b0:400c:c03::65
p7
aV2607:f8b0:4004:800::1008
p8
aV2404:6800:4005:800::1003
p9
aV2a00:1450:400d:805::100e
p10
aV2607:f8b0:4009:806::1000
p11
aV2a00:1450:4007:80a::1001
p12
aV2a00:1450:4013:c00::66
p13
aV2a00:1450:4001:801::1008
p14
aV2a00:1450:4007:805::1009
p15
aV2a00:1450:400c:c00::65
p16
aV2001:4860:400b:c01::71
p17
aV2a00:1450:4002:803::1002
p18
aV2404:6800:4006:806::1004
p19
aV2607:f8b0:4009:800::1004
p20
aV2607:f8b0:4004:800::1001
p21
aV2a00:1450:400c:c03::8b
p22
aV2a00:1450:4005:808::1004
p23
as.