(dp0
S'suggestqueries.google.com'
p1
(lp2
V2a00:1450:4002:802::1001
p3
aV2a00:1450:400d:805::100e
p4
aV2a00:1450:4013:c00::8a
p5
aV2a00:1450:4001:c02::8b
p6
aV2a00:1450:4008:800::1006
p7
aV2607:f8b0:4004:800::1005
p8
aV2404:6800:4005:800::1001
p9
aV2a00:1450:4001:809::1005
p10
aV2607:f8b0:4009:806::1006
p11
aV2607:f8b0:400a:801::1003
p12
aV2a00:1450:4001:c02::65
p13
aV2a00:1450:4016:800::100e
p14
aV2a00:1450:4013:c01::8a
p15
aV2607:f8b0:400c:c03::66
p16
aV2a00:1450:400c:c01::65
p17
aV2001:4860:400b:c01::65
p18
aV2a00:1450:4002:803::1008
p19
aV2404:6800:4006:804::1006
p20
aV2607:f8b0:4009:800::1006
p21
aV2607:f8b0:4004:800::1003
p22
aV2a00:1450:4001:c02::8a
p23
aV2a00:1450:4010:c08::71
p24
as.