(dp0
S't0.gstatic.com'
p1
(lp2
V2a00:1450:4002:802::1014
p3
aV2a00:1450:4013:c01::67
p4
aV2a00:1450:4001:c02::93
p5
aV2a00:1450:4017:801::1011
p6
aV2607:f8b0:4004:806::1012
p7
aV2607:f8b0:4004:800::1013
p8
aV2404:6800:4005:800::1010
p9
aV2a00:1450:400d:805::1010
p10
aV2607:f8b0:4006:808::1012
p11
aV2a00:1450:4007:80a::1011
p12
aV2a00:1450:4013:c00::6a
p13
aV2a00:1450:400c:c00::68
p14
aV2607:f8b0:400a:802::1013
p15
aV2a00:1450:4002:803::1012
p16
aV2404:6800:4006:806::1010
p17
aV2607:f8b0:4001:c02::69
p18
aV2a00:1450:4001:c02::63
p19
aV2a00:1450:4013:c01::63
p20
as.