(dp0
S't0.gstatic.com'
p1
(lp2
V2a00:1450:4002:802::1013
p3
aV2a00:1450:4017:801::1011
p4
aV2a00:1450:4013:c00::67
p5
aV2a00:1450:4016:801::1010
p6
aV2a00:1450:4005:808::1012
p7
aV2607:f8b0:4004:800::1013
p8
aV2404:6800:4005:800::1011
p9
aV2a00:1450:400d:805::1013
p10
aV2607:f8b0:400b:80b::1013
p11
aV2a00:1450:4009:804::1012
p12
aV2a00:1450:4001:c02::67
p13
aV2a00:1450:4002:801::1010
p14
aV2a00:1450:4013:c01::67
p15
aV2607:f8b0:400c:c03::68
p16
aV2607:f8b0:400a:801::1010
p17
aV2607:f8b0:400a:800::1012
p18
aV2a00:1450:4002:803::1010
p19
aV2404:6800:4006:804::1013
p20
aV2607:f8b0:4009:800::1010
p21
aV2607:f8b0:4004:800::1010
p22
aV2a00:1450:4001:c02::93
p23
aV2a00:1450:4010:c08::67
p24
as.