(dp0
S't2.gstatic.com'
p1
(lp2
V2a00:1450:4002:802::1014
p3
aV2a00:1450:4017:801::1012
p4
aV2a00:1450:4013:c01::69
p5
aV2a00:1450:4001:c02::69
p6
aV2607:f8b0:4004:806::1013
p7
aV2607:f8b0:4004:800::1011
p8
aV2404:6800:4005:800::1013
p9
aV2a00:1450:400d:803::1011
p10
aV2607:f8b0:4006:808::1011
p11
aV2a00:1450:4007:80a::1010
p12
aV2a00:1450:4013:c00::67
p13
aV2a00:1450:400c:c00::68
p14
aV2a00:1450:4003:803::1012
p15
aV2a00:1450:400c:c00::93
p16
aV2607:f8b0:400a:802::1012
p17
aV2a00:1450:4002:803::1010
p18
aV2404:6800:4006:806::1012
p19
aV2607:f8b0:4001:c02::67
p20
aV2607:f8b0:4000:800::1014
p21
aV2a00:1450:4013:c01::93
p22
aV2a00:1450:4001:c02::63
p23
as.