(dp0
S'tbn0.google.com'
p1
(lp2
V2a00:1450:4002:802::1014
p3
aV2a00:1450:4017:801::1013
p4
aV2a00:1450:4013:c01::93
p5
aV2a00:1450:4001:c02::67
p6
aV2607:f8b0:4004:806::1011
p7
aV2607:f8b0:4004:800::1012
p8
aV2404:6800:4005:800::1014
p9
aV2a00:1450:400d:804::1011
p10
aV2607:f8b0:4006:808::1013
p11
aV2a00:1450:4007:80a::1012
p12
aV2a00:1450:4013:c00::63
p13
aV2a00:1450:400c:c00::67
p14
aV2a00:1450:4003:803::1013
p15
aV2a00:1450:400c:c00::63
p16
aV2607:f8b0:400a:802::1013
p17
aV2a00:1450:4002:803::1014
p18
aV2404:6800:4006:806::1014
p19
aV2607:f8b0:4001:c02::69
p20
aV2607:f8b0:4000:800::1011
p21
aV2a00:1450:4001:c02::68
p22
aV2a00:1450:4013:c01::93
p23
as.