(dp0
S'tbn2.google.com'
p1
(lp2
V2a00:1450:4002:802::1014
p3
aV2a00:1450:4013:c00::67
p4
aV2a00:1450:4016:801::1014
p5
aV2a00:1450:4017:801::1011
p6
aV2a00:1450:4005:808::1012
p7
aV2607:f8b0:4004:800::1010
p8
aV2404:6800:4005:800::1014
p9
aV2a00:1450:400d:803::1014
p10
aV2607:f8b0:400b:80b::1011
p11
aV2607:f8b0:400a:801::1012
p12
aV2a00:1450:4001:c02::63
p13
aV2a00:1450:4002:801::1014
p14
aV2a00:1450:4013:c01::68
p15
aV2607:f8b0:400c:c03::68
p16
aV2a00:1450:4009:804::1010
p17
aV2607:f8b0:400a:805::1010
p18
aV2a00:1450:4002:803::1011
p19
aV2a00:1450:4013:c00::68
p20
aV2404:6800:4006:804::1012
p21
aV2607:f8b0:4009:800::1012
p22
aV2607:f8b0:4004:800::1010
p23
aV2a00:1450:4001:c02::6a
p24
aV2a00:1450:4010:c08::63
p25
as.