(dp0
S'tc.v11.cache3.googlevideo.com'
p1
(lp2
V2a00:1450:4002:802::1000
p3
aV2a00:1450:4017:801::1003
p4
aV2a00:1450:4013:c00::8b
p5
aV2a00:1450:4016:801::1007
p6
aV2607:f8b0:4004:800::1007
p7
aV2404:6800:4005:800::1009
p8
aV2a00:1450:4001:801::1003
p9
aV2607:f8b0:400b:80a::1008
p10
aV2607:f8b0:400a:801::1004
p11
aV2a00:1450:4013:c01::8b
p12
aV2a00:1450:4002:801::1009
p13
aV2a00:1450:4013:c01::8a
p14
aV2a00:1450:4005:808::1002
p15
aV2a00:1450:4009:804::1007
p16
aV2607:f8b0:400a:800::1003
p17
aV2a00:1450:4002:803::1001
p18
aV2a00:1450:4013:c00::8b
p19
aV2404:6800:4006:804::1004
p20
aV2607:f8b0:4009:800::1002
p21
aV2607:f8b0:4004:800::1009
p22
aV2a00:1450:4001:c02::65
p23
aV2a00:1450:4010:c08::8a
p24
as.