(dp0
S'tc.v17.cache7.googlevideo.com'
p1
(lp2
V2a00:1450:4002:802::1004
p3
aV2a00:1450:4013:c00::65
p4
aV2a00:1450:4016:801::1003
p5
aV2a00:1450:4017:801::100e
p6
aV2a00:1450:4005:808::1004
p7
aV2607:f8b0:4004:800::1001
p8
aV2404:6800:4005:800::1001
p9
aV2a00:1450:4001:802::100e
p10
aV2607:f8b0:400b:80a::1007
p11
aV2607:f8b0:400a:801::1004
p12
aV2a00:1450:4013:c01::65
p13
aV2a00:1450:4002:801::1003
p14
aV2a00:1450:4013:c01::66
p15
aV2607:f8b0:400c:c03::66
p16
aV2a00:1450:4013:c00::8b
p17
aV2a00:1450:4009:804::100e
p18
aV2607:f8b0:400a:800::1004
p19
aV2a00:1450:4002:803::1003
p20
aV2404:6800:4006:804::1003
p21
aV2607:f8b0:4009:800::1003
p22
aV2607:f8b0:4004:800::1005
p23
aV2a00:1450:4001:c02::8a
p24
aV2a00:1450:4010:c08::66
p25
as.