(dp0
S'tc.v21.cache8.googlevideo.com'
p1
(lp2
V2a00:1450:4002:802::1009
p3
aV2a00:1450:4013:c00::8b
p4
aV2a00:1450:4016:801::1007
p5
aV2a00:1450:4017:801::1006
p6
aV2607:f8b0:4004:800::1007
p7
aV2404:6800:4005:800::1005
p8
aV2a00:1450:4001:c02::71
p9
aV2607:f8b0:400b:80b::1003
p10
aV2a00:1450:4009:804::1003
p11
aV2a00:1450:4013:c01::8b
p12
aV2a00:1450:4002:801::100e
p13
aV2a00:1450:4013:c01::8a
p14
aV2607:f8b0:400c:c03::8a
p15
aV2607:f8b0:400a:801::1007
p16
aV2607:f8b0:400a:805::1003
p17
aV2a00:1450:4002:803::1009
p18
aV2404:6800:4006:804::1002
p19
aV2607:f8b0:4009:800::1001
p20
aV2607:f8b0:4004:800::1009
p21
aV2a00:1450:4001:c02::64
p22
aV2a00:1450:4013:c00::65
p23
aV2a00:1450:4010:c08::66
p24
as.