(dp0
S'tc.v14.cache3.googlevideo.com'
p1
(lp2
V2a00:1450:4002:802::1007
p3
aV2a00:1450:4013:c01::71
p4
aV2a00:1450:4001:c02::66
p5
aV2a00:1450:4017:801::1009
p6
aV2a00:1450:400c:c00::71
p7
aV2607:f8b0:4004:800::1006
p8
aV2a00:1450:4001:804::1005
p9
aV2607:f8b0:4006:808::1006
p10
aV2a00:1450:4007:80a::1003
p11
aV2a00:1450:4013:c00::65
p12
aV2607:f8b0:4004:806::1002
p13
aV2a00:1450:4003:803::100e
p14
aV2607:f8b0:400a:802::1002
p15
aV2a00:1450:4002:803::100e
p16
aV2a00:1450:4013:c01::8a
p17
aV2404:6800:4006:806::1004
p18
aV2607:f8b0:4001:c02::66
p19
aV2a00:1450:4001:c02::64
p20
as.