(dp0
S'tc.v17.cache1.googlevideo.com'
p1
(lp2
V2a00:1450:4013:c00::8b
p3
aV2a00:1450:4016:801::1005
p4
aV2a00:1450:4017:801::1007
p5
aV2a00:1450:4005:808::1008
p6
aV2607:f8b0:4004:800::1005
p7
aV2404:6800:4005:800::1005
p8
aV2a00:1450:4001:802::100e
p9
aV2607:f8b0:400b:80a::1007
p10
aV2607:f8b0:400a:801::1007
p11
aV2a00:1450:4013:c01::64
p12
aV2a00:1450:4002:801::1001
p13
aV2a00:1450:4013:c01::8a
p14
aV2607:f8b0:400c:c03::66
p15
aV2a00:1450:4009:804::1001
p16
aV2607:f8b0:400a:805::1005
p17
aV2a00:1450:4002:803::1001
p18
aV2a00:1450:4013:c00::8b
p19
aV2404:6800:4006:804::100e
p20
aV2607:f8b0:4009:800::1003
p21
aV2607:f8b0:4004:800::1005
p22
aV2a00:1450:4001:c02::8a
p23
aV2a00:1450:4010:c08::66
p24
as.