(dp0
S'tc.v2.cache1.googlevideo.com'
p1
(lp2
V2a00:1450:4017:801::1002
p3
aV2a00:1450:4002:802::1005
p4
aV2a00:1450:4002:803::1008
p5
aV2a00:1450:4013:c01::8a
p6
aV2a00:1450:4001:c02::64
p7
aV2404:6800:4005:800::1004
p8
aV2607:f8b0:400a:802::1008
p9
aV2a00:1450:4007:80a::1003
p10
aV2404:6800:4006:806::1006
p11
as.