(dp0
S'tc.v19.cache8.c.youtube.com'
p1
(lp2
V2a00:1450:4002:802::1006
p3
aV2a00:1450:4013:c01::64
p4
aV2a00:1450:4001:c02::64
p5
aV2a00:1450:4017:801::1006
p6
aV2a00:1450:400c:c00::64
p7
aV2607:f8b0:4004:800::1008
p8
aV2404:6800:4005:800::1004
p9
aV2a00:1450:4001:c02::66
p10
aV2607:f8b0:4006:808::100e
p11
aV2a00:1450:4007:80a::1002
p12
aV2a00:1450:4013:c00::66
p13
aV2607:f8b0:4004:806::1000
p14
aV2607:f8b0:400a:802::1003
p15
aV2a00:1450:4002:803::1002
p16
aV2404:6800:4006:806::1006
p17
aV2607:f8b0:4001:c02::8b
p18
aV2a00:1450:4013:c01::8b
p19
aV2a00:1450:4001:c02::8b
p20
as.