(dp0
S'tc.v18.cache7.googlevideo.com'
p1
(lp2
V2a00:1450:4002:802::1001
p3
aV2a00:1450:4017:801::100e
p4
aV2a00:1450:4013:c00::8a
p5
aV2a00:1450:4016:801::1003
p6
aV2a00:1450:4005:808::1004
p7
aV2607:f8b0:4004:800::1000
p8
aV2404:6800:4005:800::1003
p9
aV2a00:1450:4001:807::1000
p10
aV2607:f8b0:400b:80a::1003
p11
aV2a00:1450:4009:804::100e
p12
aV2a00:1450:4013:c00::64
p13
aV2a00:1450:4002:801::1003
p14
aV2a00:1450:4013:c01::64
p15
aV2607:f8b0:400c:c03::66
p16
aV2607:f8b0:400a:801::1004
p17
aV2607:f8b0:400a:805::1004
p18
aV2a00:1450:4002:803::1003
p19
aV2a00:1450:4013:c00::65
p20
aV2404:6800:4006:804::100e
p21
aV2607:f8b0:4009:800::100e
p22
aV2607:f8b0:4004:800::1000
p23
aV2a00:1450:4001:c02::8a
p24
aV2a00:1450:4010:c08::8a
p25
as.