(dp0
S'tc.v9.cache8.googlevideo.com'
p1
(lp2
V2a00:1450:4002:802::1000
p3
aV2a00:1450:4017:801::100e
p4
aV2a00:1450:4013:c01::8a
p5
aV2a00:1450:4001:c02::71
p6
aV2a00:1450:400c:c00::66
p7
aV2607:f8b0:4004:800::1000
p8
aV2404:6800:4005:800::1007
p9
aV2a00:1450:4001:80c::1004
p10
aV2607:f8b0:4006:808::1004
p11
aV2a00:1450:4007:80a::1000
p12
aV2a00:1450:4013:c00::66
p13
aV2607:f8b0:4004:806::1005
p14
aV2a00:1450:400c:c00::64
p15
aV2607:f8b0:400a:802::1005
p16
aV2a00:1450:4002:803::1009
p17
aV2404:6800:4006:806::1006
p18
aV2607:f8b0:4001:c02::65
p19
aV2607:f8b0:4000:800::1008
p20
aV2a00:1450:4001:c02::66
p21
aV2a00:1450:4013:c01::64
p22
aV2a00:1450:4003:803::1000
p23
as.