(dp0
S'tc.v18.cache4.googlevideo.com'
p1
(lp2
V2a00:1450:4013:c00::8a
p3
aV2a00:1450:4016:801::1003
p4
aV2a00:1450:4017:801::100e
p5
aV2607:f8b0:4004:800::1005
p6
aV2404:6800:4005:800::1009
p7
aV2a00:1450:4001:802::100e
p8
aV2607:f8b0:400b:80a::1003
p9
aV2607:f8b0:400a:801::1004
p10
aV2a00:1450:4013:c00::64
p11
aV2a00:1450:4002:801::1003
p12
aV2a00:1450:4013:c01::71
p13
aV2607:f8b0:400c:c03::66
p14
aV2a00:1450:4009:804::100e
p15
aV2607:f8b0:400a:800::1004
p16
aV2a00:1450:4002:803::1001
p17
aV2a00:1450:4013:c00::65
p18
aV2404:6800:4006:804::1003
p19
aV2607:f8b0:4009:800::100e
p20
aV2607:f8b0:4004:800::1000
p21
aV2a00:1450:4001:c02::8a
p22
aV2a00:1450:4010:c08::8a
p23
as.