(dp0
S'tc.v11.cache4.googlevideo.com'
p1
(lp2
V2a00:1450:4002:802::1006
p3
aV2a00:1450:4017:801::1006
p4
aV2a00:1450:4013:c01::66
p5
aV2a00:1450:4001:c02::64
p6
aV2607:f8b0:4004:806::1000
p7
aV2607:f8b0:4004:800::1003
p8
aV2404:6800:4005:800::1004
p9
aV2a00:1450:4001:805::1003
p10
aV2607:f8b0:4006:808::100e
p11
aV2a00:1450:4007:80a::1002
p12
aV2a00:1450:4013:c00::66
p13
aV2a00:1450:400c:c00::64
p14
aV2a00:1450:4003:803::100e
p15
aV2a00:1450:400c:c00::8a
p16
aV2607:f8b0:400a:802::1003
p17
aV2a00:1450:4002:803::1002
p18
aV2404:6800:4006:806::1005
p19
aV2607:f8b0:4001:c02::8b
p20
aV2607:f8b0:4000:800::1001
p21
aV2a00:1450:4013:c01::8b
p22
aV2a00:1450:4001:c02::8b
p23
as.