(dp0
S'tc.v20.cache8.googlevideo.com'
p1
(lp2
V2a00:1450:4002:802::1009
p3
aV2a00:1450:4017:801::1006
p4
aV2a00:1450:4013:c01::71
p5
aV2a00:1450:4001:c02::66
p6
aV2607:f8b0:4004:806::1006
p7
aV2607:f8b0:4004:800::1000
p8
aV2404:6800:4005:800::1009
p9
aV2a00:1450:4001:c02::8b
p10
aV2607:f8b0:4006:808::100e
p11
aV2a00:1450:4007:80a::1009
p12
aV2a00:1450:4013:c00::65
p13
aV2a00:1450:400c:c00::65
p14
aV2a00:1450:400c:c00::66
p15
aV2607:f8b0:400a:802::1006
p16
aV2404:6800:4006:806::1001
p17
aV2607:f8b0:4001:c02::8b
p18
aV2607:f8b0:4000:800::1002
p19
aV2a00:1450:4013:c01::64
p20
aV2a00:1450:4001:c02::8b
p21
aV2a00:1450:4003:803::1007
p22
as.