(dp0
S'tc.v14.cache3.googlevideo.com'
p1
(lp2
V2a00:1450:4002:802::1004
p3
aV2a00:1450:4013:c00::64
p4
aV2a00:1450:4016:801::1008
p5
aV2a00:1450:4017:801::1000
p6
aV2a00:1450:4005:808::1001
p7
aV2607:f8b0:4004:800::1008
p8
aV2404:6800:4005:800::100e
p9
aV2a00:1450:4001:c02::65
p10
aV2607:f8b0:400b:80a::1005
p11
aV2607:f8b0:400a:801::100e
p12
aV2a00:1450:4013:c01::65
p13
aV2a00:1450:4002:801::1009
p14
aV2a00:1450:4013:c01::64
p15
aV2607:f8b0:400c:c03::8a
p16
aV2a00:1450:4013:c00::71
p17
aV2a00:1450:4009:804::1001
p18
aV2607:f8b0:400a:805::1006
p19
aV2a00:1450:4002:803::1008
p20
aV2404:6800:4006:804::1004
p21
aV2607:f8b0:4009:800::1004
p22
aV2607:f8b0:4004:800::1005
p23
aV2a00:1450:4001:c02::65
p24
aV2a00:1450:4010:c08::8a
p25
as.