(dp0
S'tc.v6.cache5.c.youtube.com'
p1
(lp2
V2a00:1450:4002:802::1004
p3
aV2a00:1450:4013:c00::66
p4
aV2a00:1450:4016:801::1003
p5
aV2a00:1450:4017:801::1009
p6
aV2a00:1450:4005:808::1004
p7
aV2607:f8b0:4004:800::1006
p8
aV2404:6800:4005:800::1005
p9
aV2a00:1450:4001:80a::1006
p10
aV2607:f8b0:400b:80b::100e
p11
aV2607:f8b0:400a:801::1008
p12
aV2a00:1450:4013:c00::71
p13
aV2a00:1450:4002:801::1002
p14
aV2a00:1450:4013:c01::65
p15
aV2607:f8b0:400c:c03::66
p16
aV2a00:1450:4009:804::1006
p17
aV2607:f8b0:400a:800::100e
p18
aV2a00:1450:4002:803::100e
p19
aV2a00:1450:4013:c00::65
p20
aV2404:6800:4006:804::1009
p21
aV2607:f8b0:4009:800::1001
p22
aV2607:f8b0:4004:800::1001
p23
aV2a00:1450:4001:c02::66
p24
aV2a00:1450:4010:c08::71
p25
as.