(dp0
S'tc.v19.cache1.googlevideo.com'
p1
(lp2
V2a00:1450:4002:802::1001
p3
aV2a00:1450:4017:801::100e
p4
aV2a00:1450:4013:c00::8a
p5
aV2a00:1450:4016:801::1000
p6
aV2a00:1450:4005:808::1004
p7
aV2607:f8b0:4004:800::1008
p8
aV2404:6800:4005:800::1003
p9
aV2a00:1450:4001:807::1000
p10
aV2607:f8b0:400b:80a::1003
p11
aV2607:f8b0:400a:801::1004
p12
aV2a00:1450:4013:c00::64
p13
aV2a00:1450:4002:801::1009
p14
aV2a00:1450:4013:c01::71
p15
aV2607:f8b0:400c:c03::8b
p16
aV2a00:1450:4009:804::1004
p17
aV2607:f8b0:400a:800::1004
p18
aV2a00:1450:4002:803::1008
p19
aV2a00:1450:4013:c00::65
p20
aV2404:6800:4006:804::1003
p21
aV2607:f8b0:4009:800::100e
p22
aV2607:f8b0:4004:800::1000
p23
aV2a00:1450:4001:c02::65
p24
aV2a00:1450:4010:c08::8a
p25
as.