(dp0
S'tc.v18.cache4.googlevideo.com'
p1
(lp2
V2a00:1450:4002:802::1004
p3
aV2a00:1450:4017:801::100e
p4
aV2a00:1450:4002:803::1008
p5
aV2404:6800:4006:806::1006
p6
aV2a00:1450:4007:80a::1000
p7
aV2a00:1450:4013:c01::71
p8
aV2a00:1450:4001:c02::66
p9
aV2404:6800:4005:800::1005
p10
aV2a00:1450:4001:c02::8a
p11
aV2607:f8b0:400a:802::1006
p12
as.