(dp0
S'tc.v14.cache8.c.youtube.com'
p1
(lp2
V2a00:1450:4002:802::1005
p3
aV2a00:1450:4017:801::1006
p4
aV2a00:1450:4013:c01::71
p5
aV2a00:1450:4001:c02::8a
p6
aV2607:f8b0:4004:806::1006
p7
aV2607:f8b0:4004:800::1007
p8
aV2404:6800:4005:800::1007
p9
aV2a00:1450:4001:c02::65
p10
aV2607:f8b0:4006:808::1006
p11
aV2a00:1450:400c:c00::8b
p12
aV2a00:1450:4007:80a::1001
p13
aV2a00:1450:4013:c00::66
p14
aV2a00:1450:400c:c00::8b
p15
aV2a00:1450:4003:803::1009
p16
aV2607:f8b0:400a:802::1008
p17
aV2a00:1450:4002:803::1008
p18
aV2a00:1450:4013:c01::8b
p19
aV2404:6800:4006:806::100e
p20
aV2607:f8b0:4001:c02::64
p21
aV2607:f8b0:4000:800::1001
p22
aV2a00:1450:4001:c02::65
p23
as.