(dp0
S'tc.v21.cache1.googlevideo.com'
p1
(lp2
V2a00:1450:4002:802::1009
p3
aV2a00:1450:4013:c00::8b
p4
aV2a00:1450:4016:801::100e
p5
aV2607:f8b0:4004:800::1009
p6
aV2404:6800:4005:800::1007
p7
aV2a00:1450:4017:801::1001
p8
aV2a00:1450:4001:803::1003
p9
aV2607:f8b0:400b:80b::1008
p10
aV2607:f8b0:400a:801::1009
p11
aV2a00:1450:4013:c00::8a
p12
aV2a00:1450:4002:801::1009
p13
aV2a00:1450:4013:c01::8a
p14
aV2a00:1450:4005:808::1000
p15
aV2a00:1450:4013:c00::8b
p16
aV2a00:1450:4009:804::1002
p17
aV2607:f8b0:400a:805::1003
p18
aV2a00:1450:4002:803::1008
p19
aV2404:6800:4006:804::1002
p20
aV2607:f8b0:4009:800::1001
p21
aV2607:f8b0:4004:800::1009
p22
aV2a00:1450:4001:c02::71
p23
aV2a00:1450:4010:c08::8a
p24
as.