(dp0
S'tc.v24.cache3.c.youtube.com'
p1
(lp2
V2a00:1450:4002:802::1003
p3
aV2a00:1450:4017:801::1000
p4
aV2a00:1450:4013:c01::65
p5
aV2a00:1450:4001:c02::64
p6
aV2a00:1450:4013:c00::65
p7
aV2607:f8b0:4004:800::1003
p8
aV2a00:1450:400c:c00::64
p9
aV2607:f8b0:4004:806::1006
p10
aV2a00:1450:4003:803::1000
p11
aV2607:f8b0:400a:802::1008
p12
aV2a00:1450:4002:803::1000
p13
aV2404:6800:4006:806::1005
p14
aV2a00:1450:4001:c02::66
p15
aV2607:f8b0:4001:c02::64
p16
aV2a00:1450:4013:c01::71
p17
aV2a00:1450:4001:c02::8b
p18
aV2a00:1450:4007:80a::1003
p19
aV2607:f8b0:4006:808::1007
p20
as.