(dp0
S'toolbar.google.com.hk'
p1
(lp2
V2a00:1450:4002:802::1001
p3
aV2a00:1450:4013:c00::8a
p4
aV2a00:1450:4016:803::1009
p5
aV2a00:1450:4017:801::1003
p6
aV2a00:1450:4005:808::1001
p7
aV2607:f8b0:4004:800::1006
p8
aV2404:6800:4005:800::1003
p9
aV2a00:1450:4001:c02::71
p10
aV2607:f8b0:400b:80a::1008
p11
aV2607:f8b0:400a:801::1005
p12
aV2a00:1450:4001:80e::100e
p13
aV2a00:1450:4002:801::1009
p14
aV2a00:1450:4013:c01::8a
p15
aV2607:f8b0:400c:c03::66
p16
aV2a00:1450:4009:804::1000
p17
aV2607:f8b0:400a:800::1006
p18
aV2a00:1450:4002:803::100e
p19
aV2a00:1450:4013:c00::64
p20
aV2404:6800:4006:804::1007
p21
aV2607:f8b0:4009:800::1003
p22
aV2607:f8b0:4004:800::1007
p23
aV2a00:1450:4001:c02::65
p24
aV2a00:1450:4010:c08::8b
p25
as.