(dp0
S'translate.googleapis.com'
p1
(lp2
V2a00:1450:4001:c02::5f
p3
aV2a00:1450:4001:c02::5f
p4
aV2607:f8b0:400d:c00::5f
p5
aV2a00:1450:400c:c03::5f
p6
aV2a00:1450:4013:c01::5f
p7
aV2a00:1450:4001:c02::5f
p8
aV2a00:1450:4013:c00::5f
p9
aV2607:f8b0:400d:c04::5f
p10
aV2a00:1450:400c:c00::5f
p11
aV2a00:1450:400c:c03::5f
p12
aV2001:4860:400b:c01::5f
p13
aV2a00:1450:4001:c02::5f
p14
aV2404:6800:4008:c01::5f
p15
aV2404:6800:4008:c01::5f
p16
aV2a00:1450:4001:c02::5f
p17
aV2607:f8b0:4001:c02::5f
p18
aV2607:f8b0:4003:c05::5f
p19
aV2a00:1450:4001:c02::5f
p20
aV2607:f8b0:400d:c06::5f
p21
aV2a00:1450:4013:c01::5f
p22
as.