(dp0
S'translate.google.com.tw'
p1
(lp2
V2a00:1450:4002:802::1018
p3
aV2a00:1450:400d:805::100f
p4
aV2a00:1450:4013:c01::5e
p5
aV2a00:1450:4001:c02::5e
p6
aV2a00:1450:4001:801::1018
p7
aV2607:f8b0:4004:800::100f
p8
aV2404:6800:4005:800::100f
p9
aV2a00:1450:400d:804::1017
p10
aV2607:f8b0:4009:806::101f
p11
aV2a00:1450:400c:c00::5e
p12
aV2a00:1450:4007:80a::100f
p13
aV2a00:1450:4013:c00::5e
p14
aV2607:f8b0:400c:c03::5e
p15
aV2001:4860:400b:c01::5e
p16
aV2a00:1450:4002:803::100f
p17
aV2404:6800:4006:806::1017
p18
aV2607:f8b0:4009:800::101f
p19
aV2607:f8b0:4004:800::101f
p20
aV2a00:1450:400c:c03::5e
p21
aV2a00:1450:4007:805::1017
p22
aV2a00:1450:4005:808::101f
p23
as.