(dp0
S'trends.google.com'
p1
(lp2
V2a00:1450:4002:802::1013
p3
aV2a00:1450:4013:c00::68
p4
aV2a00:1450:4016:801::1014
p5
aV2a00:1450:4017:801::1012
p6
aV2a00:1450:4005:808::1013
p7
aV2607:f8b0:4004:800::1012
p8
aV2404:6800:4005:800::1014
p9
aV2a00:1450:4001:c02::69
p10
aV2607:f8b0:400b:80a::1013
p11
aV2607:f8b0:400a:801::1013
p12
aV2a00:1450:4001:808::1011
p13
aV2a00:1450:4002:801::1011
p14
aV2a00:1450:4013:c01::6a
p15
aV2607:f8b0:400c:c03::69
p16
aV2a00:1450:4009:804::1014
p17
aV2607:f8b0:400a:805::1013
p18
aV2a00:1450:4002:803::1010
p19
aV2a00:1450:4013:c00::68
p20
aV2404:6800:4006:804::1012
p21
aV2607:f8b0:4009:800::1013
p22
aV2607:f8b0:4004:800::1014
p23
aV2a00:1450:4001:c02::69
p24
aV2a00:1450:4010:c08::67
p25
as.