(dp0
S'tw.youtube.com'
p1
(lp2
V2a00:1450:4002:802::1008
p3
aV2a00:1450:4017:801::100e
p4
aV2a00:1450:4013:c01::5b
p5
aV2a00:1450:4001:c02::5d
p6
aV2a00:1450:400c:c00::88
p7
aV2607:f8b0:4004:800::1003
p8
aV2404:6800:4005:800::1002
p9
aV2a00:1450:400d:805::100e
p10
aV2607:f8b0:4006:808::1006
p11
aV2a00:1450:4007:80a::1006
p12
aV2a00:1450:4013:c00::5b
p13
aV2a00:1450:4003:803::1007
p14
aV2a00:1450:400c:c00::5b
p15
aV2607:f8b0:400a:802::1004
p16
aV2a00:1450:4002:803::1003
p17
aV2404:6800:4006:806::1001
p18
aV2607:f8b0:4001:c02::5b
p19
aV2607:f8b0:4000:800::1002
p20
aV2a00:1450:4013:c01::5d
p21
aV2a00:1450:4001:c02::5d
p22
as.