(dp0
S'uk.youtube.com'
p1
(lp2
V2a00:1450:4002:802::100e
p3
aV2a00:1450:4017:801::1000
p4
aV2a00:1450:4013:c00::5b
p5
aV2a00:1450:4016:801::1006
p6
aV2607:f8b0:4004:800::1000
p7
aV2404:6800:4005:800::1009
p8
aV2a00:1450:400d:802::1000
p9
aV2607:f8b0:400b:80b::1008
p10
aV2607:f8b0:400a:801::1009
p11
aV2a00:1450:4001:80b::1000
p12
aV2a00:1450:4002:801::1000
p13
aV2a00:1450:4013:c01::5b
p14
aV2a00:1450:4005:808::1006
p15
aV2a00:1450:4013:c00::5d
p16
aV2a00:1450:4009:804::1004
p17
aV2607:f8b0:400a:805::1008
p18
aV2a00:1450:4002:803::1003
p19
aV2404:6800:4006:804::1003
p20
aV2607:f8b0:4009:800::1005
p21
aV2607:f8b0:4004:800::1001
p22
aV2a00:1450:4001:c02::be
p23
aV2a00:1450:4010:c08::5b
p24
as.