(dp0
S'v1.cache2.c.youtube.com'
p1
(lp2
V2a00:1450:400e:404::10
p3
aV2a00:1450:400e:404::10
p4
aV2a00:1450:400e:404::10
p5
aV2a00:1450:400e:404::10
p6
aV2a00:1450:400e:404::10
p7
aV2a00:1450:400e:404::10
p8
aV2a00:1450:400e:404::10
p9
aV2a00:1450:400e:404::10
p10
aV2a00:1450:400e:404::10
p11
aV2a00:1450:400e:404::10
p12
aV2a00:1450:400e:404::10
p13
aV2a00:1450:400e:404::10
p14
aV2a00:1450:400e:404::10
p15
aV2a00:1450:400e:404::10
p16
as.