(dp0
S'v10.lscache1.c.youtube.com'
p1
(lp2
V2a00:1450:4002:802::1000
p3
aV2a00:1450:4013:c00::64
p4
aV2a00:1450:4016:801::1000
p5
aV2a00:1450:4017:801::1001
p6
aV2a00:1450:4005:808::1000
p7
aV2607:f8b0:4004:800::1005
p8
aV2404:6800:4005:800::1001
p9
aV2a00:1450:4001:80c::1002
p10
aV2607:f8b0:400b:80b::1001
p11
aV2607:f8b0:400a:801::100e
p12
aV2a00:1450:4013:c00::71
p13
aV2a00:1450:4013:c01::8a
p14
aV2607:f8b0:400c:c03::65
p15
aV2a00:1450:4009:804::1001
p16
aV2607:f8b0:400a:800::100e
p17
aV2a00:1450:4002:803::1006
p18
aV2a00:1450:4013:c00::8a
p19
aV2404:6800:4006:804::1006
p20
aV2607:f8b0:4009:800::1001
p21
aV2607:f8b0:4004:800::1004
p22
aV2a00:1450:4001:c02::65
p23
aV2a00:1450:4010:c08::8b
p24
as.