(dp0
S'v10.lscache8.googlevideo.com'
p1
(lp2
V2a00:1450:4002:802::1001
p3
aV2a00:1450:4017:801::1004
p4
aV2a00:1450:4013:c00::66
p5
aV2a00:1450:4016:801::1009
p6
aV2607:f8b0:4004:800::1009
p7
aV2404:6800:4005:800::1008
p8
aV2a00:1450:4001:80a::1001
p9
aV2607:f8b0:400b:80b::1001
p10
aV2607:f8b0:400a:801::1005
p11
aV2a00:1450:4013:c01::64
p12
aV2a00:1450:4013:c01::8a
p13
aV2a00:1450:4005:808::1009
p14
aV2a00:1450:4009:804::100e
p15
aV2607:f8b0:400a:800::1000
p16
aV2a00:1450:4002:803::1008
p17
aV2a00:1450:4013:c00::65
p18
aV2404:6800:4006:804::1002
p19
aV2607:f8b0:4009:800::1001
p20
aV2607:f8b0:4004:800::1001
p21
aV2a00:1450:4001:c02::71
p22
aV2a00:1450:4010:c08::65
p23
as.