(dp0
S'v11.lscache4.c.bigcache.googleapis.com'
p1
(lp2
V2a00:1450:4002:802::1005
p3
aV2a00:1450:4013:c01::65
p4
aV2a00:1450:4001:c02::71
p5
aV2a00:1450:4017:801::1004
p6
aV2607:f8b0:4004:806::1006
p7
aV2607:f8b0:4004:800::1007
p8
aV2a00:1450:4001:c02::64
p9
aV2607:f8b0:4006:808::1006
p10
aV2a00:1450:4007:80a::1001
p11
aV2a00:1450:4013:c00::65
p12
aV2a00:1450:400c:c00::8b
p13
aV2a00:1450:4003:803::1004
p14
aV2607:f8b0:400a:802::1008
p15
aV2a00:1450:4002:803::1008
p16
aV2404:6800:4006:806::100e
p17
aV2607:f8b0:4001:c02::64
p18
aV2a00:1450:4013:c01::8b
p19
aV2a00:1450:4001:c02::65
p20
as.