(dp0
S'v11.lscache3.c.bigcache.googleapis.com'
p1
(lp2
V2a00:1450:4002:802::1005
p3
aV2a00:1450:4013:c01::8b
p4
aV2a00:1450:4001:c02::8a
p5
aV2a00:1450:4017:801::1006
p6
aV2a00:1450:400c:c00::8b
p7
aV2607:f8b0:4004:800::1006
p8
aV2404:6800:4005:800::1004
p9
aV2a00:1450:4001:c02::65
p10
aV2607:f8b0:4006:808::1006
p11
aV2a00:1450:4007:80a::1007
p12
aV2a00:1450:4013:c00::66
p13
aV2607:f8b0:4004:806::1005
p14
aV2a00:1450:4003:803::1004
p15
aV2607:f8b0:400a:802::1006
p16
aV2a00:1450:4002:803::1008
p17
aV2404:6800:4006:806::100e
p18
aV2607:f8b0:4001:c02::64
p19
aV2607:f8b0:4000:800::1001
p20
aV2a00:1450:4013:c01::8b
p21
aV2a00:1450:4001:c02::65
p22
as.