(dp0
S'v12.lscache6.c.bigcache.googleapis.com'
p1
(lp2
V2a00:1450:4002:802::1001
p3
aV2a00:1450:4013:c01::8a
p4
aV2a00:1450:4001:c02::65
p5
aV2a00:1450:4017:801::100e
p6
aV2607:f8b0:4004:806::1004
p7
aV2607:f8b0:4004:800::100e
p8
aV2404:6800:4005:800::1006
p9
aV2a00:1450:4001:808::1007
p10
aV2607:f8b0:4006:808::1007
p11
aV2a00:1450:4007:80a::1003
p12
aV2a00:1450:4013:c00::64
p13
aV2a00:1450:400c:c00::66
p14
aV2a00:1450:4003:803::1004
p15
aV2a00:1450:400c:c00::8a
p16
aV2607:f8b0:400a:802::1004
p17
aV2a00:1450:4002:803::1001
p18
aV2404:6800:4006:806::1006
p19
aV2607:f8b0:4001:c02::65
p20
aV2607:f8b0:4000:800::1008
p21
aV2a00:1450:4001:c02::8b
p22
aV2a00:1450:4013:c01::66
p23
as.