(dp0
S'v12.lscache2.googlevideo.com'
p1
(lp2
V2a00:1450:4007:80a::1005
p3
aV2a00:1450:4002:802::1003
p4
aV2a00:1450:4013:c01::8a
p5
aV2a00:1450:4001:c02::8a
p6
aV2a00:1450:4017:801::1001
p7
aV2a00:1450:4013:c00::66
p8
aV2607:f8b0:4004:806::1009
p9
aV2607:f8b0:4004:800::1004
p10
aV2a00:1450:400c:c00::64
p11
aV2607:f8b0:400a:802::1000
p12
aV2a00:1450:4002:803::1004
p13
aV2404:6800:4005:800::1001
p14
aV2404:6800:4006:806::100e
p15
aV2a00:1450:4001:c02::8a
p16
aV2607:f8b0:4001:c02::8a
p17
aV2a00:1450:4013:c01::71
p18
aV2a00:1450:4001:c02::65
p19
aV2607:f8b0:4006:808::1004
p20
as.