(dp0
S'v13.lscache7.c.bigcache.googleapis.com'
p1
(lp2
V2a00:1450:4002:802::1005
p3
aV2a00:1450:4013:c01::8a
p4
aV2a00:1450:4001:c02::64
p5
aV2a00:1450:4017:801::1002
p6
aV2a00:1450:400c:c00::64
p7
aV2607:f8b0:4004:800::100e
p8
aV2a00:1450:4001:c02::66
p9
aV2607:f8b0:4006:808::1001
p10
aV2a00:1450:4007:80a::1003
p11
aV2a00:1450:4013:c00::66
p12
aV2607:f8b0:4004:806::1002
p13
aV2607:f8b0:400a:802::1008
p14
aV2a00:1450:4002:803::1008
p15
aV2404:6800:4006:806::1005
p16
aV2607:f8b0:4001:c02::66
p17
aV2a00:1450:4013:c01::71
p18
aV2a00:1450:4001:c02::66
p19
as.