(dp0
S'v13.lscache3.c.youtube.com'
p1
(lp2
V2a00:1450:4002:802::1006
p3
aV2a00:1450:4017:801::1006
p4
aV2a00:1450:4013:c01::64
p5
aV2a00:1450:4001:c02::64
p6
aV2607:f8b0:4004:806::1000
p7
aV2607:f8b0:4004:800::1008
p8
aV2607:f8b0:4006:808::100e
p9
aV2a00:1450:4007:80a::1002
p10
aV2a00:1450:4013:c00::66
p11
aV2a00:1450:400c:c00::64
p12
aV2a00:1450:4003:803::100e
p13
aV2a00:1450:400c:c00::8a
p14
aV2607:f8b0:400a:802::1003
p15
aV2a00:1450:4002:803::1002
p16
aV2404:6800:4006:806::1006
p17
aV2607:f8b0:4001:c02::8a
p18
aV2607:f8b0:4000:800::1001
p19
aV2a00:1450:4001:c02::8b
p20
aV2a00:1450:4013:c01::71
p21
as.