(dp0
S'v15.nonxt7.c.youtube.com'
p1
(lp2
V2a00:1450:4002:802::1001
p3
aV2a00:1450:4013:c01::8a
p4
aV2a00:1450:4001:c02::65
p5
aV2a00:1450:4017:801::1006
p6
aV2607:f8b0:4004:800::100e
p7
aV2404:6800:4005:800::1007
p8
aV2a00:1450:4001:808::1007
p9
aV2607:f8b0:4006:808::1008
p10
aV2a00:1450:4007:80a::1003
p11
aV2a00:1450:4013:c00::8b
p12
aV2607:f8b0:4004:806::1004
p13
aV2607:f8b0:400a:802::1003
p14
aV2a00:1450:4002:803::1001
p15
aV2404:6800:4006:806::1004
p16
aV2607:f8b0:4001:c02::65
p17
aV2a00:1450:4013:c01::66
p18
aV2a00:1450:4001:c02::8b
p19
as.