(dp0
S'v15.nonxt3.googlevideo.com'
p1
(lp2
V2a00:1450:4002:802::1001
p3
aV2a00:1450:4017:801::1004
p4
aV2a00:1450:4016:801::1000
p5
aV2607:f8b0:4004:800::1009
p6
aV2404:6800:4005:800::100e
p7
aV2a00:1450:4001:c02::65
p8
aV2607:f8b0:400b:80b::1008
p9
aV2a00:1450:4013:c00::65
p10
aV2607:f8b0:400a:801::1005
p11
aV2a00:1450:4013:c00::64
p12
aV2a00:1450:4002:801::1008
p13
aV2a00:1450:4013:c01::8a
p14
aV2a00:1450:4005:808::1006
p15
aV2a00:1450:4009:804::100e
p16
aV2607:f8b0:400a:800::1005
p17
aV2a00:1450:4002:803::1008
p18
aV2404:6800:4006:804::1004
p19
aV2607:f8b0:4009:800::1003
p20
aV2607:f8b0:4004:800::1006
p21
aV2a00:1450:4001:c02::71
p22
aV2a00:1450:4010:c08::8a
p23
as.