(dp0
S'v16.lscache1.c.youtube.com'
p1
(lp2
V2a00:1450:4002:802::1006
p3
aV2a00:1450:4017:801::1001
p4
aV2a00:1450:4013:c00::8b
p5
aV2a00:1450:4016:801::1000
p6
aV2a00:1450:4005:808::1004
p7
aV2607:f8b0:4004:800::1007
p8
aV2404:6800:4005:800::100e
p9
aV2a00:1450:4001:c02::8b
p10
aV2607:f8b0:400b:80b::1008
p11
aV2607:f8b0:400a:801::1004
p12
aV2a00:1450:4013:c01::8b
p13
aV2a00:1450:4002:801::1009
p14
aV2a00:1450:4013:c01::71
p15
aV2607:f8b0:400c:c03::65
p16
aV2a00:1450:4013:c00::65
p17
aV2a00:1450:4009:804::1005
p18
aV2607:f8b0:400a:805::1002
p19
aV2a00:1450:4002:803::1000
p20
aV2404:6800:4006:804::1007
p21
aV2607:f8b0:4009:800::1001
p22
aV2607:f8b0:4004:800::1008
p23
aV2a00:1450:4001:c02::66
p24
as.