(dp0
S'v16.nonxt6.googlevideo.com'
p1
(lp2
V2a00:1450:4002:802::1005
p3
aV2a00:1450:4017:801::1002
p4
aV2a00:1450:4013:c01::8a
p5
aV2a00:1450:4001:c02::64
p6
aV2607:f8b0:4004:806::1000
p7
aV2607:f8b0:4004:800::100e
p8
aV2404:6800:4005:800::1005
p9
aV2a00:1450:4001:c02::66
p10
aV2607:f8b0:4006:808::100e
p11
aV2a00:1450:4007:80a::1009
p12
aV2a00:1450:4013:c00::66
p13
aV2a00:1450:400c:c00::64
p14
aV2a00:1450:4013:c01::65
p15
aV2a00:1450:4003:803::1000
p16
aV2a00:1450:400c:c00::71
p17
aV2607:f8b0:400a:802::1008
p18
aV2a00:1450:4002:803::1008
p19
aV2404:6800:4006:806::1006
p20
aV2607:f8b0:4001:c02::8a
p21
aV2607:f8b0:4000:800::1004
p22
aV2a00:1450:4001:c02::8b
p23
as.