(dp0
S'v16.lscache3.c.bigcache.googleapis.com'
p1
(lp2
V2a00:1450:4002:802::1004
p3
aV2a00:1450:4013:c00::8b
p4
aV2a00:1450:4016:801::1000
p5
aV2a00:1450:4005:808::1009
p6
aV2607:f8b0:4004:800::1009
p7
aV2a00:1450:4017:801::1004
p8
aV2a00:1450:4001:806::1007
p9
aV2607:f8b0:400b:80b::1004
p10
aV2607:f8b0:400a:801::1000
p11
aV2a00:1450:4013:c01::64
p12
aV2a00:1450:4002:801::1009
p13
aV2a00:1450:4013:c01::71
p14
aV2607:f8b0:400c:c03::71
p15
aV2a00:1450:4013:c00::8b
p16
aV2a00:1450:4009:804::1001
p17
aV2607:f8b0:400a:800::1002
p18
aV2a00:1450:4002:803::1001
p19
aV2404:6800:4006:804::1006
p20
aV2607:f8b0:4009:800::1002
p21
aV2607:f8b0:4004:800::1001
p22
aV2a00:1450:4001:c02::64
p23
aV2a00:1450:4010:c08::8b
p24
as.