(dp0
S'v17.lscache5.c.bigcache.googleapis.com'
p1
(lp2
V2a00:1450:4002:802::1003
p3
aV2a00:1450:4017:801::1005
p4
aV2a00:1450:4013:c00::66
p5
aV2a00:1450:4016:801::1000
p6
aV2607:f8b0:4004:800::1008
p7
aV2404:6800:4005:800::1005
p8
aV2a00:1450:4001:c02::8b
p9
aV2607:f8b0:400b:80b::1008
p10
aV2607:f8b0:400a:801::1001
p11
aV2a00:1450:4013:c01::64
p12
aV2a00:1450:4002:801::1004
p13
aV2a00:1450:4013:c01::71
p14
aV2a00:1450:4005:808::1009
p15
aV2a00:1450:4009:804::1000
p16
aV2607:f8b0:400a:800::100e
p17
aV2a00:1450:4002:803::1000
p18
aV2a00:1450:4013:c00::71
p19
aV2404:6800:4006:804::1002
p20
aV2607:f8b0:4009:800::1002
p21
aV2607:f8b0:4004:800::100e
p22
aV2a00:1450:4001:c02::64
p23
aV2a00:1450:4010:c08::8a
p24
as.