(dp0
S'v17.nonxt1.googlevideo.com'
p1
(lp2
V2a00:1450:4002:802::1004
p3
aV2a00:1450:4017:801::1008
p4
aV2a00:1450:4013:c00::8b
p5
aV2a00:1450:4016:801::1000
p6
aV2607:f8b0:4004:800::1009
p7
aV2404:6800:4005:800::1005
p8
aV2a00:1450:4001:803::100e
p9
aV2607:f8b0:400b:80b::1008
p10
aV2607:f8b0:400a:801::1007
p11
aV2a00:1450:4013:c01::64
p12
aV2a00:1450:4002:801::1004
p13
aV2a00:1450:4013:c01::71
p14
aV2607:f8b0:400c:c03::66
p15
aV2a00:1450:4009:804::1001
p16
aV2607:f8b0:400a:800::100e
p17
aV2a00:1450:4002:803::1000
p18
aV2a00:1450:4013:c00::65
p19
aV2404:6800:4006:804::1009
p20
aV2607:f8b0:4009:800::1002
p21
aV2607:f8b0:4004:800::100e
p22
aV2a00:1450:4001:c02::64
p23
aV2a00:1450:4010:c08::8a
p24
as.