(dp0
S'v17.nonxt8.googlevideo.com'
p1
(lp2
V2a00:1450:4002:802::1003
p3
aV2a00:1450:4017:801::1005
p4
aV2a00:1450:4013:c00::64
p5
aV2a00:1450:4016:801::1007
p6
aV2a00:1450:4005:808::1002
p7
aV2607:f8b0:4004:800::1008
p8
aV2404:6800:4005:800::1005
p9
aV2a00:1450:4001:c02::8b
p10
aV2607:f8b0:400b:80b::1008
p11
aV2a00:1450:4009:804::1000
p12
aV2a00:1450:4013:c01::8a
p13
aV2a00:1450:4002:801::1004
p14
aV2a00:1450:4013:c01::71
p15
aV2607:f8b0:400c:c03::66
p16
aV2a00:1450:4013:c00::71
p17
aV2607:f8b0:400a:801::1009
p18
aV2607:f8b0:400a:800::1005
p19
aV2a00:1450:4002:803::1000
p20
aV2404:6800:4006:804::1002
p21
aV2607:f8b0:4009:800::1003
p22
aV2607:f8b0:4004:800::100e
p23
aV2a00:1450:4001:c02::64
p24
aV2a00:1450:4010:c08::64
p25
as.