(dp0
S'v18.lscache8.c.bigcache.googleapis.com'
p1
(lp2
V2a00:1450:4002:802::1007
p3
aV2a00:1450:4017:801::1003
p4
aV2a00:1450:4013:c01::8a
p5
aV2a00:1450:4001:c02::66
p6
aV2a00:1450:400c:c00::64
p7
aV2607:f8b0:4004:800::1002
p8
aV2404:6800:4005:800::1002
p9
aV2a00:1450:4001:802::100e
p10
aV2607:f8b0:4006:808::1006
p11
aV2a00:1450:4007:80a::100e
p12
aV2a00:1450:4013:c00::8b
p13
aV2607:f8b0:4004:806::1006
p14
aV2a00:1450:4003:803::1008
p15
aV2a00:1450:400c:c00::8b
p16
aV2607:f8b0:400a:802::1003
p17
aV2a00:1450:4002:803::1006
p18
aV2404:6800:4006:806::1001
p19
aV2607:f8b0:4001:c02::71
p20
aV2607:f8b0:4000:800::1008
p21
aV2a00:1450:4013:c01::64
p22
aV2a00:1450:4001:c02::66
p23
as.