(dp0
S'v18.nonxt3.c.youtube.com'
p1
(lp2
V2a00:1450:4002:802::1004
p3
aV2a00:1450:4013:c00::66
p4
aV2a00:1450:4016:801::1009
p5
aV2a00:1450:4005:808::1004
p6
aV2607:f8b0:4004:800::1006
p7
aV2a00:1450:4017:801::1009
p8
aV2a00:1450:4001:c02::8b
p9
aV2607:f8b0:400b:80b::1009
p10
aV2607:f8b0:400a:801::1008
p11
aV2a00:1450:4013:c00::71
p12
aV2a00:1450:4002:801::1002
p13
aV2a00:1450:4013:c01::65
p14
aV2607:f8b0:400c:c03::66
p15
aV2a00:1450:4013:c00::65
p16
aV2a00:1450:4009:804::1006
p17
aV2607:f8b0:400a:800::100e
p18
aV2a00:1450:4002:803::1006
p19
aV2404:6800:4006:804::1009
p20
aV2607:f8b0:4009:800::1001
p21
aV2607:f8b0:4004:800::1001
p22
aV2a00:1450:4001:c02::66
p23
aV2a00:1450:4010:c08::8b
p24
as.