(dp0
S'v19.nonxt8.c.youtube.com'
p1
(lp2
V2a00:1450:4002:802::1007
p3
aV2a00:1450:4017:801::100e
p4
aV2a00:1450:4013:c01::8b
p5
aV2a00:1450:4001:c02::8b
p6
aV2607:f8b0:4004:806::1003
p7
aV2607:f8b0:4004:800::1005
p8
aV2404:6800:4005:800::1002
p9
aV2a00:1450:4001:c02::64
p10
aV2607:f8b0:4006:808::1003
p11
aV2a00:1450:4007:80a::1003
p12
aV2a00:1450:4013:c00::66
p13
aV2a00:1450:400c:c00::64
p14
aV2a00:1450:400c:c00::66
p15
aV2607:f8b0:400a:802::1002
p16
aV2a00:1450:4002:803::1005
p17
aV2404:6800:4006:806::100e
p18
aV2607:f8b0:4001:c02::64
p19
aV2607:f8b0:4000:800::1008
p20
aV2a00:1450:4001:c02::8b
p21
aV2a00:1450:4013:c01::66
p22
aV2a00:1450:4003:803::1004
p23
as.