(dp0
S'v19.nonxt6.googlevideo.com'
p1
(lp2
V2a00:1450:4002:802::1004
p3
aV2a00:1450:4013:c00::65
p4
aV2a00:1450:4016:801::1006
p5
aV2a00:1450:4017:801::1006
p6
aV2a00:1450:4005:808::1009
p7
aV2607:f8b0:4004:800::1008
p8
aV2404:6800:4005:800::1007
p9
aV2a00:1450:4001:c02::66
p10
aV2607:f8b0:400b:80b::1000
p11
aV2607:f8b0:400a:801::1005
p12
aV2a00:1450:4013:c00::65
p13
aV2a00:1450:4002:801::1002
p14
aV2a00:1450:4013:c01::8b
p15
aV2607:f8b0:400c:c03::8b
p16
aV2a00:1450:4009:804::1003
p17
aV2607:f8b0:400a:800::100e
p18
aV2a00:1450:4002:803::1009
p19
aV2404:6800:4006:804::1004
p20
aV2607:f8b0:4009:800::1003
p21
aV2607:f8b0:4004:800::1003
p22
aV2a00:1450:4001:c02::65
p23
aV2a00:1450:4010:c08::8b
p24
as.