(dp0
S'v19.nonxt3.googlevideo.com'
p1
(lp2
V2a00:1450:4002:802::1004
p3
aV2a00:1450:4017:801::100e
p4
aV2a00:1450:4013:c01::71
p5
aV2a00:1450:4001:c02::65
p6
aV2607:f8b0:4004:800::1002
p7
aV2404:6800:4005:800::1003
p8
aV2a00:1450:4001:c02::65
p9
aV2607:f8b0:4006:808::100e
p10
aV2a00:1450:4007:80a::1000
p11
aV2a00:1450:4013:c00::66
p12
aV2a00:1450:400c:c00::64
p13
aV2607:f8b0:400a:802::1006
p14
aV2a00:1450:4002:803::1008
p15
aV2404:6800:4006:806::1006
p16
aV2607:f8b0:4001:c02::64
p17
aV2a00:1450:4013:c01::66
p18
aV2a00:1450:4001:c02::8a
p19
as.