(dp0
S'v2.cache5.c.youtube.com'
p1
(lp2
V2a00:1450:400e:402::11
p3
aV2a00:1450:400e:402::11
p4
aV2a00:1450:400e:402::11
p5
aV2a00:1450:400e:402::11
p6
aV2a00:1450:400e:402::11
p7
aV2a00:1450:400e:402::11
p8
aV2a00:1450:400e:402::11
p9
aV2a00:1450:400e:402::11
p10
aV2a00:1450:400e:402::11
p11
aV2a00:1450:400e:402::11
p12
aV2a00:1450:400e:402::11
p13
aV2a00:1450:400e:402::11
p14
aV2a00:1450:400e:402::11
p15
aV2a00:1450:400e:402::11
p16
aV2a00:1450:400e:402::11
p17
aV2a00:1450:400e:402::11
p18
aV2a00:1450:400e:402::11
p19
aV2a00:1450:400e:402::11
p20
aV2a00:1450:400e:402::11
p21
aV2a00:1450:400e:402::11
p22
aV2a00:1450:400e:402::11
p23
as.