(dp0
S'v2.nonxt1.googlevideo.com'
p1
(lp2
V2a00:1450:4013:c00::65
p3
aV2a00:1450:4016:801::1002
p4
aV2a00:1450:4017:801::1000
p5
aV2a00:1450:4005:808::100e
p6
aV2607:f8b0:4004:800::1003
p7
aV2404:6800:4005:800::1005
p8
aV2a00:1450:4001:80e::1004
p9
aV2607:f8b0:400b:80a::1009
p10
aV2a00:1450:4009:804::1004
p11
aV2a00:1450:4013:c01::66
p12
aV2a00:1450:4002:801::1001
p13
aV2a00:1450:4013:c01::8a
p14
aV2607:f8b0:400c:c03::71
p15
aV2a00:1450:4010:c08::8a
p16
aV2607:f8b0:400a:801::1000
p17
aV2607:f8b0:400a:805::1009
p18
aV2a00:1450:4002:803::1009
p19
aV2404:6800:4006:804::1003
p20
aV2607:f8b0:4009:800::100e
p21
aV2607:f8b0:4004:800::1001
p22
aV2a00:1450:4001:c02::65
p23
aV2a00:1450:4013:c00::8a
p24
as.