(dp0
S'v20.nonxt1.googlevideo.com'
p1
(lp2
V2a00:1450:4017:801::1001
p3
aV2a00:1450:4013:c00::65
p4
aV2a00:1450:4016:801::1006
p5
aV2a00:1450:4005:808::1008
p6
aV2607:f8b0:4004:800::1009
p7
aV2404:6800:4005:800::1007
p8
aV2a00:1450:4001:804::1000
p9
aV2607:f8b0:400b:80b::1000
p10
aV2a00:1450:4009:804::1003
p11
aV2a00:1450:4013:c00::65
p12
aV2a00:1450:4002:801::1006
p13
aV2a00:1450:4013:c01::8b
p14
aV2607:f8b0:400c:c03::8a
p15
aV2607:f8b0:400a:801::1002
p16
aV2607:f8b0:400a:800::1007
p17
aV2a00:1450:4002:803::1008
p18
aV2404:6800:4006:804::1002
p19
aV2607:f8b0:4009:800::1003
p20
aV2607:f8b0:4004:800::1003
p21
aV2a00:1450:4001:c02::65
p22
aV2a00:1450:4010:c08::8b
p23
as.