(dp0
S'v20.lscache2.googlevideo.com'
p1
(lp2
V2a00:1450:4002:802::1001
p3
aV2a00:1450:4013:c00::71
p4
aV2a00:1450:4016:801::1009
p5
aV2a00:1450:4017:801::1009
p6
aV2a00:1450:4005:808::1003
p7
aV2607:f8b0:4004:800::1001
p8
aV2404:6800:4005:800::1000
p9
aV2a00:1450:4001:80d::1009
p10
aV2607:f8b0:400b:80b::1007
p11
aV2607:f8b0:400a:801::1000
p12
aV2a00:1450:4013:c01::66
p13
aV2a00:1450:4002:801::1004
p14
aV2a00:1450:4013:c01::8b
p15
aV2607:f8b0:400c:c03::65
p16
aV2a00:1450:4009:804::1000
p17
aV2607:f8b0:400a:805::1009
p18
aV2a00:1450:4002:803::1007
p19
aV2a00:1450:4013:c00::65
p20
aV2404:6800:4006:804::1005
p21
aV2607:f8b0:4009:800::1001
p22
aV2607:f8b0:4004:800::1000
p23
aV2a00:1450:4001:c02::65
p24
aV2a00:1450:4010:c08::71
p25
as.