(dp0
S'v22.lscache8.c.bigcache.googleapis.com'
p1
(lp2
V2a00:1450:4002:802::1001
p3
aV2a00:1450:4017:801::1006
p4
aV2a00:1450:4013:c00::64
p5
aV2a00:1450:4016:801::1002
p6
aV2a00:1450:4005:808::100e
p7
aV2607:f8b0:4004:800::1005
p8
aV2404:6800:4005:800::1009
p9
aV2a00:1450:4001:808::1006
p10
aV2607:f8b0:400b:80b::1008
p11
aV2607:f8b0:400a:801::100e
p12
aV2a00:1450:4013:c01::64
p13
aV2a00:1450:4002:801::1006
p14
aV2a00:1450:4013:c01::8a
p15
aV2607:f8b0:400c:c03::8b
p16
aV2a00:1450:4009:804::1005
p17
aV2607:f8b0:400a:800::1007
p18
aV2a00:1450:4002:803::1008
p19
aV2404:6800:4006:804::1004
p20
aV2607:f8b0:4009:800::1003
p21
aV2607:f8b0:4004:800::1003
p22
aV2a00:1450:4001:c02::66
p23
aV2a00:1450:4010:c08::8b
p24
as.