(dp0
S'v22.lscache3.c.youtube.com'
p1
(lp2
V2a00:1450:4002:802::1006
p3
aV2a00:1450:4002:801::1005
p4
aV2a00:1450:4013:c00::8b
p5
aV2a00:1450:4013:c00::64
p6
aV2a00:1450:4016:801::1000
p7
aV2a00:1450:4013:c01::8b
p8
aV2607:f8b0:4004:800::1002
p9
aV2607:f8b0:400c:c03::64
p10
aV2607:f8b0:400a:801::1002
p11
aV2607:f8b0:400a:805::1008
p12
aV2a00:1450:4002:803::1008
p13
aV2404:6800:4005:800::1000
p14
aV2404:6800:4006:804::100e
p15
aV2a00:1450:4001:80d::1009
p16
aV2607:f8b0:4009:800::1003
p17
aV2607:f8b0:4004:800::1004
p18
aV2a00:1450:4001:c02::71
p19
aV2a00:1450:4009:804::1001
p20
aV2a00:1450:4010:c08::64
p21
as.