(dp0
S'v22.nonxt4.googlevideo.com'
p1
(lp2
V2a00:1450:4017:801::1009
p3
aV2a00:1450:4013:c00::71
p4
aV2a00:1450:4016:801::1002
p5
aV2a00:1450:4005:808::1003
p6
aV2607:f8b0:4004:800::1009
p7
aV2404:6800:4005:800::1000
p8
aV2a00:1450:4001:80d::1009
p9
aV2607:f8b0:400b:80b::1007
p10
aV2607:f8b0:400a:801::1000
p11
aV2a00:1450:4013:c01::66
p12
aV2a00:1450:4002:801::1004
p13
aV2a00:1450:4013:c01::8b
p14
aV2607:f8b0:400c:c03::66
p15
aV2a00:1450:4009:804::1000
p16
aV2607:f8b0:400a:805::1009
p17
aV2a00:1450:4002:803::1007
p18
aV2a00:1450:4013:c00::65
p19
aV2404:6800:4006:804::100e
p20
aV2607:f8b0:4009:800::1001
p21
aV2607:f8b0:4004:800::1000
p22
aV2a00:1450:4001:c02::65
p23
aV2a00:1450:4010:c08::71
p24
as.