(dp0
S'v23.nonxt5.c.youtube.com'
p1
(lp2
V2a00:1450:4002:802::1005
p3
aV2a00:1450:4017:801::1006
p4
aV2a00:1450:4007:80a::1007
p5
aV2a00:1450:4013:c01::65
p6
aV2a00:1450:4001:c02::8a
p7
aV2a00:1450:400c:c00::8b
p8
aV2607:f8b0:400a:802::1008
p9
aV2a00:1450:4002:803::1008
p10
aV2404:6800:4005:800::1007
p11
aV2404:6800:4006:806::1006
p12
aV2a00:1450:4001:c02::65
p13
as.