(dp0
S'v24.lscache6.c.bigcache.googleapis.com'
p1
(lp2
V2a00:1450:4002:802::1003
p3
aV2a00:1450:4017:801::1006
p4
aV2a00:1450:4013:c01::65
p5
aV2a00:1450:4001:c02::64
p6
aV2a00:1450:400c:c00::64
p7
aV2607:f8b0:4004:800::1003
p8
aV2404:6800:4005:800::1003
p9
aV2a00:1450:4001:c02::66
p10
aV2607:f8b0:4006:808::1006
p11
aV2a00:1450:4007:80a::1003
p12
aV2a00:1450:4013:c00::65
p13
aV2607:f8b0:4004:806::1006
p14
aV2a00:1450:4003:803::1000
p15
aV2a00:1450:400c:c00::66
p16
aV2607:f8b0:400a:802::1003
p17
aV2a00:1450:4002:803::1000
p18
aV2404:6800:4006:806::1005
p19
aV2607:f8b0:4001:c02::64
p20
aV2607:f8b0:4000:800::1005
p21
aV2a00:1450:4013:c01::66
p22
aV2a00:1450:4001:c02::64
p23
as.