(dp0
S'v3.cache7.c.bigcache.googleapis.com'
p1
(lp2
V2a00:1450:400e:403::12
p3
aV2a00:1450:400e:403::12
p4
aV2a00:1450:400e:403::12
p5
aV2a00:1450:400e:403::12
p6
aV2a00:1450:400e:403::12
p7
aV2a00:1450:400e:403::12
p8
aV2a00:1450:400e:403::12
p9
aV2a00:1450:400e:403::12
p10
aV2a00:1450:400e:403::12
p11
aV2a00:1450:400e:403::12
p12
aV2a00:1450:400e:403::12
p13
aV2a00:1450:400e:403::12
p14
aV2a00:1450:400e:403::12
p15
aV2a00:1450:400e:403::12
p16
aV2a00:1450:400e:403::12
p17
aV2a00:1450:400e:403::12
p18
aV2a00:1450:400e:403::12
p19
aV2a00:1450:400e:403::12
p20
aV2a00:1450:400e:403::12
p21
aV2a00:1450:400e:403::12
p22
aV2a00:1450:400e:403::12
p23
as.