(dp0
S'v3.lscache5.c.youtube.com'
p1
(lp2
V2a00:1450:4002:802::1005
p3
aV2a00:1450:4017:801::1002
p4
aV2a00:1450:4013:c01::8a
p5
aV2a00:1450:4001:c02::64
p6
aV2a00:1450:4013:c00::66
p7
aV2a00:1450:400c:c00::64
p8
aV2607:f8b0:4004:800::100e
p9
aV2607:f8b0:4004:806::1009
p10
aV2a00:1450:4003:803::1000
p11
aV2607:f8b0:400a:802::1000
p12
aV2a00:1450:4002:803::1008
p13
aV2404:6800:4005:800::1005
p14
aV2404:6800:4006:806::1007
p15
aV2a00:1450:4001:c02::66
p16
aV2607:f8b0:4001:c02::64
p17
aV2a00:1450:4001:c02::66
p18
aV2a00:1450:4007:80a::1003
p19
aV2607:f8b0:4006:808::1001
p20
aV2a00:1450:4013:c01::65
p21
as.