(dp0
S'v3.nonxt8.googlevideo.com'
p1
(lp2
V2a00:1450:4002:802::1009
p3
aV2a00:1450:4013:c01::64
p4
aV2a00:1450:4001:c02::66
p5
aV2a00:1450:4017:801::1006
p6
aV2607:f8b0:4004:806::1006
p7
aV2607:f8b0:4004:800::1000
p8
aV2404:6800:4005:800::1005
p9
aV2a00:1450:4001:803::100e
p10
aV2607:f8b0:4006:808::1005
p11
aV2a00:1450:4007:80a::1009
p12
aV2a00:1450:4013:c00::65
p13
aV2a00:1450:400c:c00::65
p14
aV2a00:1450:4003:803::1007
p15
aV2607:f8b0:400a:802::1006
p16
aV2404:6800:4006:806::100e
p17
aV2607:f8b0:4001:c02::8b
p18
aV2a00:1450:4013:c01::64
p19
aV2a00:1450:4001:c02::8b
p20
as.