(dp0
S'v4.cache7.googlevideo.com'
p1
(lp2
V2a00:1450:400e:403::13
p3
aV2a00:1450:400e:403::13
p4
aV2a00:1450:400e:403::13
p5
aV2a00:1450:400e:403::13
p6
aV2a00:1450:400e:403::13
p7
aV2a00:1450:400e:403::13
p8
aV2a00:1450:400e:403::13
p9
aV2a00:1450:400e:403::13
p10
aV2a00:1450:400e:403::13
p11
aV2a00:1450:400e:403::13
p12
aV2a00:1450:400e:403::13
p13
aV2a00:1450:400e:403::13
p14
aV2a00:1450:400e:403::13
p15
aV2a00:1450:400e:403::13
p16
aV2a00:1450:400e:403::13
p17
aV2a00:1450:400e:403::13
p18
aV2a00:1450:400e:403::13
p19
aV2a00:1450:400e:403::13
p20
aV2a00:1450:400e:403::13
p21
aV2a00:1450:400e:403::13
p22
aV2a00:1450:400e:403::13
p23
as.