(dp0
S'v4.lscache5.googlevideo.com'
p1
(lp2
V2a00:1450:4002:802::1005
p3
aV2a00:1450:4017:801::1000
p4
aV2a00:1450:4013:c00::64
p5
aV2a00:1450:4016:801::1005
p6
aV2a00:1450:4005:808::1000
p7
aV2607:f8b0:4004:800::1001
p8
aV2404:6800:4005:800::1000
p9
aV2a00:1450:4001:806::1004
p10
aV2607:f8b0:400b:80b::1009
p11
aV2607:f8b0:400a:801::1007
p12
aV2a00:1450:4002:801::1004
p13
aV2a00:1450:4013:c01::8a
p14
aV2607:f8b0:400c:c03::65
p15
aV2a00:1450:4009:804::1008
p16
aV2607:f8b0:400a:805::1002
p17
aV2a00:1450:4002:803::100e
p18
aV2404:6800:4006:804::100e
p19
aV2607:f8b0:4009:800::1009
p20
aV2607:f8b0:4004:800::1007
p21
aV2a00:1450:4013:c00::8a
p22
aV2a00:1450:4001:c02::65
p23
aV2a00:1450:4010:c08::8a
p24
as.