(dp0
S'v5.cache8.googlevideo.com'
p1
(lp2
V2a00:1450:400e:407::14
p3
aV2a00:1450:400e:407::14
p4
aV2a00:1450:400e:407::14
p5
aV2a00:1450:400e:407::14
p6
aV2a00:1450:400e:407::14
p7
aV2a00:1450:400e:407::14
p8
aV2a00:1450:400e:407::14
p9
aV2a00:1450:400e:407::14
p10
aV2a00:1450:400e:407::14
p11
aV2a00:1450:400e:407::14
p12
aV2a00:1450:400e:407::14
p13
aV2a00:1450:400e:407::14
p14
aV2a00:1450:400e:407::14
p15
aV2a00:1450:400e:407::14
p16
aV2a00:1450:400e:407::14
p17
aV2a00:1450:400e:407::14
p18
aV2a00:1450:400e:407::14
p19
aV2a00:1450:400e:407::14
p20
aV2a00:1450:400e:407::14
p21
aV2a00:1450:400e:407::14
p22
aV2a00:1450:400e:407::14
p23
aV2a00:1450:400e:407::14
p24
aV2a00:1450:400e:407::14
p25
as.