(dp0
S'v5.nonxt8.googlevideo.com'
p1
(lp2
V2a00:1450:4002:802::1004
p3
aV2a00:1450:4013:c01::8a
p4
aV2a00:1450:4001:c02::64
p5
aV2a00:1450:4017:801::100e
p6
aV2a00:1450:400c:c00::8a
p7
aV2607:f8b0:4004:800::1005
p8
aV2a00:1450:4001:80d::1007
p9
aV2607:f8b0:4006:808::1007
p10
aV2a00:1450:4007:80a::1008
p11
aV2a00:1450:4013:c00::65
p12
aV2607:f8b0:4004:806::1004
p13
aV2a00:1450:4003:803::1003
p14
aV2a00:1450:400c:c00::8b
p15
aV2607:f8b0:400a:802::1007
p16
aV2a00:1450:4002:803::1003
p17
aV2404:6800:4006:806::1005
p18
aV2607:f8b0:4001:c02::66
p19
aV2607:f8b0:4000:800::1001
p20
aV2a00:1450:4001:c02::8b
p21
aV2a00:1450:4013:c01::71
p22
as.