(dp0
S'v6.cache8.c.bigcache.googleapis.com'
p1
(lp2
V2a00:1450:400e:407::15
p3
aV2a00:1450:400e:407::15
p4
aV2a00:1450:400e:407::15
p5
aV2a00:1450:400e:407::15
p6
aV2a00:1450:400e:407::15
p7
aV2a00:1450:400e:407::15
p8
aV2a00:1450:400e:407::15
p9
aV2a00:1450:400e:407::15
p10
aV2a00:1450:400e:407::15
p11
aV2a00:1450:400e:407::15
p12
aV2a00:1450:400e:407::15
p13
aV2a00:1450:400e:407::15
p14
aV2a00:1450:400e:407::15
p15
aV2a00:1450:400e:407::15
p16
aV2a00:1450:400e:407::15
p17
aV2a00:1450:400e:407::15
p18
aV2a00:1450:400e:407::15
p19
aV2a00:1450:400e:407::15
p20
aV2a00:1450:400e:407::15
p21
aV2a00:1450:400e:407::15
p22
aV2a00:1450:400e:407::15
p23
aV2a00:1450:400e:407::15
p24
aV2a00:1450:400e:407::15
p25
as.