(dp0
S'v7.cache2.c.bigcache.googleapis.com'
p1
(lp2
V2a00:1450:400e:404::16
p3
aV2a00:1450:400e:404::16
p4
aV2a00:1450:400e:404::16
p5
aV2a00:1450:400e:404::16
p6
aV2a00:1450:400e:404::16
p7
aV2a00:1450:400e:404::16
p8
aV2a00:1450:400e:404::16
p9
aV2a00:1450:400e:404::16
p10
aV2a00:1450:400e:404::16
p11
aV2a00:1450:400e:404::16
p12
aV2a00:1450:400e:404::16
p13
aV2a00:1450:400e:404::16
p14
aV2a00:1450:400e:404::16
p15
aV2a00:1450:400e:404::16
p16
aV2a00:1450:400e:404::16
p17
aV2a00:1450:400e:404::16
p18
aV2a00:1450:400e:404::16
p19
aV2a00:1450:400e:404::16
p20
aV2a00:1450:400e:404::16
p21
aV2a00:1450:400e:404::16
p22
aV2a00:1450:400e:404::16
p23
as.