(dp0
S'v7.lscache4.c.bigcache.googleapis.com'
p1
(lp2
V2a00:1450:4002:802::1004
p3
aV2a00:1450:4017:801::100e
p4
aV2a00:1450:4013:c01::71
p5
aV2a00:1450:4001:c02::65
p6
aV2607:f8b0:4004:806::1006
p7
aV2607:f8b0:4004:800::1002
p8
aV2404:6800:4005:800::1005
p9
aV2a00:1450:4001:c02::65
p10
aV2607:f8b0:4006:808::100e
p11
aV2a00:1450:4007:80a::1000
p12
aV2a00:1450:4013:c00::66
p13
aV2a00:1450:400c:c00::64
p14
aV2607:f8b0:400a:802::1001
p15
aV2a00:1450:4002:803::1008
p16
aV2404:6800:4006:806::1005
p17
aV2607:f8b0:4001:c02::66
p18
aV2a00:1450:4001:c02::8a
p19
aV2a00:1450:4013:c01::66
p20
aV2a00:1450:4003:803::1002
p21
as.