(dp0
S'v8.lscache2.googlevideo.com'
p1
(lp2
V2a00:1450:4002:802::1002
p3
aV2a00:1450:4017:801::1003
p4
aV2a00:1450:4013:c00::71
p5
aV2a00:1450:4016:801::1003
p6
aV2a00:1450:4005:808::1009
p7
aV2607:f8b0:4004:800::1007
p8
aV2404:6800:4005:800::100e
p9
aV2a00:1450:4001:80d::1009
p10
aV2607:f8b0:400b:80b::1007
p11
aV2607:f8b0:400a:801::1009
p12
aV2a00:1450:4013:c01::65
p13
aV2a00:1450:4002:801::1008
p14
aV2a00:1450:4013:c01::8b
p15
aV2607:f8b0:400c:c03::8a
p16
aV2a00:1450:4009:804::100e
p17
aV2607:f8b0:400a:800::1000
p18
aV2a00:1450:4002:803::1008
p19
aV2a00:1450:4013:c00::66
p20
aV2404:6800:4006:804::1000
p21
aV2607:f8b0:4009:800::1007
p22
aV2607:f8b0:4004:800::1003
p23
aV2a00:1450:4001:c02::65
p24
aV2a00:1450:4010:c08::66
p25
as.