(dp0
S'v9.nonxt1.c.youtube.com'
p1
(lp2
V2a00:1450:4002:802::1003
p3
aV2a00:1450:4007:80a::1005
p4
aV2a00:1450:4013:c01::8a
p5
aV2a00:1450:4001:c02::8a
p6
aV2a00:1450:4017:801::1008
p7
aV2a00:1450:4013:c00::66
p8
aV2607:f8b0:4004:800::1007
p9
aV2607:f8b0:4004:806::1001
p10
aV2a00:1450:4003:803::1004
p11
aV2607:f8b0:400a:802::1009
p12
aV2a00:1450:4002:803::1004
p13
aV2a00:1450:4013:c01::71
p14
aV2404:6800:4005:800::1002
p15
aV2404:6800:4006:806::1008
p16
aV2a00:1450:4001:c02::8a
p17
aV2a00:1450:400c:c00::71
p18
aV2607:f8b0:4001:c02::64
p19
aV2607:f8b0:4000:800::1001
p20
aV2a00:1450:4001:c02::65
p21
aV2607:f8b0:4006:808::1004
p22
as.