(dp0
S'video.google.com'
p1
(lp2
V2a00:1450:4002:802::1002
p3
aV2a00:1450:4017:801::1004
p4
aV2a00:1450:4013:c00::8a
p5
aV2a00:1450:4016:801::1001
p6
aV2a00:1450:4005:808::1007
p7
aV2607:f8b0:4004:800::1008
p8
aV2404:6800:4005:800::1000
p9
aV2a00:1450:4001:805::1006
p10
aV2607:f8b0:400b:80a::1005
p11
aV2607:f8b0:400a:801::100e
p12
aV2a00:1450:4001:809::1002
p13
aV2a00:1450:4002:801::1005
p14
aV2a00:1450:4013:c01::64
p15
aV2607:f8b0:400c:c03::8b
p16
aV2a00:1450:4009:804::1004
p17
aV2607:f8b0:400a:805::1008
p18
aV2a00:1450:4002:803::100e
p19
aV2a00:1450:4013:c00::66
p20
aV2404:6800:4006:804::100e
p21
aV2607:f8b0:4009:800::1008
p22
aV2607:f8b0:4004:800::1005
p23
aV2a00:1450:4001:c02::71
p24
aV2a00:1450:4010:c08::8a
p25
as.