(dp0
S'wave.google.com'
p1
(lp2
V2a00:1450:4002:802::1001
p3
aV2a00:1450:4017:801::1002
p4
aV2607:f8b0:4004:806::1008
p5
aV2a00:1450:4007:80a::1000
p6
aV2a00:1450:4013:c01::76
p7
aV2a00:1450:4001:c02::76
p8
aV2a00:1450:4013:c00::76
p9
aV2607:f8b0:4004:800::1009
p10
aV2a00:1450:400c:c00::76
p11
aV2a00:1450:4003:803::1007
p12
aV2607:f8b0:400a:802::1008
p13
aV2a00:1450:4002:803::1001
p14
aV2404:6800:4005:800::1008
p15
aV2404:6800:4006:806::1005
p16
aV2a00:1450:400d:802::1000
p17
aV2607:f8b0:4001:c02::76
p18
aV2a00:1450:4013:c01::76
p19
aV2a00:1450:4001:c02::76
p20
aV2607:f8b0:4006:808::1002
p21
as.