(dp0
S'www-opensocial-sandbox.googleusercontent.com'
p1
(lp2
V2a00:1450:4002:802::100b
p3
aV2a00:1450:4017:801::100c
p4
aV2a00:1450:4013:c00::84
p5
aV2a00:1450:4016:801::100a
p6
aV2a00:1450:4005:808::100c
p7
aV2607:f8b0:4004:800::100b
p8
aV2404:6800:4005:800::100b
p9
aV2a00:1450:4001:80a::100a
p10
aV2607:f8b0:400b:80b::100c
p11
aV2607:f8b0:400a:801::100c
p12
aV2a00:1450:4013:c01::84
p13
aV2a00:1450:4002:801::100a
p14
aV2a00:1450:4013:c01::84
p15
aV2607:f8b0:400c:c03::84
p16
aV2a00:1450:4009:804::100c
p17
aV2607:f8b0:400a:800::100b
p18
aV2a00:1450:4013:c00::84
p19
aV2a00:1450:4002:803::100a
p20
aV2404:6800:4006:804::100a
p21
aV2607:f8b0:4009:800::100c
p22
aV2607:f8b0:4004:800::100a
p23
aV2a00:1450:4001:c02::84
p24
aV2a00:1450:4010:c08::84
p25
as.