(dp0
S'www.google.com.hk'
p1
(lp2
V2a00:1450:4002:802::100f
p3
aV2a00:1450:400d:805::100f
p4
aV2a00:1450:4013:c00::5e
p5
aV2a00:1450:4001:c02::5e
p6
aV2607:f8b0:400c:c03::5e
p7
aV2607:f8b0:4004:800::101f
p8
aV2404:6800:4005:800::1018
p9
aV2a00:1450:4001:c02::5e
p10
aV2607:f8b0:4009:806::1018
p11
aV2a00:1450:400c:c01::5e
p12
aV2a00:1450:4001:80b::1018
p13
aV2a00:1450:4016:800::1018
p14
aV2a00:1450:4013:c01::5e
p15
aV2a00:1450:4008:800::1017
p16
aV2607:f8b0:4010:801::100f
p17
aV2001:4860:400b:c01::5e
p18
aV2a00:1450:4002:803::1017
p19
aV2404:6800:4006:804::100f
p20
aV2607:f8b0:4009:800::100f
p21
aV2607:f8b0:4004:800::1018
p22
aV2a00:1450:4001:c02::5e
p23
aV2a00:1450:4005:808::1018
p24
aV2a00:1450:4010:c08::5e
p25
as.