(dp0
S'www.google.com'
p1
(lp2
V2a00:1450:4002:802::1014
p3
aV2a00:1450:400d:805::1014
p4
aV2a00:1450:4013:c01::67
p5
aV2a00:1450:4001:c02::63
p6
aV2607:f8b0:400c:c03::67
p7
aV2607:f8b0:4004:800::1011
p8
aV2404:6800:4005:800::1014
p9
aV2a00:1450:400d:803::1010
p10
aV2607:f8b0:4009:806::1014
p11
aV2a00:1450:4007:80a::1010
p12
aV2a00:1450:4013:c00::67
p13
aV2a00:1450:4001:801::1011
p14
aV2a00:1450:400c:c00::69
p15
aV2001:4860:400b:c01::63
p16
aV2a00:1450:4002:803::1013
p17
aV2404:6800:4006:806::1013
p18
aV2607:f8b0:4009:800::1012
p19
aV2607:f8b0:4004:800::1014
p20
aV2a00:1450:400c:c03::93
p21
aV2a00:1450:4005:808::1012
p22
aV2a00:1450:4007:805::1014
p23
as.