(dp0
S'www.google.com.tr'
p1
(lp2
V2a00:1450:4002:802::100f
p3
aV2a00:1450:400d:805::1018
p4
aV2a00:1450:4013:c00::5e
p5
aV2a00:1450:4001:c02::5e
p6
aV2607:f8b0:4004:800::1017
p7
aV2a00:1450:4001:809::101f
p8
aV2607:f8b0:4009:806::1017
p9
aV2607:f8b0:400a:801::1018
p10
aV2a00:1450:4001:c02::5e
p11
aV2a00:1450:4016:800::101f
p12
aV2a00:1450:4013:c01::5e
p13
aV2607:f8b0:400c:c03::5e
p14
aV2a00:1450:400c:c01::5e
p15
aV2001:4860:400b:c01::5e
p16
aV2a00:1450:4002:803::100f
p17
aV2404:6800:4006:804::1018
p18
aV2607:f8b0:4009:800::1017
p19
aV2607:f8b0:400c:c03::5e
p20
aV2a00:1450:4001:c02::5e
p21
aV2a00:1450:4010:c08::5e
p22
as.