(dp0
S'www.gvt0.cn'
p1
(lp2
V2a00:1450:4001:c02::a0
p3
aV2a00:1450:4013:c00::a0
p4
aV2a00:1450:4001:c02::a0
p5
aV2a00:1450:4001:c02::a0
p6
aV2607:f8b0:400c:c03::a0
p7
aV2607:f8b0:400d:c03::a0
p8
aV2404:6800:4008:c04::a0
p9
aV2a00:1450:4001:c02::a0
p10
aV2607:f8b0:4001:c05::a0
p11
aV2607:f8b0:400e:c01::a0
p12
aV2a00:1450:4013:c01::a0
p13
aV2a00:1450:4001:c02::a0
p14
aV2a00:1450:4013:c01::a0
p15
aV2a00:1450:4001:c02::a0
p16
aV2a00:1450:4010:c08::a0
p17
aV2001:4860:400b:c01::a0
p18
aV2a00:1450:4001:c02::a0
p19
aV2a00:1450:4013:c00::a0
p20
aV2404:6800:4008:c01::a0
p21
aV2607:f8b0:4001:c02::a0
p22
aV2607:f8b0:400d:c03::a0
p23
aV2a00:1450:4001:c02::a0
p24
as.