(dp0
S'www.gmail.com'
p1
(lp2
V2a00:1450:4002:802::1016
p3
aV2a00:1450:4017:801::1015
p4
aV2a00:1450:4013:c01::11
p5
aV2a00:1450:4001:c02::12
p6
aV2607:f8b0:4004:806::1015
p7
aV2607:f8b0:4004:800::1015
p8
aV2404:6800:4005:800::1015
p9
aV2a00:1450:4001:c02::11
p10
aV2607:f8b0:4006:808::1015
p11
aV2a00:1450:4007:80a::1015
p12
aV2a00:1450:4013:c00::53
p13
aV2a00:1450:400c:c00::12
p14
aV2a00:1450:4003:803::1016
p15
aV2a00:1450:400c:c00::53
p16
aV2607:f8b0:400a:802::1016
p17
aV2a00:1450:4002:803::1015
p18
aV2404:6800:4006:806::1016
p19
aV2607:f8b0:4001:c02::53
p20
aV2607:f8b0:4000:800::1015
p21
aV2a00:1450:4001:c02::53
p22
aV2a00:1450:4013:c01::11
p23
as.