(dp0
S'www.googlechinawebmaster.com'
p1
(lp2
V2a00:1450:4002:802::1013
p3
aV2a00:1450:400d:805::1012
p4
aV2a00:1450:4013:c00::68
p5
aV2a00:1450:4001:c02::6a
p6
aV2a00:1450:4010:c04::68
p7
aV2607:f8b0:4004:800::1012
p8
aV2404:6800:4005:800::1013
p9
aV2a00:1450:4001:c02::67
p10
aV2607:f8b0:4009:806::1014
p11
aV2607:f8b0:400a:801::1010
p12
aV2a00:1450:4001:c02::69
p13
aV2a00:1450:4016:800::1011
p14
aV2a00:1450:4013:c01::68
p15
aV2607:f8b0:400c:c03::6a
p16
aV2a00:1450:4005:808::1010
p17
aV2a00:1450:400c:c01::93
p18
aV2001:4860:400b:c01::69
p19
aV2a00:1450:4002:803::1012
p20
aV2404:6800:4006:804::1011
p21
aV2607:f8b0:4009:800::1013
p22
aV2607:f8b0:4004:800::1010
p23
aV2a00:1450:4001:c02::63
p24
aV2a00:1450:4010:c08::69
p25
as.