(dp0
S'www.gstatic.com'
p1
(lp2
V2a00:1450:4002:802::1017
p3
aV2a00:1450:4017:801::1018
p4
aV2a00:1450:4013:c00::5e
p5
aV2a00:1450:4016:801::1017
p6
aV2a00:1450:4005:808::1018
p7
aV2607:f8b0:4004:800::1018
p8
aV2404:6800:4005:800::101f
p9
aV2a00:1450:400d:803::100f
p10
aV2607:f8b0:400b:80b::1017
p11
aV2607:f8b0:400a:801::101f
p12
aV2a00:1450:4001:80e::1018
p13
aV2a00:1450:4002:801::1018
p14
aV2a00:1450:4013:c01::5e
p15
aV2607:f8b0:400c:c03::5e
p16
aV2a00:1450:4009:804::1017
p17
aV2607:f8b0:400a:800::101f
p18
aV2a00:1450:4002:803::100f
p19
aV2404:6800:4006:804::1017
p20
aV2607:f8b0:4009:800::100f
p21
aV2607:f8b0:4004:800::1017
p22
aV2a00:1450:4001:c02::5e
p23
aV2a00:1450:4010:c08::5e
p24
as.