(dp0
S'www.googlesource.com'
p1
(lp2
V2a00:1450:4001:c02::52
p3
aV2a00:1450:4001:c02::52
p4
aV2a00:1450:4013:c00::52
p5
aV2a00:1450:4001:c02::52
p6
aV2a00:1450:4001:c02::52
p7
aV2607:f8b0:400d:c03::52
p8
aV2404:6800:4008:c04::52
p9
aV2a00:1450:4001:c02::52
p10
aV2607:f8b0:4001:c05::52
p11
aV2607:f8b0:400e:c01::52
p12
aV2a00:1450:4013:c00::52
p13
aV2a00:1450:4001:c02::52
p14
aV2a00:1450:4013:c01::52
p15
aV2607:f8b0:400c:c03::52
p16
aV2a00:1450:400c:c01::52
p17
aV2001:4860:400b:c01::52
p18
aV2a00:1450:4001:c02::52
p19
aV2404:6800:4008:c01::52
p20
aV2607:f8b0:4001:c02::52
p21
aV2607:f8b0:400d:c03::52
p22
aV2a00:1450:4013:c00::52
p23
aV2a00:1450:4001:c02::52
p24
aV2a00:1450:4010:c08::52
p25
as.