(dp0
S'www.google.co.za'
p1
(lp2
V2a00:1450:4002:802::1018
p3
aV2a00:1450:400d:805::1018
p4
aV2a00:1450:4013:c00::5e
p5
aV2a00:1450:4001:c02::5e
p6
aV2a00:1450:4008:800::1018
p7
aV2607:f8b0:4004:800::1018
p8
aV2a00:1450:4001:c02::5e
p9
aV2607:f8b0:4009:806::1018
p10
aV2a00:1450:400c:c01::5e
p11
aV2a00:1450:4001:c02::5e
p12
aV2a00:1450:4016:800::1017
p13
aV2a00:1450:4013:c01::5e
p14
aV2607:f8b0:400c:c03::5e
p15
aV2607:f8b0:400a:801::1018
p16
aV2001:4860:400b:c01::5e
p17
aV2a00:1450:4002:803::1017
p18
aV2404:6800:4006:804::1018
p19
aV2607:f8b0:4009:800::100f
p20
aV2607:f8b0:4004:800::101f
p21
aV2a00:1450:4001:c02::5e
p22
aV2a00:1450:4010:c08::5e
p23
as.