(dp0
S'www.google.fr'
p1
(lp2
V2a00:1450:4002:802::1018
p3
aV2a00:1450:4013:c00::5e
p4
aV2a00:1450:4001:c02::5e
p5
aV2a00:1450:400d:805::100f
p6
aV2607:f8b0:4004:800::1017
p7
aV2404:6800:4005:800::100f
p8
aV2a00:1450:4001:809::1018
p9
aV2607:f8b0:4009:806::1017
p10
aV2607:f8b0:400a:801::1017
p11
aV2a00:1450:4001:806::1018
p12
aV2a00:1450:4016:800::100f
p13
aV2a00:1450:4013:c01::5e
p14
aV2607:f8b0:400c:c03::5e
p15
aV2a00:1450:400c:c01::5e
p16
aV2001:4860:400b:c01::5e
p17
aV2a00:1450:4005:808::101f
p18
aV2a00:1450:4002:803::1017
p19
aV2404:6800:4006:804::101f
p20
aV2607:f8b0:4009:800::1017
p21
aV2607:f8b0:4004:800::1017
p22
aV2a00:1450:4001:c02::5e
p23
aV2a00:1450:4010:c08::5e
p24
as.