(dp0
S'www.google.be'
p1
(lp2
V2a00:1450:4002:802::1018
p3
aV2a00:1450:400d:805::101f
p4
aV2a00:1450:4007:805::100f
p5
aV2a00:1450:4013:c01::5e
p6
aV2a00:1450:4001:c02::5e
p7
aV2607:f8b0:400c:c03::5e
p8
aV2607:f8b0:4004:800::1018
p9
aV2404:6800:4005:800::101f
p10
aV2a00:1450:400d:802::101f
p11
aV2607:f8b0:4009:806::101f
p12
aV2a00:1450:4007:80a::1018
p13
aV2a00:1450:4013:c00::5e
p14
aV2a00:1450:4001:801::100f
p15
aV2a00:1450:400c:c00::5e
p16
aV2001:4860:400b:c01::5e
p17
aV2a00:1450:4002:803::1017
p18
aV2a00:1450:4005:808::101f
p19
aV2404:6800:4006:806::100f
p20
aV2607:f8b0:4001:c02::5e
p21
aV2607:f8b0:4004:800::101f
p22
aV2a00:1450:400c:c03::5e
p23
as.