(dp0
S'www.googlechinawebmaster.com'
p1
(lp2
V2a00:1450:4002:802::1011
p3
aV2a00:1450:400d:805::1013
p4
aV2a00:1450:4013:c01::93
p5
aV2a00:1450:4001:c02::69
p6
aV2607:f8b0:400c:c03::68
p7
aV2607:f8b0:4004:800::1011
p8
aV2404:6800:4005:800::1012
p9
aV2a00:1450:400d:802::1013
p10
aV2607:f8b0:4009:806::1013
p11
aV2a00:1450:4007:80a::1012
p12
aV2a00:1450:4013:c00::6a
p13
aV2a00:1450:4001:801::1014
p14
aV2a00:1450:400c:c00::6a
p15
aV2001:4860:400b:c01::69
p16
aV2a00:1450:4005:809::1014
p17
aV2404:6800:4006:806::1013
p18
aV2607:f8b0:4009:800::1012
p19
aV2607:f8b0:4004:800::1013
p20
aV2a00:1450:400c:c03::68
p21
aV2a00:1450:4007:805::1014
p22
as.