(dp0
S'www.google.com'
p1
(lp2
V2a00:1450:4002:802::1011
p3
aV2a00:1450:4013:c00::6a
p4
aV2a00:1450:4001:c02::69
p5
aV2a00:1450:400d:805::1013
p6
aV2a00:1450:4008:800::1014
p7
aV2607:f8b0:4004:800::1010
p8
aV2404:6800:4005:800::1014
p9
aV2a00:1450:4001:c02::93
p10
aV2607:f8b0:4009:806::1010
p11
aV2607:f8b0:400a:801::1012
p12
aV2a00:1450:4001:80d::1011
p13
aV2a00:1450:4016:800::1012
p14
aV2a00:1450:4013:c01::93
p15
aV2607:f8b0:400c:c03::93
p16
aV2a00:1450:400c:c01::67
p17
aV2001:4860:400b:c01::69
p18
aV2a00:1450:4002:803::1011
p19
aV2404:6800:4006:804::1013
p20
aV2607:f8b0:4009:800::1011
p21
aV2607:f8b0:4004:800::1012
p22
aV2a00:1450:4001:c02::68
p23
aV2a00:1450:4010:c08::6a
p24
as.