(dp0
S'www.google.com.pe'
p1
(lp2
V2a00:1450:4002:802::1018
p3
aV2a00:1450:400d:805::100f
p4
aV2a00:1450:4001:c02::5e
p5
aV2607:f8b0:4004:800::1018
p6
aV2404:6800:4005:800::100f
p7
aV2a00:1450:4001:c02::5e
p8
aV2607:f8b0:4009:806::1018
p9
aV2a00:1450:400c:c01::5e
p10
aV2a00:1450:4001:804::101f
p11
aV2a00:1450:4016:800::101f
p12
aV2a00:1450:4013:c01::5e
p13
aV2a00:1450:4008:800::1018
p14
aV2607:f8b0:400a:801::1017
p15
aV2001:4860:400b:c01::5e
p16
aV2a00:1450:4002:803::100f
p17
aV2404:6800:4006:804::1017
p18
aV2607:f8b0:4009:800::100f
p19
aV2607:f8b0:4004:800::1017
p20
aV2a00:1450:4001:c02::5e
p21
aV2a00:1450:4005:808::1018
p22
aV2a00:1450:4010:c08::5e
p23
as.