(dp0
S'www.orkut.gmodules.com'
p1
(lp2
V2a00:1450:4001:c02::56
p3
aV2a00:1450:4001:c02::56
p4
aV2a00:1450:4013:c00::57
p5
aV2a00:1450:4001:c02::57
p6
aV2a00:1450:4001:c02::57
p7
aV2607:f8b0:400d:c03::56
p8
aV2404:6800:4008:c04::56
p9
aV2a00:1450:4001:c02::55
p10
aV2607:f8b0:4001:c05::55
p11
aV2a00:1450:400c:c01::57
p12
aV2a00:1450:4013:c00::55
p13
aV2a00:1450:4001:c02::56
p14
aV2a00:1450:4013:c01::57
p15
aV2607:f8b0:400c:c03::56
p16
aV2607:f8b0:400e:c01::57
p17
aV2001:4860:400b:c01::55
p18
aV2a00:1450:4001:c02::55
p19
aV2404:6800:4008:c01::55
p20
aV2607:f8b0:4001:c02::55
p21
aV2607:f8b0:400d:c03::57
p22
aV2a00:1450:4013:c00::56
p23
aV2a00:1450:4001:c02::57
p24
aV2a00:1450:4010:c08::55
p25
as.