(dp0
S'www.google.co.nz'
p1
(lp2
V2a00:1450:4002:802::101f
p3
aV2a00:1450:400d:805::101f
p4
aV2a00:1450:4013:c01::5e
p5
aV2a00:1450:4001:c02::5e
p6
aV2607:f8b0:400c:c03::5e
p7
aV2607:f8b0:4004:800::1017
p8
aV2a00:1450:400d:802::1017
p9
aV2607:f8b0:4009:806::1017
p10
aV2a00:1450:4007:80a::101f
p11
aV2a00:1450:4013:c00::5e
p12
aV2a00:1450:4001:801::1017
p13
aV2a00:1450:4007:805::100f
p14
aV2a00:1450:4009:806::1018
p15
aV2001:4860:400b:c01::5e
p16
aV2a00:1450:4002:803::100f
p17
aV2404:6800:4006:806::100f
p18
aV2607:f8b0:4009:800::1018
p19
aV2607:f8b0:4004:800::1018
p20
aV2a00:1450:4005:808::100f
p21
aV2a00:1450:400c:c03::5e
p22
as.