(dp0
S'www.gstatic.com'
p1
(lp2
V2a00:1450:4002:802::100f
p3
aV2a00:1450:4017:801::101f
p4
aV2a00:1450:4013:c01::5e
p5
aV2a00:1450:4001:c02::5e
p6
aV2607:f8b0:4004:806::100f
p7
aV2607:f8b0:4004:800::101f
p8
aV2404:6800:4005:800::1017
p9
aV2a00:1450:400d:803::100f
p10
aV2607:f8b0:4006:808::100f
p11
aV2a00:1450:4007:80a::1018
p12
aV2a00:1450:4013:c00::5e
p13
aV2a00:1450:400c:c00::5e
p14
aV2a00:1450:400c:c00::5e
p15
aV2607:f8b0:400a:802::1017
p16
aV2a00:1450:4002:803::100f
p17
aV2404:6800:4006:806::100f
p18
aV2607:f8b0:4001:c02::5e
p19
aV2607:f8b0:4000:800::101f
p20
aV2a00:1450:4001:c02::5e
p21
aV2a00:1450:4013:c01::5e
p22
aV2a00:1450:4003:803::1018
p23
as.