(dp0
S'www.google.com.pk'
p1
(lp2
V2a00:1450:4002:802::1018
p3
aV2a00:1450:400d:805::1018
p4
aV2a00:1450:4013:c01::5e
p5
aV2a00:1450:4001:c02::5e
p6
aV2607:f8b0:400c:c03::5e
p7
aV2607:f8b0:4004:800::100f
p8
aV2404:6800:4005:800::1018
p9
aV2a00:1450:400d:802::1018
p10
aV2607:f8b0:4009:806::101f
p11
aV2a00:1450:4007:80a::1018
p12
aV2a00:1450:4013:c00::5e
p13
aV2a00:1450:4001:801::1017
p14
aV2a00:1450:4007:805::1017
p15
aV2a00:1450:400c:c00::5e
p16
aV2001:4860:400b:c01::5e
p17
aV2a00:1450:4002:803::101f
p18
aV2a00:1450:4005:808::1018
p19
aV2404:6800:4006:806::1017
p20
aV2607:f8b0:4009:800::100f
p21
aV2607:f8b0:4004:800::101f
p22
aV2a00:1450:400c:c03::5e
p23
as.