(dp0
S'www.l.google.com'
p1
(lp2
V2a00:1450:4002:802::1011
p3
aV2a00:1450:400d:805::1014
p4
aV2a00:1450:4013:c01::63
p5
aV2a00:1450:4001:c02::6a
p6
aV2a00:1450:4013:c00::93
p7
aV2607:f8b0:4004:800::1014
p8
aV2a00:1450:4001:801::1014
p9
aV2607:f8b0:400c:c03::68
p10
aV2a00:1450:4007:805::1013
p11
aV2001:4860:400b:c01::68
p12
aV2a00:1450:4002:803::1010
p13
aV2404:6800:4005:800::1013
p14
aV2404:6800:4006:806::1012
p15
aV2a00:1450:400d:802::1012
p16
aV2607:f8b0:4009:800::1013
p17
aV2607:f8b0:4004:800::1012
p18
aV2a00:1450:400c:c03::6a
p19
aV2a00:1450:4007:80a::1014
p20
aV2607:f8b0:4009:806::1014
p21
aV2a00:1450:4005:808::1012
p22
as.