(dp0
S'www2.l.google.com'
p1
(lp2
V2a00:1450:4002:802::1011
p3
aV2a00:1450:4017:801::1010
p4
aV2a00:1450:4013:c01::63
p5
aV2a00:1450:4001:c02::93
p6
aV2a00:1450:400c:c00::68
p7
aV2607:f8b0:4004:800::1010
p8
aV2a00:1450:400d:805::1010
p9
aV2607:f8b0:4006:808::1010
p10
aV2a00:1450:4007:80a::1013
p11
aV2a00:1450:4013:c00::6a
p12
aV2607:f8b0:4004:806::1012
p13
aV2a00:1450:4003:803::1012
p14
aV2a00:1450:400c:c00::69
p15
aV2607:f8b0:400a:802::1013
p16
aV2a00:1450:4002:803::1012
p17
aV2404:6800:4006:806::1013
p18
aV2607:f8b0:4001:c02::69
p19
aV2607:f8b0:4000:800::1010
p20
aV2a00:1450:4013:c01::6a
p21
aV2a00:1450:4001:c02::6a
p22
as.