(dp0
S'www4.l.google.com'
p1
(lp2
V2a00:1450:4002:802::1001
p3
aV2a00:1450:4017:801::1001
p4
aV2a00:1450:4013:c01::76
p5
aV2a00:1450:4001:c02::76
p6
aV2607:f8b0:4004:806::1006
p7
aV2607:f8b0:4004:800::1002
p8
aV2a00:1450:400d:805::1000
p9
aV2607:f8b0:4006:808::100e
p10
aV2a00:1450:4007:80a::1004
p11
aV2a00:1450:4013:c00::76
p12
aV2a00:1450:400c:c00::76
p13
aV2607:f8b0:400a:802::100e
p14
aV2a00:1450:4002:803::1002
p15
aV2a00:1450:4013:c01::76
p16
aV2404:6800:4006:806::1005
p17
aV2607:f8b0:4001:c02::76
p18
aV2607:f8b0:4000:800::1000
p19
aV2a00:1450:4001:c02::76
p20
aV2a00:1450:4003:803::1005
p21
as.