(lp0
(lp1
S'1-open-opensocial.googleusercontent.com'
p2
aS'1-wave-opensocial.googleusercontent.com'
p3
aS'1.bp.blogspot.com'
p4
aS'1.docs.google.com'
p5
aS'1.drive.google.com'
p6
aS'1.gvt0.cn'
p7
aS'1.gvt0.com'
p8
aS'1.ig.gmodules.com'
p9
aS'10-wave-opensocial.googleusercontent.com'
p10
aS'10.docs.google.com'
p11
aS'10.drive.google.com'
p12
aS'11-wave-opensocial.googleusercontent.com'
p13
aS'11.docs.google.com'
p14
aS'11.drive.google.com'
p15
aS'12-wave-opensocial.googleusercontent.com'
p16
aS'12.docs.google.com'
p17
aS'12.drive.google.com'
p18
aS'13-wave-opensocial.googleusercontent.com'
p19
aS'13.docs.google.com'
p20
aS'13.drive.google.com'
p21
aS'14-wave-opensocial.googleusercontent.com'
p22
aS'14.docs.google.com'
p23
aS'14.drive.google.com'
p24
aS'15-wave-opensocial.googleusercontent.com'
p25
aS'15.docs.google.com'
p26
aS'15.drive.google.com'
p27
aS'16-wave-opensocial.googleusercontent.com'
p28
aS'16.docs.google.com'
p29
aS'16.drive.google.com'
p30
aS'17-wave-opensocial.googleusercontent.com'
p31
aS'18-wave-opensocial.googleusercontent.com'
p32
aS'19-wave-opensocial.googleusercontent.com'
p33
aS'2-focus-opensocial.googleusercontent.com'
p34
aS'2-open-opensocial.googleusercontent.com'
p35
aS'2-wave-opensocial.googleusercontent.com'
p36
aS'2.bp.blogspot.com'
p37
aS'2.docs.google.com'
p38
aS'2.drive.google.com'
p39
aS'2.gvt0.cn'
p40
aS'2.gvt0.com'
p41
aS'2.ig.gmodules.com'
p42
aS'20-wave-opensocial.googleusercontent.com'
p43
aS'21-wave-opensocial.googleusercontent.com'
p44
aS'22-wave-opensocial.googleusercontent.com'
p45
aS'23-wave-opensocial.googleusercontent.com'
p46
aS'24-wave-opensocial.googleusercontent.com'
p47
aS'25-wave-opensocial.googleusercontent.com'
p48
aS'26-wave-opensocial.googleusercontent.com'
p49
aS'265.com'
p50
aS'27-wave-opensocial.googleusercontent.com'
p51
aS'28-wave-opensocial.googleusercontent.com'
p52
aS'29-wave-opensocial.googleusercontent.com'
p53
aS'3-focus-opensocial.googleusercontent.com'
p54
aS'3-open-opensocial.googleusercontent.com'
p55
aS'3-wave-opensocial.googleusercontent.com'
p56
aS'3.bp.blogspot.com'
p57
aS'3.docs.google.com'
p58
aS'3.drive.google.com'
p59
aS'3.gvt0.cn'
p60
aS'3.gvt0.com'
p61
aS'3.ig.gmodules.com'
p62
aS'30-wave-opensocial.googleusercontent.com'
p63
aS'31-wave-opensocial.googleusercontent.com'
p64
aS'32-wave-opensocial.googleusercontent.com'
p65
aS'33-wave-opensocial.googleusercontent.com'
p66
aS'34-wave-opensocial.googleusercontent.com'
p67
aS'35-wave-opensocial.googleusercontent.com'
p68
aS'36-wave-opensocial.googleusercontent.com'
p69
aS'37-wave-opensocial.googleusercontent.com'
p70
aS'38-wave-opensocial.googleusercontent.com'
p71
aS'39-wave-opensocial.googleusercontent.com'
p72
aS'4-wave-opensocial.googleusercontent.com'
p73
aS'4.bp.blogspot.com'
p74
aS'4.docs.google.com'
p75
aS'4.drive.google.com'
p76
aS'4.gvt0.com'
p77
aS'4.ig.gmodules.com'
p78
aS'40-wave-opensocial.googleusercontent.com'
p79
aS'4098j3r7bdqqvlggmhbnlu6u5i8d08jq-a-oz-opensocial.googleusercontent.com'
p80
aS'4fjvqid3r3oq66t548clrdj52df15coc-a-oz-opensocial.googleusercontent.com'
p81
aS'4lam9a1ki27mb9p1h5q3furvvf58ss02-a-gm-opensocial.googleusercontent.com'
p82
aS'5-wave-opensocial.googleusercontent.com'
p83
aS'5.docs.google.com'
p84
aS'5.drive.google.com'
p85
aS'5.gvt0.com'
p86
aS'5.ig.gmodules.com'
p87
aS'53rd6p0catml6vat6qra84rs0del836d-a-oz-opensocial.googleusercontent.com'
p88
aS'59cbv4l9s05pbaks9v77vc3mengeqors-a-oz-opensocial.googleusercontent.com'
p89
aS'6-wave-opensocial.googleusercontent.com'
p90
aS'6.docs.google.com'
p91
aS'6.drive.google.com'
p92
aS'6.ig.gmodules.com'
p93
aS'7-wave-opensocial.googleusercontent.com'
p94
aS'7.docs.google.com'
p95
aS'7.drive.google.com'
p96
aS'8-wave-opensocial.googleusercontent.com'
p97
aS'8.docs.google.com'
p98
aS'8.drive.google.com'
p99
aS'8fkcem1ves287v3g5lu9gep1j91p3kk1-a-fc-opensocial.googleusercontent.com'
p100
aS'8kubpeu8314p2efdd7jlv09an9i2ljdo-a-oz-opensocial.googleusercontent.com'
p101
aS'9-wave-opensocial.googleusercontent.com'
p102
aS'9.docs.google.com'
p103
aS'9.drive.google.com'
p104
aS'accounts.google.com'
p105
aS'accounts.google.com.hk'
p106
aS'accounts.l.google.com'
p107
aS'accounts.youtube.com'
p108
aS'ads.gmodules.com'
p109
aS'ads.youtube.com'
p110
aS'adsense-zhs.blogspot.com'
p111
aS'adstvca8k2ooaknjjmv89j22n9t676ve-a-oz-opensocial.googleusercontent.com'
p112
aS'adwordsapi.blogspot.com'
p113
aS'ajax.googleapis.com'
p114
aS'android-developers.blogspot.com'
p115
aS'android.googlesource.com'
p116
aS'androidmarket.googleusercontent.com'
p117
aS'answers.google.com'
p118
aS'apacdeveloper.blogspot.com'
p119
aS'apiblog.youtube.com'
p120
aS'apis.google.com'
p121
aS'appengine.google.com'
p122
aS'apps.facebook.com'
p123
aS'apps.google.com'
p124
aS'appspot.l.google.com'
p125
aS'attachments.facebook.com'
p126
aS'au.youtube.com'
p127
aS'auth.keyhole.com'
p128
aS'b.googlemail.l.google.com'
p129
aS'base.googlehosted.com'
p130
aS'base0.googlehosted.com'
p131
aS'base1.googlehosted.com'
p132
aS'base2.googlehosted.com'
p133
aS'base3.googlehosted.com'
p134
aS'base4.googlehosted.com'
p135
aS'base5.googlehosted.com'
p136
aS'beta.blogger.com'
p137
aS'bks0.books.google.com'
p138
aS'bks0.books.google.com.hk'
p139
aS'bks1.books.google.com'
p140
aS'bks1.books.google.com.hk'
p141
aS'bks10.books.google.com'
p142
aS'www.textcube.com'
p143
aS'bks10.books.google.com.hk'
p144
aS'bks2.books.google.com'
p145
aS'bks2.books.google.com.hk'
p146
aS'bks3.books.google.com'
p147
aS'bks3.books.google.com.hk'
p148
aS'bks4.books.google.com'
p149
aS'bks4.books.google.com.hk'
p150
aS'bks5.books.google.com'
p151
aS'bks5.books.google.com.hk'
p152
aS'bks6.books.google.com'
p153
aS'bks6.books.google.com.hk'
p154
aS'bks7.books.google.com'
p155
aS'bks7.books.google.com.hk'
p156
aS'bks8.books.google.com'
p157
aS'bks8.books.google.com.hk'
p158
aS'bks9.books.google.com'
p159
aS'bks9.books.google.com.hk'
p160
aS'blob-s-docs.googlegroups.com'
p161
aS'blog.chromium.org'
p162
aS'blog.orkut.com'
p163
aS'blogger.com'
p164
aS'blogger.google.com'
p165
aS'blogger.googleusercontent.com'
p166
aS'blogger.l.google.com'
p167
aS'bloggerphotos.l.google.com'
p168
aS'bloggertemplatespreview.blogspot.com'
p169
aS'blogsearch.google.cn'
p170
aS'blogsearch.google.com'
p171
aS'blogsearch.google.com.hk'
p172
aS'blogsearch.google.com.tw'
p173
aS'blogsofnote.blogspot.com'
p174
aS'blogspot.com'
p175
aS'blogspot.l.google.com'
p176
aS'bodybrowser.googlelabs.com'
p177
aS'books.google.cn'
p178
aS'books.google.com'
p179
aS'books.google.com.hk'
p180
aS'booksearch.blogspot.com'
p181
aS'bp0.blogger.com'
p182
aS'bp1.blogger.com'
p183
aS'bp2.blogger.com'
p184
aS'bp3.blogger.com'
p185
aS'browserchannel-docs.l.google.com'
p186
aS'browsersize.googlelabs.com'
p187
aS'bt26mravu2qpe56n8gnmjnpv2inl84bf-a-oz-opensocial.googleusercontent.com'
p188
aS'bucket.commondatastorage.googleapis.com'
p189
aS'buzz.blogger.com'
p190
aS'buttons.blogger.com'
p191
aS'buzz.google.com'
p192
aS'c.commondatastorage.googleapis.com'
p193
aS'ca.youtube.com'
p194
aS'cache.l.google.com'
p195
aS'cache.pack.google.com'
p196
aS'calendar.google.com'
p197
aS'cbk1.google.com'
p198
aS'cbk2.google.com'
p199
aS'cbk3.google.com'
p200
aS'cbks0.google.com'
p201
aS'cbks1.google.com'
p202
aS'cbks2.google.com'
p203
aS'cbks3.google.com'
p204
aS'chart.apis.google.com'
p205
aS'chart.googleapis.com'
p206
aS'chatenabled.mail.google.com'
p207
aS'check6.facebook.com'
p208
aS'chrome.blogspot.com'
p209
aS'chrome.google.com'
p210
aS'chromium-browser-symbols.commondatastorage.googleapis.com'
p211
aS'chromium.googlecode.com'
p212
aS'chromium.org'
p213
aS'citytours.googlelabs.com'
p214
aS'clients.l.google.com'
p215
aS'clients1.google.com'
p216
aS'clients1.google.com.hk'
p217
aS'clients1.google.com.tw'
p218
aS'clients1.googleusercontent.com'
p219
aS'clients2.google.com'
p220
aS'clients2.googleusercontent.com'
p221
aS'clients3.google.com'
p222
aS'clients4.google.com'
p223
aS'clients5.google.com'
p224
aS'clients6.google.com'
p225
aS'closure-library.googlecode.com'
p226
aS'code-opensocial.googleusercontent.com'
p227
aS'code.google.com'
p228
aS'code.l.google.com'
p229
aS'codereview.appspot.com'
p230
aS'commondatastorage.googleapis.com'
p231
aS'connect.facebook.com'
p232
aS'correlate.googlelabs.com'
p233
aS'csi.gstatic.com'
p234
aS'csi.l.google.com'
p235
aS'datawiki.googlelabs.com'
p236
aS'de.youtube.com'
p237
aS'debh8vg7vd93bco3prdajidmm7dhql3f-a-oz-opensocial.googleusercontent.com'
p238
aS'dev.chromium.org'
p239
aS'developers.facebook.com'
p240
aS'developers.google.com'
p241
aS'dir.google.com'
p242
aS'directory.google.com'
p243
aS'ditu.google.cn'
p244
aS'ditu.google.com'
p245
aS'dl-ssl.google.com'
p246
aS'dl.google.com'
p247
aS'dl.l.google.com'
p248
aS'doc-00-1k-docs.googleusercontent.com'
p249
aS'doc-00-1o-docs.googleusercontent.com'
p250
aS'doc-00-2g-3dwarehouse.googleusercontent.com'
p251
aS'doc-00-6c-docs.googleusercontent.com'
p252
aS'doc-00-7o-docs.googleusercontent.com'
p253
aS'doc-00-8k-docs.googleusercontent.com'
p254
aS'doc-00-9k-docs.googleusercontent.com'
p255
aS'doc-00-as-docs.googleusercontent.com'
p256
aS'doc-04-1o-docs.googleusercontent.com'
p257
aS'doc-04-2g-3dwarehouse.googleusercontent.com'
p258
aS'doc-04-6c-docs.googleusercontent.com'
p259
aS'doc-04-7o-docs.googleusercontent.com'
p260
aS'doc-04-8k-docs.googleusercontent.com'
p261
aS'doc-04-9k-docs.googleusercontent.com'
p262
aS'doc-04-as-docs.googleusercontent.com'
p263
aS'doc-08-1o-docs.googleusercontent.com'
p264
aS'doc-08-2g-3dwarehouse.googleusercontent.com'
p265
aS'doc-08-6c-docs.googleusercontent.com'
p266
aS'doc-08-7o-docs.googleusercontent.com'
p267
aS'doc-08-8k-docs.googleusercontent.com'
p268
aS'doc-08-9k-docs.googleusercontent.com'
p269
aS'doc-08-as-docs.googleusercontent.com'
p270
aS'doc-0c-1o-docs.googleusercontent.com'
p271
aS'doc-0c-2g-3dwarehouse.googleusercontent.com'
p272
aS'doc-0c-6c-docs.googleusercontent.com'
p273
aS'doc-0c-7o-docs.googleusercontent.com'
p274
aS'doc-0c-8k-docs.googleusercontent.com'
p275
aS'doc-0c-9k-docs.googleusercontent.com'
p276
aS'doc-0c-as-docs.googleusercontent.com'
p277
aS'doc-0g-1o-docs.googleusercontent.com'
p278
aS'doc-0g-2g-3dwarehouse.googleusercontent.com'
p279
aS'doc-0g-6c-docs.googleusercontent.com'
p280
aS'doc-0g-7o-docs.googleusercontent.com'
p281
aS'doc-0g-8k-docs.googleusercontent.com'
p282
aS'doc-0g-9k-docs.googleusercontent.com'
p283
aS'doc-0g-as-docs.googleusercontent.com'
p284
aS'www.youtube-nocookie.com'
p285
aS'doc-0k-1o-docs.googleusercontent.com'
p286
aS'doc-0k-2g-3dwarehouse.googleusercontent.com'
p287
aS'doc-0k-38-docs.googleusercontent.com'
p288
aS'doc-0k-6c-docs.googleusercontent.com'
p289
aS'doc-0k-7o-docs.googleusercontent.com'
p290
aS'doc-0k-8k-docs.googleusercontent.com'
p291
aS'doc-0k-9k-docs.googleusercontent.com'
p292
aS'doc-0k-as-docs.googleusercontent.com'
p293
aS'doc-0o-1o-docs.googleusercontent.com'
p294
aS'doc-0o-2g-3dwarehouse.googleusercontent.com'
p295
aS'doc-0o-6c-docs.googleusercontent.com'
p296
aS'doc-0o-74-docs.googleusercontent.com'
p297
aS'doc-0o-7o-docs.googleusercontent.com'
p298
aS'doc-0o-8k-docs.googleusercontent.com'
p299
aS'doc-0o-9k-docs.googleusercontent.com'
p300
aS'doc-0o-as-docs.googleusercontent.com'
p301
aS'doc-0s-1o-docs.googleusercontent.com'
p302
aS'doc-0s-2g-3dwarehouse.googleusercontent.com'
p303
aS'doc-0s-6c-docs.googleusercontent.com'
p304
aS'doc-0s-7o-docs.googleusercontent.com'
p305
aS'doc-0s-8k-docs.googleusercontent.com'
p306
aS'doc-0s-9k-docs.googleusercontent.com'
p307
aS'doc-0s-as-docs.googleusercontent.com'
p308
aS'doc-10-1o-docs.googleusercontent.com'
p309
aS'doc-10-2c-docs.googleusercontent.com'
p310
aS'doc-10-2g-3dwarehouse.googleusercontent.com'
p311
aS'doc-10-6c-docs.googleusercontent.com'
p312
aS'doc-10-7o-docs.googleusercontent.com'
p313
aS'doc-10-8k-docs.googleusercontent.com'
p314
aS'doc-10-9k-docs.googleusercontent.com'
p315
aS'doc-10-as-docs.googleusercontent.com'
p316
aS'doc-14-1o-docs.googleusercontent.com'
p317
aS'doc-14-2g-3dwarehouse.googleusercontent.com'
p318
aS'doc-14-6c-docs.googleusercontent.com'
p319
aS'doc-14-74-docs.googleusercontent.com'
p320
aS'doc-14-7o-docs.googleusercontent.com'
p321
aS'doc-14-8k-docs.googleusercontent.com'
p322
aS'doc-14-9k-docs.googleusercontent.com'
p323
aS'doc-14-as-docs.googleusercontent.com'
p324
aS'docs.google.com'
p325
aS'docs0.google.com'
p326
aS'docs1.google.com'
p327
aS'docs2.google.com'
p328
aS'docs3.google.com'
p329
aS'docs4.google.com'
p330
aS'docs5.google.com'
p331
aS'docs6.google.com'
p332
aS'docs7.google.com'
p333
aS'docs8.google.com'
p334
aS'docs9.google.com'
p335
aS'doubleclickpublishersapi.blogspot.com'
p336
aS'draft.blogger.com'
p337
aS'drive.google.com'
p338
aS'earth-api-samples.googlecode.com'
p339
aS'earth.google.com'
p340
aS'earthengine.googlelabs.com'
p341
aS'emeadev.blogspot.com'
p342
aS'en.blog.orkut.com'
p343
aS'encrypted-tbn.l.google.com'
p344
aS'encrypted-tbn0.google.com'
p345
aS'encrypted-tbn1.google.com'
p346
aS'encrypted-tbn2.google.com'
p347
aS'encrypted-tbn3.google.com'
p348
aS'encrypted.google.com'
p349
aS'evolutionofweb.appspot.com'
p350
aS'fastflip.googlelabs.com'
p351
aS'feedback.googleusercontent.com'
p352
aS'filetransferenabled.mail.google.com'
p353
aS'finance.google.com'
p354
aS'followfinder.googlelabs.com'
p355
aS'fonts.googleapis.com'
p356
aS'fr.youtube.com'
p357
aS'friendconnect.gmodules.com'
p358
aS'fusion.google.com'
p359
aS'g.cn'
p360
aS'g0.gstatic.com'
p361
aS'g1.gstatic.com'
p362
aS'g2.gstatic.com'
p363
aS'g3.gstatic.com'
p364
aS'gadgets.l.google.com'
p365
aS'gdata.youtube.com'
p366
aS'gearsblog.blogspot.com'
p367
aS'geoauth.google.com'
p368
aS'gg.google.cn'
p369
aS'gg.google.com'
p370
aS'ghs.google.com'
p371
aS'ghs.l.google.com'
p372
aS'ghs46.google.com'
p373
aS'ghs46.l.google.com'
p374
aS'gmail-imap.l.google.com'
p375
aS'gmail-pop.l.google.com'
p376
aS'gmail-smtp-in.l.google.com'
p377
aS'gmail-smtp-msa.l.google.com'
p378
aS'gmail-smtp.l.google.com'
p379
aS'gmail.com'
p380
aS'gmail.google.com'
p381
aS'gmailblog.blogspot.com'
p382
aS'gmaps-samples-flash.googlecode.com'
p383
aS'gmodules.com'
p384
aS'gmr-smtp-in.l.google.com'
p385
aS'golangblog.blogspot.com'
p386
aS'googcloudlabs.appspot.com'
p387
aS'google-code-featured.blogspot.com'
p388
aS'google-code-feed-gadget.googlecode.com'
p389
aS'google-entertainment-it.blogspot.com'
p390
aS'google-opensource.blogspot.com'
p391
aS'google-public-dns-a.google.com'
p392
aS'google-public-dns-b.google.com'
p393
aS'google.cn'
p394
aS'google.com'
p395
aS'google.com.hk'
p396
aS'googleajaxsearchapi.blogspot.com'
p397
aS'googleapis.l.google.com'
p398
aS'googleappengine.blogspot.com'
p399
aS'googleappengine.googlecode.com'
p400
aS'googleappsdeveloper.blogspot.com'
p401
aS'googleblog.blogspot.com'
p402
aS'googlecheckout.blogspot.com'
p403
aS'googlecheckoutapi.blogspot.com'
p404
aS'googlechinablog.blogspot.com'
p405
aS'googlechromereleases.blogspot.com'
p406
aS'googlecode.blogspot.com'
p407
aS'googlecode.l.google.com'
p408
aS'googlecustomsearch.blogspot.com'
p409
aS'googleenterprise.blogspot.com'
p410
aS'googlegeodevelopers.blogspot.com'
p411
aS'googlehosted.l.google.com'
p412
aS'googlehosted.l.googleusercontent.com'
p413
aS'googlemail-imap.l.google.com'
p414
aS'googlemail-pop.l.google.com'
p415
aS'googlemail-smtp.l.google.com'
p416
aS'googlemail.l.google.com'
p417
aS'googlemashupeditor.blogspot.com'
p418
aS'googlemashups.com'
p419
aS'googlemobile.blogspot.com'
p420
aS'googleplusplatform.blogspot.com'
p421
aS'googleresearch.blogspot.com'
p422
aS'googlesharedspaces.appspot.com'
p423
aS'googletalk.blogspot.com'
p424
aS'googlewave.com'
p425
aS'googlewebmaster-cn.blogspot.com'
p426
aS'www.youtube.com'
p427
aS'googlewebmastercentral.blogspot.com'
p428
aS'googlewebtoolkit.blogspot.com'
p429
aS'goto.ext.google.com'
p430
aS'goto.google.com'
p431
aS'graph.facebook.com'
p432
aS'groups-beta.google.com'
p433
aS'groups.google.com'
p434
aS'groups.google.com.hk'
p435
aS'groups.l.google.com'
p436
aS'gsamplemaps.googlepages.com'
p437
aS'guru.google.co.th'
p438
aS'guru.googlelabs.com'
p439
aS'gv-gadget.appspot.com'
p440
aS'gxc.google.com'
p441
aS'gxc.google.com.hk'
p442
aS'haiticrisis.appspot.com'
p443
aS'health.google.com'
p444
aS'help.blogger.com'
p445
aS'help.orkut.com'
p446
aS'help.youtube.com'
p447
aS'hsco54a20sh11q9jkmb51ad2n3hmkmrg-a-oz-opensocial.googleusercontent.com'
p448
aS'i1.ytimg.com'
p449
aS'i18napis.appspot.com'
p450
aS'i8brh95qor6r54nkl52hidj2ggcs4jgm-a-oz-opensocial.googleusercontent.com'
p451
aS'id.google.cn'
p452
aS'id.google.com'
p453
aS'id.google.com.hk'
p454
aS'id.l.google.com'
p455
aS'ig.gmodules.com'
p456
aS'igoogledeveloper.blogspot.com'
p457
aS'image-swirl.googlelabs.com'
p458
aS'images-docs-opensocial.googleusercontent.com'
p459
aS'images-lso-opensocial.googleusercontent.com'
p460
aS'images-onepick-opensocial.googleusercontent.com'
p461
aS'images-oz-opensocial.googleusercontent.com'
p462
aS'images-pos-opensocial.googleusercontent.com'
p463
aS'images.google.com'
p464
aS'images.google.com.hk'
p465
aS'images.l.google.com'
p466
aS'images0-focus-opensocial.googleusercontent.com'
p467
aS'images1-focus-opensocial.googleusercontent.com'
p468
aS'images2-focus-opensocial.googleusercontent.com'
p469
aS'images3-focus-opensocial.googleusercontent.com'
p470
aS'images4-focus-opensocial.googleusercontent.com'
p471
aS'images5-focus-opensocial.googleusercontent.com'
p472
aS'images6-focus-opensocial.googleusercontent.com'
p473
aS'images7-focus-opensocial.googleusercontent.com'
p474
aS'images9-focus-opensocial.googleusercontent.com'
p475
aS'images8-focus-opensocial.googleusercontent.com'
p476
aS'imap.gmail.com'
p477
aS'imap.googlemail.com'
p478
aS'img.blogblog.com'
p479
aS'img.youtube.com'
p480
aS'img0.gmodules.com'
p481
aS'img1.blogblog.com'
p482
aS'img1.gmodules.com'
p483
aS'img1.orkut.com'
p484
aS'img2.blogblog.com'
p485
aS'img2.gmodules.com'
p486
aS'img2.orkut.com'
p487
aS'img3.gmodules.com'
p488
aS'img3.orkut.com'
p489
aS'img4.orkut.com'
p490
aS'img5.orkut.com'
p491
aS'img6.orkut.com'
p492
aS'img7.orkut.com'
p493
aS'img8.orkut.com'
p494
aS'img9.orkut.com'
p495
aS'insight.youtube.com'
p496
aS'investor.google.com'
p497
aS'ipv6.google.cn'
p498
aS'ipv6.google.co.jp'
p499
aS'ipv6.google.com'
p500
aS'ipv6.google.com.hk'
p501
aS'ipv6.l.google.com'
p502
aS'jmt0.google.com'
p503
aS'jp.youtube.com'
p504
aS'juliamap.googlelabs.com'
p505
aS'k6v18tjr24doa89b55o3na41kn4v73eb-a-oz-opensocial.googleusercontent.com'
p506
aS'kh.google.com'
p507
aS'kh.l.google.com'
p508
aS'khm.google.com'
p509
aS'khm.l.google.com'
p510
aS'khm0.google.com'
p511
aS'khm1.google.com'
p512
aS'khm2.google.com'
p513
aS'khm3.google.com'
p514
aS'khmdb.google.com'
p515
aS'khms.google.com'
p516
aS'khms.l.google.com'
p517
aS'khms0.google.com'
p518
aS'khms1.google.com'
p519
aS'khms2.google.com'
p520
aS'khms3.google.com'
p521
aS'knol.google.com'
p522
aS'knownissues.blogspot.com'
p523
aS'labs.google.cn'
p524
aS'labs.google.com'
p525
aS'large-uploads.l.google.com'
p526
aS'lh0.googleusercontent.com'
p527
aS'lh1.googleusercontent.com'
p528
aS'lh2.google.com'
p529
aS'lh2.googleusercontent.com'
p530
aS'lh2.l.google.com'
p531
aS'lh3.ggpht.com'
p532
aS'lh3.google.com'
p533
aS'lh3.googleusercontent.com'
p534
aS'lh4.ggpht.com'
p535
aS'lh4.google.com'
p536
aS'lh4.googleusercontent.com'
p537
aS'lh5.ggpht.com'
p538
aS'lh5.google.com'
p539
aS'lh5.googleusercontent.com'
p540
aS'lh6.ggpht.com'
p541
aS'lh6.google.com'
p542
aS'lh6.googleusercontent.com'
p543
aS'linkhelp.clients.google.com'
p544
aS'listen.googlelabs.com'
p545
aS'livingstories.googlelabs.com'
p546
aS'local.google.com'
p547
aS'm.facebook.com'
p548
aS'm.gmail.com'
p549
aS'm.google.cn'
p550
aS'm.google.com'
p551
aS'm.google.com.hk'
p552
aS'm.googlemail.com'
p553
aS'm.youtube.com'
p554
aS'mail-attachment.googleusercontent.com'
p555
aS'mail.google.com'
p556
aS'map.google.com'
p557
aS'maps-api-ssl.google.com'
p558
aS'maps.gmodules.com'
p559
aS'maps.google.com'
p560
aS'maps.google.com.hk'
p561
aS'maps.google.com.tw'
p562
aS'maps.googleapis.com'
p563
aS'maps.gstatic.cn'
p564
aS'maps.gstatic.com'
p565
aS'maps.l.google.com'
p566
aS'mars.google.com'
p567
aS'mobile-gtalk.l.google.com'
p568
aS'www1.blogblog.com'
p569
aS'mobile.google.com'
p570
aS'mobile.google.com.hk'
p571
aS'mobile.l.google.com'
p572
aS'mobilemaps.clients.google.com'
p573
aS'moderator.appspot.com'
p574
aS'mt.google.cn'
p575
aS'mt.google.com'
p576
aS'mt.l.google.com'
p577
aS'mt0.google.cn'
p578
aS'mt0.google.com'
p579
aS'mt0.googleapis.com'
p580
aS'mt0.gstatic.com'
p581
aS'mt1.google.cn'
p582
aS'mt1.google.com'
p583
aS'mt1.googleapis.com'
p584
aS'mt1.gstatic.com'
p585
aS'mt2.google.cn'
p586
aS'mt2.google.com'
p587
aS'mt2.googleapis.com'
p588
aS'mt2.gstatic.com'
p589
aS'mt3.google.cn'
p590
aS'mt3.google.com'
p591
aS'mt3.googleapis.com'
p592
aS'mt3.gstatic.com'
p593
aS'mt4.gstatic.com'
p594
aS'mt5.gstatic.com'
p595
aS'mt6.gstatic.com'
p596
aS'mt7.gstatic.com'
p597
aS'mtalk.google.com'
p598
aS'mts.google.com'
p599
aS'mts.l.google.com'
p600
aS'mts0.google.com'
p601
aS'mts1.google.com'
p602
aS'mts2.google.com'
p603
aS'mts3.google.com'
p604
aS'music-onebox.googleusercontent.com'
p605
aS'music-streaming.l.google.com'
p606
aS'music.google.com'
p607
aS'music.googleusercontent.cn'
p608
aS'music.googleusercontent.com'
p609
aS'mw1.google.com'
p610
aS'mw2.google.com'
p611
aS'news.google.cn'
p612
aS'news.google.com'
p613
aS'news.google.com.hk'
p614
aS'news.google.com.tw'
p615
aS'news.l.google.com'
p616
aS'newsfeed-dot-latest-dot-rovio-ad-engine.appspot.com'
p617
aS'newstimeline.googlelabs.com'
p618
aS'ngrams.googlelabs.com'
p619
aS'nl3atn8402ncgahndqn8rb6qi2ld2g5a-a-gm-opensocial.googleusercontent.com'
p620
aS'nt0.ggpht.com'
p621
aS'nt1.ggpht.com'
p622
aS'nt2.ggpht.com'
p623
aS'nt3.ggpht.com'
p624
aS'oauth.googleusercontent.com'
p625
aS'ob7f2qc0i50kbjnc81vkhgmb5hsv7a8l-a-oz-opensocial.googleusercontent.com'
p626
aS'officialorkutblog.blogspot.com'
p627
aS'orkut-fe.l.google.com'
p628
aS'orkut-images.l.google.com'
p629
aS'orkut-opensocial.l.google.com'
p630
aS'orkut-promote.l.google.com'
p631
aS'orkut-static.l.google.com'
p632
aS'p.gmodules.com'
p633
aS'pack.google.cn'
p634
aS'pack.google.com'
p635
aS'pagespeed.googlelabs.com'
p636
aS'partnerpage.google.com'
p637
aS'photos-ugc.l.google.com'
p638
aS'photos.google.com'
p639
aS'photos1.blogger.com'
p640
aS'picasa.google.com'
p641
aS'picasaweb.google.com'
p642
aS'picasaweb.google.com.hk'
p643
aS'picasaweb.google.com.tw'
p644
aS'picasaweb.l.google.com'
p645
aS'pixel.facebook.com'
p646
aS'pixel.v6.facebook.com'
p647
aS'plus.google.com'
p648
aS'plus.url.google.com'
p649
aS'plusone.google.com'
p650
aS'pop.gmail.com'
p651
aS'pop.googlemail.com'
p652
aS'productforums.google.com'
p653
aS'productideas.appspot.com'
p654
aS'profiles.google.com'
p655
aS'project-slingshot-gp.appspot.com'
p656
aS'promote.orkut.com'
p657
aS'qhie5b8u979rnch1q0hqbrmbkn9estf7-a-oz-opensocial.googleusercontent.com'
p658
aS'r1---sn-a5m7lnek.googlevideo.com'
p659
aS'r1---sn-a5m7lnes.googlevideo.com'
p660
aS'r1---sn-a8au-naje.googlevideo.com'
p661
aS'r1---sn-o097znes.googlevideo.com'
p662
aS'r1.hkg03s05.c.bigcache.googleapis.com'
p663
aS'r1.hkg03s05.c.youtube.com'
p664
aS'r1.hkg03s05.googlevideo.com'
p665
aS'r1.hkg03s06.c.bigcache.googleapis.com'
p666
aS'r1.hkg03s06.c.youtube.com'
p667
aS'r1.hkg03s06.googlevideo.com'
p668
aS'r1.hkg03s07.c.bigcache.googleapis.com'
p669
aS'r1.hkg03s07.c.youtube.com'
p670
aS'r1.hkg03s07.googlevideo.com'
p671
aS'r1.hkg03s08.c.bigcache.googleapis.com'
p672
aS'r1.hkg03s08.c.youtube.com'
p673
aS'r1.hkg03s08.googlevideo.com'
p674
aS'r1.maa03s08.c.youtube.com'
p675
aS'r1.maa03s08.googlevideo.com'
p676
aS'r1.maa03s09.c.youtube.com'
p677
aS'r1.maa03s09.googlevideo.com'
p678
aS'r1.tpe05s03.c.youtube.com'
p679
aS'r1.tpe05s03.googlevideo.com'
p680
aS'r1.tpe05s04.c.youtube.com'
p681
aS'r1.tpe05s04.googlevideo.com'
p682
aS'r10---sn-o097znes.googlevideo.com'
p683
aS'r10.hkg03s05.c.bigcache.googleapis.com'
p684
aS'r10.hkg03s05.c.youtube.com'
p685
aS'r10.hkg03s05.googlevideo.com'
p686
aS'r10.hkg03s06.c.bigcache.googleapis.com'
p687
aS'r10.hkg03s06.c.youtube.com'
p688
aS'r10.hkg03s06.googlevideo.com'
p689
aS'r10.hkg03s07.c.bigcache.googleapis.com'
p690
aS'r10.hkg03s07.c.youtube.com'
p691
aS'r10.hkg03s07.googlevideo.com'
p692
aS'r10.hkg03s08.c.bigcache.googleapis.com'
p693
aS'r10.hkg03s08.c.youtube.com'
p694
aS'r10.hkg03s08.googlevideo.com'
p695
aS'r10.maa03s08.c.youtube.com'
p696
aS'r10.maa03s08.googlevideo.com'
p697
aS'r10.maa03s09.c.youtube.com'
p698
aS'r10.maa03s09.googlevideo.com'
p699
aS'r10.tpe05s03.c.youtube.com'
p700
aS'r10.tpe05s03.googlevideo.com'
p701
aS'r10.tpe05s04.c.youtube.com'
p702
aS'r10.tpe05s04.googlevideo.com'
p703
aS'r11---sn-a5m7ln7z.googlevideo.com'
p704
aS'r11---sn-o097znes.googlevideo.com'
p705
aS'r11.hkg03s05.c.bigcache.googleapis.com'
p706
aS'r11.hkg03s05.c.youtube.com'
p707
aS'r11.hkg03s05.googlevideo.com'
p708
aS'r11.hkg03s06.c.bigcache.googleapis.com'
p709
aS'r11.hkg03s06.c.youtube.com'
p710
aS'www2.blogblog.com'
p711
aS'r11.hkg03s06.googlevideo.com'
p712
aS'r11.hkg03s07.c.bigcache.googleapis.com'
p713
aS'r11.hkg03s07.c.youtube.com'
p714
aS'r11.hkg03s08.c.youtube.com'
p715
aS'r11.hkg03s07.googlevideo.com'
p716
aS'r11.hkg03s08.c.bigcache.googleapis.com'
p717
aS'r11.hkg03s08.googlevideo.com'
p718
aS'r11.maa03s08.c.youtube.com'
p719
aS'r11.maa03s08.googlevideo.com'
p720
aS'r11.maa03s09.c.youtube.com'
p721
aS'r11.maa03s09.googlevideo.com'
p722
aS'r11.tpe05s03.c.youtube.com'
p723
aS'r11.tpe05s03.googlevideo.com'
p724
aS'r11.tpe05s04.c.youtube.com'
p725
aS'r11.tpe05s04.googlevideo.com'
p726
aS'r12---sn-o097znes.googlevideo.com'
p727
aS'r12.hkg03s05.c.bigcache.googleapis.com'
p728
aS'r12.hkg03s05.c.youtube.com'
p729
aS'r12.hkg03s05.googlevideo.com'
p730
aS'r12.hkg03s06.c.bigcache.googleapis.com'
p731
aS'r12.hkg03s06.c.youtube.com'
p732
aS'r12.hkg03s06.googlevideo.com'
p733
aS'r12.hkg03s07.c.bigcache.googleapis.com'
p734
aS'r12.hkg03s07.c.youtube.com'
p735
aS'r12.hkg03s07.googlevideo.com'
p736
aS'r12.hkg03s08.c.bigcache.googleapis.com'
p737
aS'r12.hkg03s08.c.youtube.com'
p738
aS'r12.hkg03s08.googlevideo.com'
p739
aS'r12.maa03s08.c.youtube.com'
p740
aS'r12.maa03s08.googlevideo.com'
p741
aS'r12.maa03s09.c.youtube.com'
p742
aS'r12.maa03s09.googlevideo.com'
p743
aS'r12.tpe05s03.c.youtube.com'
p744
aS'r12.tpe05s03.googlevideo.com'
p745
aS'r12.tpe05s04.c.youtube.com'
p746
aS'r12.tpe05s04.googlevideo.com'
p747
aS'r13---sn-o097znes.googlevideo.com'
p748
aS'r13.hkg03s05.c.bigcache.googleapis.com'
p749
aS'r13.hkg03s05.c.youtube.com'
p750
aS'r13.hkg03s05.googlevideo.com'
p751
aS'r13.hkg03s06.c.bigcache.googleapis.com'
p752
aS'r13.hkg03s06.c.youtube.com'
p753
aS'r13.hkg03s06.googlevideo.com'
p754
aS'r13.hkg03s07.c.bigcache.googleapis.com'
p755
aS'r13.hkg03s07.c.youtube.com'
p756
aS'r13.hkg03s07.googlevideo.com'
p757
aS'r13.hkg03s08.c.bigcache.googleapis.com'
p758
aS'r13.hkg03s08.c.youtube.com'
p759
aS'r13.hkg03s08.googlevideo.com'
p760
aS'r13.maa03s08.c.youtube.com'
p761
aS'r13.maa03s08.googlevideo.com'
p762
aS'r13.maa03s09.c.youtube.com'
p763
aS'r13.maa03s09.googlevideo.com'
p764
aS'r13.tpe05s03.c.youtube.com'
p765
aS'r13.tpe05s03.googlevideo.com'
p766
aS'r13.tpe05s04.c.youtube.com'
p767
aS'r13.tpe05s04.googlevideo.com'
p768
aS'r14.hkg03s05.c.bigcache.googleapis.com'
p769
aS'r14.hkg03s05.c.youtube.com'
p770
aS'r14.hkg03s05.googlevideo.com'
p771
aS'r14.hkg03s06.c.bigcache.googleapis.com'
p772
aS'r14.hkg03s06.c.youtube.com'
p773
aS'r14.hkg03s06.googlevideo.com'
p774
aS'r14.hkg03s07.c.bigcache.googleapis.com'
p775
aS'r14.hkg03s07.c.youtube.com'
p776
aS'r14.hkg03s07.googlevideo.com'
p777
aS'r14.hkg03s08.c.bigcache.googleapis.com'
p778
aS'r14.hkg03s08.c.youtube.com'
p779
aS'r14.hkg03s08.googlevideo.com'
p780
aS'r14.maa03s08.c.youtube.com'
p781
aS'r14.maa03s08.googlevideo.com'
p782
aS'r14.maa03s09.c.youtube.com'
p783
aS'r14.maa03s09.googlevideo.com'
p784
aS'r14.tpe05s03.c.youtube.com'
p785
aS'r14.tpe05s03.googlevideo.com'
p786
aS'r14.tpe05s04.c.youtube.com'
p787
aS'r14.tpe05s04.googlevideo.com'
p788
aS'r15---sn-a5m7ln76.googlevideo.com'
p789
aS'r15---sn-o097znes.googlevideo.com'
p790
aS'r15.hkg03s05.c.bigcache.googleapis.com'
p791
aS'r15.hkg03s05.c.youtube.com'
p792
aS'r15.hkg03s05.googlevideo.com'
p793
aS'r15.hkg03s06.c.bigcache.googleapis.com'
p794
aS'r15.hkg03s06.c.youtube.com'
p795
aS'r15.hkg03s06.googlevideo.com'
p796
aS'r15.hkg03s07.c.bigcache.googleapis.com'
p797
aS'r15.hkg03s07.c.youtube.com'
p798
aS'r15.hkg03s07.googlevideo.com'
p799
aS'r15.hkg03s08.c.bigcache.googleapis.com'
p800
aS'r15.hkg03s08.c.youtube.com'
p801
aS'r15.hkg03s08.googlevideo.com'
p802
aS'r15.maa03s08.c.youtube.com'
p803
aS'r15.maa03s08.googlevideo.com'
p804
aS'r15.maa03s09.c.youtube.com'
p805
aS'r15.maa03s09.googlevideo.com'
p806
aS'r15.tpe05s03.c.youtube.com'
p807
aS'r15.tpe05s03.googlevideo.com'
p808
aS'r15.tpe05s04.c.youtube.com'
p809
aS'r15.tpe05s04.googlevideo.com'
p810
aS'r16---sn-o097znes.googlevideo.com'
p811
aS'r16.hkg03s05.c.bigcache.googleapis.com'
p812
aS'r16.hkg03s05.c.youtube.com'
p813
aS'r16.hkg03s05.googlevideo.com'
p814
aS'r16.hkg03s06.c.bigcache.googleapis.com'
p815
aS'r16.hkg03s06.c.youtube.com'
p816
aS'r16.hkg03s06.googlevideo.com'
p817
aS'r16.hkg03s07.c.bigcache.googleapis.com'
p818
aS'r16.hkg03s07.c.youtube.com'
p819
aS'r16.hkg03s07.googlevideo.com'
p820
aS'r16.hkg03s08.c.bigcache.googleapis.com'
p821
aS'r16.hkg03s08.c.youtube.com'
p822
aS'r16.hkg03s08.googlevideo.com'
p823
aS'r16.maa03s08.c.youtube.com'
p824
aS'r16.maa03s08.googlevideo.com'
p825
aS'r16.maa03s09.c.youtube.com'
p826
aS'r16.maa03s09.googlevideo.com'
p827
aS'r16.tpe05s03.c.youtube.com'
p828
aS'r16.tpe05s03.googlevideo.com'
p829
aS'r16.tpe05s04.c.youtube.com'
p830
aS'r16.tpe05s04.googlevideo.com'
p831
aS'r17---sn-o097znes.googlevideo.com'
p832
aS'r17.hkg03s05.c.bigcache.googleapis.com'
p833
aS'r17.hkg03s05.c.youtube.com'
p834
aS'r17.hkg03s05.googlevideo.com'
p835
aS'r17.hkg03s06.c.bigcache.googleapis.com'
p836
aS'r17.hkg03s06.c.youtube.com'
p837
aS'r17.hkg03s06.googlevideo.com'
p838
aS'r17.hkg03s07.c.youtube.com'
p839
aS'r17.hkg03s07.c.bigcache.googleapis.com'
p840
aS'r17.hkg03s07.googlevideo.com'
p841
aS'r17.hkg03s08.c.bigcache.googleapis.com'
p842
aS'r17.hkg03s08.c.youtube.com'
p843
aS'r17.hkg03s08.googlevideo.com'
p844
aS'r17.maa03s08.c.youtube.com'
p845
aS'r17.maa03s08.googlevideo.com'
p846
aS'r17.maa03s09.c.youtube.com'
p847
aS'r17.maa03s09.googlevideo.com'
p848
aS'r17.tpe05s03.c.youtube.com'
p849
aS'r17.tpe05s03.googlevideo.com'
p850
aS'r17.tpe05s04.c.youtube.com'
p851
aS'r17.tpe05s04.googlevideo.com'
p852
aS'www2.blogger.com'
p853
aS'r18---sn-o097znes.googlevideo.com'
p854
aS'r18.hkg03s05.c.bigcache.googleapis.com'
p855
aS'r18.hkg03s05.c.youtube.com'
p856
aS'r18.hkg03s05.googlevideo.com'
p857
aS'r18.hkg03s06.c.bigcache.googleapis.com'
p858
aS'r18.hkg03s06.c.youtube.com'
p859
aS'r18.hkg03s06.googlevideo.com'
p860
aS'r18.hkg03s07.c.bigcache.googleapis.com'
p861
aS'r18.hkg03s07.c.youtube.com'
p862
aS'r18.hkg03s07.googlevideo.com'
p863
aS'r18.hkg03s08.c.bigcache.googleapis.com'
p864
aS'r18.hkg03s08.c.youtube.com'
p865
aS'r18.hkg03s08.googlevideo.com'
p866
aS'r18.maa03s08.c.youtube.com'
p867
aS'r18.maa03s08.googlevideo.com'
p868
aS'r18.maa03s09.c.youtube.com'
p869
aS'r18.maa03s09.googlevideo.com'
p870
aS'r18.tpe05s03.c.youtube.com'
p871
aS'r18.tpe05s03.googlevideo.com'
p872
aS'r18.tpe05s04.c.youtube.com'
p873
aS'r18.tpe05s04.googlevideo.com'
p874
aS'r19---sn-o097znes.googlevideo.com'
p875
aS'r19.hkg03s05.c.bigcache.googleapis.com'
p876
aS'r19.hkg03s05.c.youtube.com'
p877
aS'r19.hkg03s05.googlevideo.com'
p878
aS'r19.hkg03s06.c.bigcache.googleapis.com'
p879
aS'r19.hkg03s06.c.youtube.com'
p880
aS'r19.hkg03s06.googlevideo.com'
p881
aS'r19.hkg03s07.c.bigcache.googleapis.com'
p882
aS'r19.hkg03s07.c.youtube.com'
p883
aS'r19.hkg03s07.googlevideo.com'
p884
aS'r19.hkg03s08.c.bigcache.googleapis.com'
p885
aS'r19.hkg03s08.c.youtube.com'
p886
aS'r19.hkg03s08.googlevideo.com'
p887
aS'r19.maa03s08.c.youtube.com'
p888
aS'r19.maa03s08.googlevideo.com'
p889
aS'r19.maa03s09.c.youtube.com'
p890
aS'r19.maa03s09.googlevideo.com'
p891
aS'r19.tpe05s03.c.youtube.com'
p892
aS'r19.tpe05s03.googlevideo.com'
p893
aS'r19.tpe05s04.c.youtube.com'
p894
aS'r19.tpe05s04.googlevideo.com'
p895
aS'r1rk9np7bpcsfoeekl0khkd2juj27q3o-a-fc-opensocial.googleusercontent.com'
p896
aS'r2---sn-a8au-naje.googlevideo.com'
p897
aS'r2---sn-o097znes.googlevideo.com'
p898
aS'r2.hkg03s05.c.bigcache.googleapis.com'
p899
aS'r2.hkg03s05.c.youtube.com'
p900
aS'r2.hkg03s05.googlevideo.com'
p901
aS'r2.hkg03s06.c.bigcache.googleapis.com'
p902
aS'r2.hkg03s06.c.youtube.com'
p903
aS'r2.hkg03s06.googlevideo.com'
p904
aS'r2.hkg03s07.c.bigcache.googleapis.com'
p905
aS'r2.hkg03s07.c.youtube.com'
p906
aS'r2.hkg03s07.googlevideo.com'
p907
aS'r2.hkg03s08.c.bigcache.googleapis.com'
p908
aS'r2.hkg03s08.c.youtube.com'
p909
aS'r2.hkg03s08.googlevideo.com'
p910
aS'r2.maa03s08.c.youtube.com'
p911
aS'r2.maa03s08.googlevideo.com'
p912
aS'r2.maa03s09.c.youtube.com'
p913
aS'r2.maa03s09.googlevideo.com'
p914
aS'r2.tpe05s03.c.youtube.com'
p915
aS'r2.tpe05s03.googlevideo.com'
p916
aS'r2.tpe05s04.c.youtube.com'
p917
aS'r2.tpe05s04.googlevideo.com'
p918
aS'r20---sn-o097znes.googlevideo.com'
p919
aS'r20.hkg03s05.c.bigcache.googleapis.com'
p920
aS'r20.hkg03s05.c.youtube.com'
p921
aS'r20.hkg03s05.googlevideo.com'
p922
aS'r20.hkg03s06.c.bigcache.googleapis.com'
p923
aS'r20.hkg03s06.c.youtube.com'
p924
aS'r20.hkg03s06.googlevideo.com'
p925
aS'r20.hkg03s07.c.bigcache.googleapis.com'
p926
aS'r20.hkg03s07.c.youtube.com'
p927
aS'r20.hkg03s07.googlevideo.com'
p928
aS'r20.hkg03s08.c.bigcache.googleapis.com'
p929
aS'r20.hkg03s08.c.youtube.com'
p930
aS'r20.hkg03s08.googlevideo.com'
p931
aS'r20.maa03s08.c.youtube.com'
p932
aS'r20.maa03s08.googlevideo.com'
p933
aS'r20.maa03s09.c.youtube.com'
p934
aS'r20.maa03s09.googlevideo.com'
p935
aS'r20.tpe05s03.c.youtube.com'
p936
aS'r20.tpe05s03.googlevideo.com'
p937
aS'r20.tpe05s04.c.youtube.com'
p938
aS'r20.tpe05s04.googlevideo.com'
p939
aS'r3---sn-a5m7ln7s.googlevideo.com'
p940
aS'r3---sn-a8au-naje.googlevideo.com'
p941
aS'r3---sn-o097znes.googlevideo.com'
p942
aS'r3.hkg03s05.c.bigcache.googleapis.com'
p943
aS'r3.hkg03s05.c.youtube.com'
p944
aS'r3.hkg03s05.googlevideo.com'
p945
aS'r3.hkg03s06.c.bigcache.googleapis.com'
p946
aS'r3.hkg03s06.c.youtube.com'
p947
aS'r3.hkg03s06.googlevideo.com'
p948
aS'r3.hkg03s07.c.bigcache.googleapis.com'
p949
aS'r3.hkg03s07.c.youtube.com'
p950
aS'r3.hkg03s07.googlevideo.com'
p951
aS'r3.hkg03s08.c.bigcache.googleapis.com'
p952
aS'r3.hkg03s08.c.youtube.com'
p953
aS'r3.hkg03s08.googlevideo.com'
p954
aS'r3.maa03s08.c.youtube.com'
p955
aS'r3.maa03s08.googlevideo.com'
p956
aS'r3.maa03s09.c.youtube.com'
p957
aS'r3.maa03s09.googlevideo.com'
p958
aS'r3.tpe05s03.c.youtube.com'
p959
aS'r3.tpe05s03.googlevideo.com'
p960
aS'r3.tpe05s04.c.youtube.com'
p961
aS'r3.tpe05s04.googlevideo.com'
p962
aS'r3269-dot-latest-dot-project-slingshot-gp.appspot.com'
p963
aS'r4---sn-a8au-naje.googlevideo.com'
p964
aS'r4---sn-o097znes.googlevideo.com'
p965
aS'r4.hkg03s05.c.bigcache.googleapis.com'
p966
aS'r4.hkg03s05.c.youtube.com'
p967
aS'r4.hkg03s05.googlevideo.com'
p968
aS'r4.hkg03s06.c.bigcache.googleapis.com'
p969
aS'r4.hkg03s06.c.youtube.com'
p970
aS'r4.hkg03s06.googlevideo.com'
p971
aS'r4.hkg03s07.c.bigcache.googleapis.com'
p972
aS'r4.hkg03s07.c.youtube.com'
p973
aS'r4.hkg03s07.googlevideo.com'
p974
aS'r4.hkg03s08.c.bigcache.googleapis.com'
p975
aS'r4.hkg03s08.c.youtube.com'
p976
aS'r4.hkg03s08.googlevideo.com'
p977
aS'r4.maa03s08.c.youtube.com'
p978
aS'r4.maa03s08.googlevideo.com'
p979
aS'r4.maa03s09.c.youtube.com'
p980
aS'r4.maa03s09.googlevideo.com'
p981
aS'r4.tpe05s03.c.youtube.com'
p982
aS'r4.tpe05s03.googlevideo.com'
p983
aS'r4.tpe05s04.c.youtube.com'
p984
aS'r4.tpe05s04.googlevideo.com'
p985
aS'r5---sn-a5m7ln7z.googlevideo.com'
p986
aS'r5---sn-a8au-naje.googlevideo.com'
p987
aS'r5---sn-o097znes.googlevideo.com'
p988
aS'r5.hkg03s05.c.bigcache.googleapis.com'
p989
aS'r5.hkg03s05.c.youtube.com'
p990
aS'r5.hkg03s05.googlevideo.com'
p991
aS'r5.hkg03s06.c.bigcache.googleapis.com'
p992
aS'r5.hkg03s06.c.youtube.com'
p993
aS'r5.hkg03s06.googlevideo.com'
p994
aS'www2.l.google.com'
p995
aS'r5.hkg03s07.c.bigcache.googleapis.com'
p996
aS'r5.hkg03s07.c.youtube.com'
p997
aS'r5.hkg03s07.googlevideo.com'
p998
aS'r5.hkg03s08.c.bigcache.googleapis.com'
p999
aS'r5.hkg03s08.c.youtube.com'
p1000
aS'r5.hkg03s08.googlevideo.com'
p1001
aS'r5.maa03s08.c.youtube.com'
p1002
aS'r5.maa03s08.googlevideo.com'
p1003
aS'r5.maa03s09.c.youtube.com'
p1004
aS'r5.maa03s09.googlevideo.com'
p1005
aS'r5.tpe05s03.c.youtube.com'
p1006
aS'r5.tpe05s03.googlevideo.com'
p1007
aS'r5.tpe05s04.c.youtube.com'
p1008
aS'r5.tpe05s04.googlevideo.com'
p1009
aS'r6---sn-a8au-naje.googlevideo.com'
p1010
aS'r6---sn-o097znes.googlevideo.com'
p1011
aS'r6.hkg03s05.c.bigcache.googleapis.com'
p1012
aS'r6.hkg03s05.c.youtube.com'
p1013
aS'r6.hkg03s05.googlevideo.com'
p1014
aS'r6.hkg03s06.c.bigcache.googleapis.com'
p1015
aS'r6.hkg03s06.c.youtube.com'
p1016
aS'r6.hkg03s06.googlevideo.com'
p1017
aS'r6.hkg03s07.c.bigcache.googleapis.com'
p1018
aS'r6.hkg03s07.c.youtube.com'
p1019
aS'r6.hkg03s07.googlevideo.com'
p1020
aS'r6.hkg03s08.c.bigcache.googleapis.com'
p1021
aS'r6.hkg03s08.c.youtube.com'
p1022
aS'r6.hkg03s08.googlevideo.com'
p1023
aS'r6.maa03s08.c.youtube.com'
p1024
aS'r6.maa03s08.googlevideo.com'
p1025
aS'r6.maa03s09.c.youtube.com'
p1026
aS'r6.maa03s09.googlevideo.com'
p1027
aS'r6.tpe05s03.c.youtube.com'
p1028
aS'r6.tpe05s03.googlevideo.com'
p1029
aS'r6.tpe05s04.c.youtube.com'
p1030
aS'r6.tpe05s04.googlevideo.com'
p1031
aS'r7---sn-a5m7lnes.googlevideo.com'
p1032
aS'r7---sn-a8au-naje.googlevideo.com'
p1033
aS'r7---sn-o097znes.googlevideo.com'
p1034
aS'r7.hkg03s05.c.bigcache.googleapis.com'
p1035
aS'r7.hkg03s05.c.youtube.com'
p1036
aS'r7.hkg03s05.googlevideo.com'
p1037
aS'r7.hkg03s06.c.bigcache.googleapis.com'
p1038
aS'r7.hkg03s06.c.youtube.com'
p1039
aS'r7.hkg03s06.googlevideo.com'
p1040
aS'r7.hkg03s07.c.bigcache.googleapis.com'
p1041
aS'r7.hkg03s07.c.youtube.com'
p1042
aS'r7.hkg03s07.googlevideo.com'
p1043
aS'r7.hkg03s08.c.bigcache.googleapis.com'
p1044
aS'r7.hkg03s08.c.youtube.com'
p1045
aS'r7.hkg03s08.googlevideo.com'
p1046
aS'r7.maa03s08.c.youtube.com'
p1047
aS'r7.maa03s08.googlevideo.com'
p1048
aS'r7.maa03s09.c.youtube.com'
p1049
aS'r7.maa03s09.googlevideo.com'
p1050
aS'r7.tpe05s03.c.youtube.com'
p1051
aS'r7.tpe05s03.googlevideo.com'
p1052
aS'r7.tpe05s04.c.youtube.com'
p1053
aS'r7.tpe05s04.googlevideo.com'
p1054
aS'r70rmsn4s0rhk6cehcbbcbfbs31pu0va-a-oz-opensocial.googleusercontent.com'
p1055
aS'r8---sn-a5m7ln76.googlevideo.com'
p1056
aS'r8---sn-a8au-naje.googlevideo.com'
p1057
aS'r8---sn-o097znes.googlevideo.com'
p1058
aS'r8.hkg03s05.c.bigcache.googleapis.com'
p1059
aS'r8.hkg03s05.c.youtube.com'
p1060
aS'r8.hkg03s05.googlevideo.com'
p1061
aS'r8.hkg03s06.c.bigcache.googleapis.com'
p1062
aS'r8.hkg03s06.c.youtube.com'
p1063
aS'r8.hkg03s06.googlevideo.com'
p1064
aS'r8.hkg03s07.c.bigcache.googleapis.com'
p1065
aS'r8.hkg03s07.c.youtube.com'
p1066
aS'r8.hkg03s07.googlevideo.com'
p1067
aS'r8.hkg03s08.c.bigcache.googleapis.com'
p1068
aS'r8.hkg03s08.c.youtube.com'
p1069
aS'r8.hkg03s08.googlevideo.com'
p1070
aS'r8.maa03s08.c.youtube.com'
p1071
aS'r8.maa03s08.googlevideo.com'
p1072
aS'r8.maa03s09.c.youtube.com'
p1073
aS'r8.maa03s09.googlevideo.com'
p1074
aS'r8.tpe05s03.c.youtube.com'
p1075
aS'r8.tpe05s03.googlevideo.com'
p1076
aS'r8.tpe05s04.c.youtube.com'
p1077
aS'r8.tpe05s04.googlevideo.com'
p1078
aS'r9---sn-o097znes.googlevideo.com'
p1079
aS'r9.hkg03s05.c.bigcache.googleapis.com'
p1080
aS'r9.hkg03s05.c.youtube.com'
p1081
aS'r9.hkg03s05.googlevideo.com'
p1082
aS'r9.hkg03s06.c.bigcache.googleapis.com'
p1083
aS'r9.hkg03s06.c.youtube.com'
p1084
aS'r9.hkg03s06.googlevideo.com'
p1085
aS'r9.hkg03s07.c.bigcache.googleapis.com'
p1086
aS'r9.hkg03s07.c.youtube.com'
p1087
aS'r9.hkg03s07.googlevideo.com'
p1088
aS'r9.hkg03s08.c.bigcache.googleapis.com'
p1089
aS'r9.hkg03s08.c.youtube.com'
p1090
aS'r9.hkg03s08.googlevideo.com'
p1091
aS'r9.maa03s08.c.youtube.com'
p1092
aS'r9.maa03s08.googlevideo.com'
p1093
aS'r9.maa03s09.c.youtube.com'
p1094
aS'r9.maa03s09.googlevideo.com'
p1095
aS'r9.tpe05s03.c.youtube.com'
p1096
aS'r9.tpe05s03.googlevideo.com'
p1097
aS'r9.tpe05s04.c.youtube.com'
p1098
aS'r9.tpe05s04.googlevideo.com'
p1099
aS'rbjhe237k979f79d87gmenp3gejfonu9-a-oz-opensocial.googleusercontent.com'
p1100
aS'reader.google.com'
p1101
aS'reader.googleusercontent.com'
p1102
aS'redirector-bigcache.googleapis.com'
p1103
aS'redirector.c.youtube.com'
p1104
aS'relatedlinks.googlelabs.com'
p1105
aS'ru.youtube.com'
p1106
aS's-static.ak.facebook.com'
p1107
aS's.youtube.com'
p1108
aS's.ytimg.com'
p1109
aS's2.googleusercontent.com'
p1110
aS's2.youtube.com'
p1111
aS'safebrowsing-cache.google.com'
p1112
aS'safebrowsing.cache.l.google.com'
p1113
aS'safebrowsing.clients.google.com'
p1114
aS'safebrowsing.google.com'
p1115
aS'sandbox.google.com'
p1116
aS'sb-ssl.google.com'
p1117
aS'sb-ssl.l.google.com'
p1118
aS'sb.google.com'
p1119
aS'sb.l.google.com'
p1120
aS'scholar.google.cn'
p1121
aS'scontent-a.xx.fbcdn.net'
p1122
aS'scontent-b.xx.fbcdn.net'
p1123
aS'scribe.googlelabs.com'
p1124
aS'scriptconv.googlelabs.com'
p1125
aS'services.google.com'
p1126
aS'similar-images.googlelabs.com'
p1127
aS'sites.google.com'
p1128
aS'skins.gmodules.com'
p1129
aS'smtp.gmail.com'
p1130
aS'smtp.googlemail.com'
p1131
aS'spreadsheet.google.com'
p1132
aS'spreadsheets-china.l.google.com'
p1133
aS'spreadsheets-opensocial.googleusercontent.com'
p1134
aS'spreadsheets.google.com'
p1135
aS'spreadsheets.l.google.com'
p1136
aS'www3.l.google.com'
p1137
aS'spreadsheets0.google.com'
p1138
aS'spreadsheets1.google.com'
p1139
aS'spreadsheets2.google.com'
p1140
aS'spreadsheets3.google.com'
p1141
aS'spreadsheets4.google.com'
p1142
aS'spreadsheets5.google.com'
p1143
aS'spreadsheets6.google.com'
p1144
aS'spreadsheets7.google.com'
p1145
aS'spreadsheets8.google.com'
p1146
aS'spreadsheets9.google.com'
p1147
aS'ssl.gstatic.com'
p1148
aS'sslvideo-upload.l.google.com'
p1149
aS'stage.gdata.youtube.com'
p1150
aS'static.googleusercontent.com'
p1151
aS'static1.orkut.com'
p1152
aS'static2.orkut.com'
p1153
aS'static3.orkut.com'
p1154
aS'static4.orkut.com'
p1155
aS'status.blogger.com'
p1156
aS'storage.l.googleusercontent.com'
p1157
aS'storegadget.googlelabs.com'
p1158
aS'storegadgetwizard.appspot.com'
p1159
aS'suggestqueries.google.com'
p1160
aS'suggestqueries.l.google.com'
p1161
aS'support.google.com'
p1162
aS'swiffy.googlelabs.com'
p1163
aS't.doc-0-0-sj.sj.googleusercontent.com'
p1164
aS't0.gstatic.com'
p1165
aS't1.gstatic.com'
p1166
aS't2.gstatic.com'
p1167
aS't3.gstatic.com'
p1168
aS'tables.googlelabs.com'
p1169
aS'talk.google.com'
p1170
aS'talk.l.google.com'
p1171
aS'talkgadget.google.com'
p1172
aS'tbn0.google.com'
p1173
aS'tbn1.google.com'
p1174
aS'tbn2.google.com'
p1175
aS'tbn3.google.com'
p1176
aS'tc.v1.cache1.c.youtube.com'
p1177
aS'tc.v1.cache1.googlevideo.com'
p1178
aS'tc.v1.cache2.c.youtube.com'
p1179
aS'tc.v1.cache2.googlevideo.com'
p1180
aS'tc.v1.cache3.c.youtube.com'
p1181
aS'tc.v1.cache3.googlevideo.com'
p1182
aS'tc.v1.cache4.c.youtube.com'
p1183
aS'tc.v1.cache4.googlevideo.com'
p1184
aS'tc.v1.cache5.c.youtube.com'
p1185
aS'tc.v1.cache5.googlevideo.com'
p1186
aS'tc.v1.cache6.c.youtube.com'
p1187
aS'tc.v1.cache6.googlevideo.com'
p1188
aS'tc.v1.cache7.c.youtube.com'
p1189
aS'tc.v1.cache7.googlevideo.com'
p1190
aS'tc.v1.cache8.c.youtube.com'
p1191
aS'tc.v1.cache8.googlevideo.com'
p1192
aS'tc.v10.cache1.c.youtube.com'
p1193
aS'tc.v10.cache1.googlevideo.com'
p1194
aS'tc.v10.cache2.c.youtube.com'
p1195
aS'tc.v10.cache2.googlevideo.com'
p1196
aS'tc.v10.cache3.c.youtube.com'
p1197
aS'tc.v10.cache3.googlevideo.com'
p1198
aS'tc.v10.cache4.c.youtube.com'
p1199
aS'tc.v10.cache4.googlevideo.com'
p1200
aS'tc.v10.cache5.c.youtube.com'
p1201
aS'tc.v10.cache5.googlevideo.com'
p1202
aS'tc.v10.cache6.c.youtube.com'
p1203
aS'tc.v10.cache6.googlevideo.com'
p1204
aS'tc.v10.cache7.c.youtube.com'
p1205
aS'tc.v10.cache7.googlevideo.com'
p1206
aS'tc.v10.cache8.c.youtube.com'
p1207
aS'tc.v10.cache8.googlevideo.com'
p1208
aS'tc.v11.cache1.c.youtube.com'
p1209
aS'tc.v11.cache1.googlevideo.com'
p1210
aS'tc.v11.cache2.c.youtube.com'
p1211
aS'tc.v11.cache2.googlevideo.com'
p1212
aS'tc.v11.cache3.c.youtube.com'
p1213
aS'tc.v11.cache3.googlevideo.com'
p1214
aS'tc.v11.cache4.c.youtube.com'
p1215
aS'tc.v11.cache4.googlevideo.com'
p1216
aS'tc.v11.cache5.c.youtube.com'
p1217
aS'tc.v11.cache5.googlevideo.com'
p1218
aS'tc.v11.cache6.c.youtube.com'
p1219
aS'tc.v11.cache6.googlevideo.com'
p1220
aS'tc.v11.cache7.c.youtube.com'
p1221
aS'tc.v11.cache7.googlevideo.com'
p1222
aS'tc.v11.cache8.c.youtube.com'
p1223
aS'tc.v11.cache8.googlevideo.com'
p1224
aS'tc.v12.cache1.c.youtube.com'
p1225
aS'tc.v12.cache1.googlevideo.com'
p1226
aS'tc.v12.cache2.c.youtube.com'
p1227
aS'tc.v12.cache2.googlevideo.com'
p1228
aS'tc.v12.cache3.c.youtube.com'
p1229
aS'tc.v12.cache3.googlevideo.com'
p1230
aS'tc.v12.cache4.c.youtube.com'
p1231
aS'tc.v12.cache4.googlevideo.com'
p1232
aS'tc.v12.cache5.c.youtube.com'
p1233
aS'tc.v12.cache5.googlevideo.com'
p1234
aS'tc.v12.cache6.c.youtube.com'
p1235
aS'tc.v12.cache6.googlevideo.com'
p1236
aS'tc.v12.cache7.c.youtube.com'
p1237
aS'tc.v12.cache7.googlevideo.com'
p1238
aS'tc.v12.cache8.c.youtube.com'
p1239
aS'tc.v12.cache8.googlevideo.com'
p1240
aS'tc.v13.cache1.c.youtube.com'
p1241
aS'tc.v13.cache1.googlevideo.com'
p1242
aS'tc.v13.cache2.c.youtube.com'
p1243
aS'tc.v13.cache2.googlevideo.com'
p1244
aS'tc.v13.cache3.c.youtube.com'
p1245
aS'tc.v13.cache3.googlevideo.com'
p1246
aS'tc.v13.cache4.c.youtube.com'
p1247
aS'tc.v13.cache4.googlevideo.com'
p1248
aS'tc.v13.cache5.c.youtube.com'
p1249
aS'tc.v13.cache5.googlevideo.com'
p1250
aS'tc.v13.cache6.c.youtube.com'
p1251
aS'tc.v13.cache6.googlevideo.com'
p1252
aS'tc.v13.cache8.c.youtube.com'
p1253
aS'tc.v13.cache7.c.youtube.com'
p1254
aS'tc.v13.cache7.googlevideo.com'
p1255
aS'tc.v13.cache8.googlevideo.com'
p1256
aS'tc.v14.cache1.c.youtube.com'
p1257
aS'tc.v14.cache1.googlevideo.com'
p1258
aS'tc.v14.cache2.c.youtube.com'
p1259
aS'tc.v14.cache2.googlevideo.com'
p1260
aS'tc.v14.cache3.c.youtube.com'
p1261
aS'tc.v14.cache3.googlevideo.com'
p1262
aS'tc.v14.cache4.c.youtube.com'
p1263
aS'tc.v14.cache4.googlevideo.com'
p1264
aS'tc.v14.cache5.c.youtube.com'
p1265
aS'tc.v14.cache5.googlevideo.com'
p1266
aS'tc.v14.cache6.c.youtube.com'
p1267
aS'tc.v14.cache6.googlevideo.com'
p1268
aS'tc.v14.cache7.c.youtube.com'
p1269
aS'tc.v14.cache7.googlevideo.com'
p1270
aS'tc.v14.cache8.c.youtube.com'
p1271
aS'tc.v14.cache8.googlevideo.com'
p1272
aS'tc.v15.cache1.c.youtube.com'
p1273
aS'tc.v15.cache1.googlevideo.com'
p1274
aS'tc.v15.cache2.c.youtube.com'
p1275
aS'tc.v15.cache2.googlevideo.com'
p1276
aS'tc.v15.cache3.c.youtube.com'
p1277
aS'tc.v15.cache3.googlevideo.com'
p1278
aS'www4.l.google.com'
p1279
aS'tc.v15.cache4.c.youtube.com'
p1280
aS'tc.v15.cache4.googlevideo.com'
p1281
aS'tc.v15.cache5.c.youtube.com'
p1282
aS'tc.v15.cache5.googlevideo.com'
p1283
aS'tc.v15.cache6.c.youtube.com'
p1284
aS'tc.v15.cache6.googlevideo.com'
p1285
aS'tc.v15.cache7.c.youtube.com'
p1286
aS'tc.v15.cache7.googlevideo.com'
p1287
aS'tc.v15.cache8.c.youtube.com'
p1288
aS'tc.v15.cache8.googlevideo.com'
p1289
aS'tc.v16.cache1.c.youtube.com'
p1290
aS'tc.v16.cache1.googlevideo.com'
p1291
aS'tc.v16.cache2.c.youtube.com'
p1292
aS'tc.v16.cache2.googlevideo.com'
p1293
aS'tc.v16.cache3.c.youtube.com'
p1294
aS'tc.v16.cache3.googlevideo.com'
p1295
aS'tc.v16.cache4.c.youtube.com'
p1296
aS'tc.v16.cache4.googlevideo.com'
p1297
aS'tc.v16.cache5.c.youtube.com'
p1298
aS'tc.v16.cache5.googlevideo.com'
p1299
aS'tc.v16.cache6.c.youtube.com'
p1300
aS'tc.v16.cache6.googlevideo.com'
p1301
aS'tc.v16.cache7.c.youtube.com'
p1302
aS'tc.v16.cache7.googlevideo.com'
p1303
aS'tc.v16.cache8.c.youtube.com'
p1304
aS'tc.v16.cache8.googlevideo.com'
p1305
aS'tc.v17.cache1.c.youtube.com'
p1306
aS'tc.v17.cache1.googlevideo.com'
p1307
aS'tc.v17.cache2.c.youtube.com'
p1308
aS'tc.v17.cache2.googlevideo.com'
p1309
aS'tc.v17.cache3.c.youtube.com'
p1310
aS'tc.v17.cache3.googlevideo.com'
p1311
aS'tc.v17.cache4.c.youtube.com'
p1312
aS'tc.v17.cache4.googlevideo.com'
p1313
aS'tc.v17.cache5.c.youtube.com'
p1314
aS'tc.v17.cache5.googlevideo.com'
p1315
aS'tc.v17.cache6.c.youtube.com'
p1316
aS'tc.v17.cache6.googlevideo.com'
p1317
aS'tc.v17.cache7.c.youtube.com'
p1318
aS'tc.v17.cache7.googlevideo.com'
p1319
aS'tc.v17.cache8.c.youtube.com'
p1320
aS'tc.v17.cache8.googlevideo.com'
p1321
aS'tc.v18.cache1.c.youtube.com'
p1322
aS'tc.v18.cache1.googlevideo.com'
p1323
aS'tc.v18.cache2.c.youtube.com'
p1324
aS'tc.v18.cache2.googlevideo.com'
p1325
aS'tc.v18.cache3.c.youtube.com'
p1326
aS'tc.v18.cache3.googlevideo.com'
p1327
aS'tc.v18.cache4.c.youtube.com'
p1328
aS'tc.v18.cache4.googlevideo.com'
p1329
aS'tc.v18.cache5.c.youtube.com'
p1330
aS'tc.v18.cache5.googlevideo.com'
p1331
aS'tc.v18.cache6.c.youtube.com'
p1332
aS'tc.v18.cache6.googlevideo.com'
p1333
aS'tc.v18.cache7.c.youtube.com'
p1334
aS'tc.v18.cache7.googlevideo.com'
p1335
aS'tc.v18.cache8.c.youtube.com'
p1336
aS'tc.v18.cache8.googlevideo.com'
p1337
aS'tc.v19.cache1.c.youtube.com'
p1338
aS'tc.v19.cache1.googlevideo.com'
p1339
aS'tc.v19.cache2.c.youtube.com'
p1340
aS'tc.v19.cache2.googlevideo.com'
p1341
aS'tc.v19.cache3.c.youtube.com'
p1342
aS'tc.v19.cache3.googlevideo.com'
p1343
aS'tc.v19.cache4.c.youtube.com'
p1344
aS'tc.v19.cache4.googlevideo.com'
p1345
aS'tc.v19.cache5.c.youtube.com'
p1346
aS'tc.v19.cache5.googlevideo.com'
p1347
aS'tc.v19.cache6.c.youtube.com'
p1348
aS'tc.v19.cache6.googlevideo.com'
p1349
aS'tc.v19.cache7.c.youtube.com'
p1350
aS'tc.v19.cache7.googlevideo.com'
p1351
aS'tc.v19.cache8.c.youtube.com'
p1352
aS'tc.v19.cache8.googlevideo.com'
p1353
aS'tc.v2.cache1.c.youtube.com'
p1354
aS'tc.v2.cache1.googlevideo.com'
p1355
aS'tc.v2.cache2.c.youtube.com'
p1356
aS'tc.v2.cache2.googlevideo.com'
p1357
aS'tc.v2.cache3.c.youtube.com'
p1358
aS'tc.v2.cache3.googlevideo.com'
p1359
aS'tc.v2.cache4.c.youtube.com'
p1360
aS'tc.v2.cache4.googlevideo.com'
p1361
aS'tc.v2.cache5.c.youtube.com'
p1362
aS'tc.v2.cache5.googlevideo.com'
p1363
aS'tc.v2.cache6.c.youtube.com'
p1364
aS'tc.v2.cache6.googlevideo.com'
p1365
aS'tc.v2.cache7.c.youtube.com'
p1366
aS'tc.v2.cache7.googlevideo.com'
p1367
aS'tc.v2.cache8.c.youtube.com'
p1368
aS'tc.v2.cache8.googlevideo.com'
p1369
aS'tc.v20.cache1.c.youtube.com'
p1370
aS'tc.v20.cache1.googlevideo.com'
p1371
aS'tc.v20.cache2.c.youtube.com'
p1372
aS'tc.v20.cache2.googlevideo.com'
p1373
aS'tc.v20.cache3.c.youtube.com'
p1374
aS'tc.v20.cache3.googlevideo.com'
p1375
aS'tc.v20.cache4.c.youtube.com'
p1376
aS'tc.v20.cache4.googlevideo.com'
p1377
aS'tc.v20.cache5.c.youtube.com'
p1378
aS'tc.v20.cache5.googlevideo.com'
p1379
aS'tc.v20.cache6.c.youtube.com'
p1380
aS'tc.v20.cache6.googlevideo.com'
p1381
aS'tc.v20.cache7.c.youtube.com'
p1382
aS'tc.v20.cache7.googlevideo.com'
p1383
aS'tc.v20.cache8.c.youtube.com'
p1384
aS'tc.v20.cache8.googlevideo.com'
p1385
aS'tc.v21.cache1.c.youtube.com'
p1386
aS'tc.v21.cache1.googlevideo.com'
p1387
aS'tc.v21.cache2.c.youtube.com'
p1388
aS'tc.v21.cache2.googlevideo.com'
p1389
aS'tc.v21.cache3.c.youtube.com'
p1390
aS'tc.v21.cache3.googlevideo.com'
p1391
aS'tc.v21.cache4.c.youtube.com'
p1392
aS'tc.v21.cache4.googlevideo.com'
p1393
aS'tc.v21.cache5.c.youtube.com'
p1394
aS'tc.v21.cache5.googlevideo.com'
p1395
aS'tc.v21.cache6.c.youtube.com'
p1396
aS'tc.v21.cache6.googlevideo.com'
p1397
aS'tc.v21.cache7.c.youtube.com'
p1398
aS'tc.v21.cache7.googlevideo.com'
p1399
aS'tc.v21.cache8.c.youtube.com'
p1400
aS'tc.v21.cache8.googlevideo.com'
p1401
aS'tc.v22.cache1.c.youtube.com'
p1402
aS'tc.v22.cache1.googlevideo.com'
p1403
aS'tc.v22.cache2.c.youtube.com'
p1404
aS'tc.v22.cache2.googlevideo.com'
p1405
aS'tc.v22.cache3.c.youtube.com'
p1406
aS'tc.v22.cache3.googlevideo.com'
p1407
aS'tc.v22.cache4.c.youtube.com'
p1408
aS'tc.v22.cache4.googlevideo.com'
p1409
aS'tc.v22.cache5.c.youtube.com'
p1410
aS'tc.v22.cache5.googlevideo.com'
p1411
aS'tc.v22.cache6.c.youtube.com'
p1412
aS'tc.v22.cache6.googlevideo.com'
p1413
aS'tc.v22.cache7.c.youtube.com'
p1414
aS'tc.v22.cache7.googlevideo.com'
p1415
aS'tc.v22.cache8.c.youtube.com'
p1416
aS'tc.v22.cache8.googlevideo.com'
p1417
aS'tc.v23.cache1.c.youtube.com'
p1418
aS'tc.v23.cache1.googlevideo.com'
p1419
aS'tc.v23.cache2.c.youtube.com'
p1420
aS'youtube-global.blogspot.com'
p1421
aS'tc.v23.cache2.googlevideo.com'
p1422
aS'tc.v23.cache3.c.youtube.com'
p1423
aS'tc.v23.cache3.googlevideo.com'
p1424
aS'tc.v23.cache4.c.youtube.com'
p1425
aS'tc.v23.cache4.googlevideo.com'
p1426
aS'tc.v23.cache5.c.youtube.com'
p1427
aS'tc.v23.cache5.googlevideo.com'
p1428
aS'tc.v23.cache6.c.youtube.com'
p1429
aS'tc.v23.cache6.googlevideo.com'
p1430
aS'tc.v23.cache7.c.youtube.com'
p1431
aS'tc.v23.cache7.googlevideo.com'
p1432
aS'tc.v23.cache8.c.youtube.com'
p1433
aS'tc.v23.cache8.googlevideo.com'
p1434
aS'tc.v24.cache1.c.youtube.com'
p1435
aS'tc.v24.cache1.googlevideo.com'
p1436
aS'tc.v24.cache2.c.youtube.com'
p1437
aS'tc.v24.cache2.googlevideo.com'
p1438
aS'tc.v24.cache3.c.youtube.com'
p1439
aS'tc.v24.cache3.googlevideo.com'
p1440
aS'tc.v24.cache4.c.youtube.com'
p1441
aS'tc.v24.cache4.googlevideo.com'
p1442
aS'tc.v24.cache5.c.youtube.com'
p1443
aS'tc.v24.cache6.c.youtube.com'
p1444
aS'tc.v24.cache5.googlevideo.com'
p1445
aS'tc.v24.cache6.googlevideo.com'
p1446
aS'tc.v24.cache7.c.youtube.com'
p1447
aS'tc.v24.cache7.googlevideo.com'
p1448
aS'tc.v24.cache8.c.youtube.com'
p1449
aS'tc.v24.cache8.googlevideo.com'
p1450
aS'tc.v3.cache1.c.youtube.com'
p1451
aS'tc.v3.cache1.googlevideo.com'
p1452
aS'tc.v3.cache2.c.youtube.com'
p1453
aS'tc.v3.cache2.googlevideo.com'
p1454
aS'tc.v3.cache3.c.youtube.com'
p1455
aS'tc.v3.cache3.googlevideo.com'
p1456
aS'tc.v3.cache4.c.youtube.com'
p1457
aS'tc.v3.cache4.googlevideo.com'
p1458
aS'tc.v3.cache5.c.youtube.com'
p1459
aS'tc.v3.cache5.googlevideo.com'
p1460
aS'tc.v3.cache6.c.youtube.com'
p1461
aS'tc.v3.cache6.googlevideo.com'
p1462
aS'tc.v3.cache7.c.youtube.com'
p1463
aS'tc.v3.cache7.googlevideo.com'
p1464
aS'tc.v3.cache8.c.youtube.com'
p1465
aS'tc.v3.cache8.googlevideo.com'
p1466
aS'tc.v4.cache1.c.youtube.com'
p1467
aS'tc.v4.cache1.googlevideo.com'
p1468
aS'tc.v4.cache2.c.youtube.com'
p1469
aS'tc.v4.cache2.googlevideo.com'
p1470
aS'tc.v4.cache3.c.youtube.com'
p1471
aS'tc.v4.cache3.googlevideo.com'
p1472
aS'tc.v4.cache4.c.youtube.com'
p1473
aS'tc.v4.cache4.googlevideo.com'
p1474
aS'tc.v4.cache5.c.youtube.com'
p1475
aS'tc.v4.cache5.googlevideo.com'
p1476
aS'tc.v4.cache6.c.youtube.com'
p1477
aS'tc.v4.cache6.googlevideo.com'
p1478
aS'tc.v4.cache7.c.youtube.com'
p1479
aS'tc.v4.cache7.googlevideo.com'
p1480
aS'tc.v4.cache8.c.youtube.com'
p1481
aS'tc.v4.cache8.googlevideo.com'
p1482
aS'tc.v5.cache1.c.youtube.com'
p1483
aS'tc.v5.cache1.googlevideo.com'
p1484
aS'tc.v5.cache2.c.youtube.com'
p1485
aS'tc.v5.cache2.googlevideo.com'
p1486
aS'tc.v5.cache3.c.youtube.com'
p1487
aS'tc.v5.cache3.googlevideo.com'
p1488
aS'tc.v5.cache4.c.youtube.com'
p1489
aS'tc.v5.cache4.googlevideo.com'
p1490
aS'tc.v5.cache5.c.youtube.com'
p1491
aS'tc.v5.cache5.googlevideo.com'
p1492
aS'tc.v5.cache6.c.youtube.com'
p1493
aS'tc.v5.cache6.googlevideo.com'
p1494
aS'tc.v5.cache7.c.youtube.com'
p1495
aS'tc.v5.cache7.googlevideo.com'
p1496
aS'tc.v5.cache8.c.youtube.com'
p1497
aS'tc.v5.cache8.googlevideo.com'
p1498
aS'tc.v6.cache1.c.youtube.com'
p1499
aS'tc.v6.cache1.googlevideo.com'
p1500
aS'tc.v6.cache2.c.youtube.com'
p1501
aS'tc.v6.cache2.googlevideo.com'
p1502
aS'tc.v6.cache3.c.youtube.com'
p1503
aS'tc.v6.cache3.googlevideo.com'
p1504
aS'tc.v6.cache4.c.youtube.com'
p1505
aS'tc.v6.cache4.googlevideo.com'
p1506
aS'tc.v6.cache5.c.youtube.com'
p1507
aS'tc.v6.cache5.googlevideo.com'
p1508
aS'tc.v6.cache6.c.youtube.com'
p1509
aS'tc.v6.cache6.googlevideo.com'
p1510
aS'tc.v6.cache7.c.youtube.com'
p1511
aS'tc.v6.cache7.googlevideo.com'
p1512
aS'tc.v6.cache8.c.youtube.com'
p1513
aS'tc.v6.cache8.googlevideo.com'
p1514
aS'tc.v7.cache1.c.youtube.com'
p1515
aS'tc.v7.cache1.googlevideo.com'
p1516
aS'tc.v7.cache2.c.youtube.com'
p1517
aS'tc.v7.cache2.googlevideo.com'
p1518
aS'tc.v7.cache3.c.youtube.com'
p1519
aS'tc.v7.cache3.googlevideo.com'
p1520
aS'tc.v7.cache4.c.youtube.com'
p1521
aS'tc.v7.cache4.googlevideo.com'
p1522
aS'tc.v7.cache5.c.youtube.com'
p1523
aS'tc.v7.cache5.googlevideo.com'
p1524
aS'tc.v7.cache6.c.youtube.com'
p1525
aS'tc.v7.cache6.googlevideo.com'
p1526
aS'tc.v7.cache7.c.youtube.com'
p1527
aS'tc.v7.cache7.googlevideo.com'
p1528
aS'tc.v7.cache8.c.youtube.com'
p1529
aS'tc.v7.cache8.googlevideo.com'
p1530
aS'tc.v8.cache1.c.youtube.com'
p1531
aS'tc.v8.cache1.googlevideo.com'
p1532
aS'tc.v8.cache2.c.youtube.com'
p1533
aS'tc.v8.cache2.googlevideo.com'
p1534
aS'tc.v8.cache3.c.youtube.com'
p1535
aS'tc.v8.cache3.googlevideo.com'
p1536
aS'tc.v8.cache4.c.youtube.com'
p1537
aS'tc.v8.cache4.googlevideo.com'
p1538
aS'tc.v8.cache5.c.youtube.com'
p1539
aS'tc.v8.cache5.googlevideo.com'
p1540
aS'tc.v8.cache6.c.youtube.com'
p1541
aS'tc.v8.cache6.googlevideo.com'
p1542
aS'tc.v8.cache7.c.youtube.com'
p1543
aS'tc.v8.cache7.googlevideo.com'
p1544
aS'tc.v8.cache8.c.youtube.com'
p1545
aS'tc.v8.cache8.googlevideo.com'
p1546
aS'tc.v9.cache1.c.youtube.com'
p1547
aS'tc.v9.cache1.googlevideo.com'
p1548
aS'tc.v9.cache2.c.youtube.com'
p1549
aS'tc.v9.cache2.googlevideo.com'
p1550
aS'tc.v9.cache3.c.youtube.com'
p1551
aS'tc.v9.cache3.googlevideo.com'
p1552
aS'tc.v9.cache4.c.youtube.com'
p1553
aS'tc.v9.cache4.googlevideo.com'
p1554
aS'tc.v9.cache5.c.youtube.com'
p1555
aS'tc.v9.cache5.googlevideo.com'
p1556
aS'tc.v9.cache6.c.youtube.com'
p1557
aS'tc.v9.cache6.googlevideo.com'
p1558
aS'tc.v9.cache7.c.youtube.com'
p1559
aS'tc.v9.cache7.googlevideo.com'
p1560
aS'tc.v9.cache8.c.youtube.com'
p1561
aS'tc.v9.cache8.googlevideo.com'
p1562
aS'youtube-ui.l.google.com'
p1563
aS'themes.googleusercontent.com'
p1564
aS'toolbar.google.com'
p1565
aS'toolbar.google.com.hk'
p1566
aS'toolbarqueries.clients.google.com'
p1567
aS'tools.google.com'
p1568
aS'translate.google.com'
p1569
aS'tools.l.google.com'
p1570
aS'translate.google.cn'
p1571
aS'translate.google.com.hk'
p1572
aS'translate.google.com.tw'
p1573
aS'translate.googleapis.com'
p1574
aS'translate.googleusercontent.com'
p1575
aS'trends.google.com'
p1576
aS'tw.youtube.com'
p1577
aS'u807isd5egseeabjccgcns005p2miucq-a-oz-opensocial.googleusercontent.com'
p1578
aS'uk.youtube.com'
p1579
aS'upload.docs.google.com'
p1580
aS'upload.facebook.com'
p1581
aS'upload.video.google.com'
p1582
aS'upload.youtube.com'
p1583
aS'uploadsj.clients.google.com'
p1584
aS'upt14k1i2veesusrda9nfotcrbp9d7p5-a-oz-opensocial.googleusercontent.com'
p1585
aS'v1.cache1.c.bigcache.googleapis.com'
p1586
aS'v1.cache1.c.youtube.com'
p1587
aS'v1.cache1.googlevideo.com'
p1588
aS'v1.cache2.c.youtube.com'
p1589
aS'v1.cache2.c.bigcache.googleapis.com'
p1590
aS'v1.cache2.googlevideo.com'
p1591
aS'v1.cache3.c.bigcache.googleapis.com'
p1592
aS'v1.cache3.c.youtube.com'
p1593
aS'v1.cache3.googlevideo.com'
p1594
aS'v1.cache4.c.bigcache.googleapis.com'
p1595
aS'v1.cache4.c.youtube.com'
p1596
aS'v1.cache4.googlevideo.com'
p1597
aS'v1.cache5.c.bigcache.googleapis.com'
p1598
aS'v1.cache5.c.youtube.com'
p1599
aS'v1.cache5.googlevideo.com'
p1600
aS'v1.cache6.c.bigcache.googleapis.com'
p1601
aS'v1.cache6.c.youtube.com'
p1602
aS'v1.cache6.googlevideo.com'
p1603
aS'v1.cache7.c.bigcache.googleapis.com'
p1604
aS'v1.cache7.c.youtube.com'
p1605
aS'v1.cache7.googlevideo.com'
p1606
aS'v1.cache8.c.bigcache.googleapis.com'
p1607
aS'v1.cache8.c.youtube.com'
p1608
aS'v1.cache8.googlevideo.com'
p1609
aS'v1.lscache1.c.bigcache.googleapis.com'
p1610
aS'v1.lscache1.c.youtube.com'
p1611
aS'v1.lscache1.googlevideo.com'
p1612
aS'v1.lscache2.c.bigcache.googleapis.com'
p1613
aS'v1.lscache2.c.youtube.com'
p1614
aS'v1.lscache2.googlevideo.com'
p1615
aS'v1.lscache3.c.bigcache.googleapis.com'
p1616
aS'v1.lscache3.c.youtube.com'
p1617
aS'v1.lscache3.googlevideo.com'
p1618
aS'v1.lscache4.c.bigcache.googleapis.com'
p1619
aS'v1.lscache4.c.youtube.com'
p1620
aS'v1.lscache4.googlevideo.com'
p1621
aS'v1.lscache5.c.bigcache.googleapis.com'
p1622
aS'v1.lscache5.c.youtube.com'
p1623
aS'v1.lscache5.googlevideo.com'
p1624
aS'v1.lscache6.c.bigcache.googleapis.com'
p1625
aS'v1.lscache6.c.youtube.com'
p1626
aS'v1.lscache6.googlevideo.com'
p1627
aS'v1.lscache7.c.bigcache.googleapis.com'
p1628
aS'v1.lscache7.c.youtube.com'
p1629
aS'v1.lscache7.googlevideo.com'
p1630
aS'v1.lscache8.c.bigcache.googleapis.com'
p1631
aS'v1.lscache8.c.youtube.com'
p1632
aS'v1.lscache8.googlevideo.com'
p1633
aS'v1.nonxt1.c.youtube.com'
p1634
aS'v1.nonxt1.googlevideo.com'
p1635
aS'v1.nonxt2.c.youtube.com'
p1636
aS'v1.nonxt2.googlevideo.com'
p1637
aS'v1.nonxt3.c.youtube.com'
p1638
aS'v1.nonxt3.googlevideo.com'
p1639
aS'v1.nonxt4.c.youtube.com'
p1640
aS'v1.nonxt4.googlevideo.com'
p1641
aS'v1.nonxt5.c.youtube.com'
p1642
aS'v1.nonxt5.googlevideo.com'
p1643
aS'v1.nonxt6.c.youtube.com'
p1644
aS'v1.nonxt6.googlevideo.com'
p1645
aS'v1.nonxt7.c.youtube.com'
p1646
aS'v1.nonxt7.googlevideo.com'
p1647
aS'v1.nonxt8.c.youtube.com'
p1648
aS'v1.nonxt8.googlevideo.com'
p1649
aS'v10.lscache1.c.bigcache.googleapis.com'
p1650
aS'v10.lscache1.c.youtube.com'
p1651
aS'v10.lscache1.googlevideo.com'
p1652
aS'v10.lscache2.c.bigcache.googleapis.com'
p1653
aS'v10.lscache2.c.youtube.com'
p1654
aS'v10.lscache2.googlevideo.com'
p1655
aS'v10.lscache3.c.bigcache.googleapis.com'
p1656
aS'v10.lscache3.c.youtube.com'
p1657
aS'v10.lscache3.googlevideo.com'
p1658
aS'v10.lscache4.c.bigcache.googleapis.com'
p1659
aS'v10.lscache4.c.youtube.com'
p1660
aS'v10.lscache4.googlevideo.com'
p1661
aS'v10.lscache5.c.bigcache.googleapis.com'
p1662
aS'v10.lscache5.c.youtube.com'
p1663
aS'v10.lscache5.googlevideo.com'
p1664
aS'v10.lscache6.c.bigcache.googleapis.com'
p1665
aS'v10.lscache6.c.youtube.com'
p1666
aS'v10.lscache6.googlevideo.com'
p1667
aS'v10.lscache7.c.bigcache.googleapis.com'
p1668
aS'v10.lscache7.c.youtube.com'
p1669
aS'v10.lscache7.googlevideo.com'
p1670
aS'v10.lscache8.c.bigcache.googleapis.com'
p1671
aS'v10.lscache8.c.youtube.com'
p1672
aS'v10.lscache8.googlevideo.com'
p1673
aS'v10.nonxt1.c.youtube.com'
p1674
aS'v10.nonxt1.googlevideo.com'
p1675
aS'v10.nonxt2.c.youtube.com'
p1676
aS'v10.nonxt2.googlevideo.com'
p1677
aS'v10.nonxt3.c.youtube.com'
p1678
aS'v10.nonxt3.googlevideo.com'
p1679
aS'v10.nonxt4.c.youtube.com'
p1680
aS'v10.nonxt4.googlevideo.com'
p1681
aS'v10.nonxt5.c.youtube.com'
p1682
aS'v10.nonxt5.googlevideo.com'
p1683
aS'v10.nonxt6.c.youtube.com'
p1684
aS'v10.nonxt6.googlevideo.com'
p1685
aS'v10.nonxt7.c.youtube.com'
p1686
aS'v10.nonxt7.googlevideo.com'
p1687
aS'v10.nonxt8.c.youtube.com'
p1688
aS'v10.nonxt8.googlevideo.com'
p1689
aS'v11.lscache1.c.bigcache.googleapis.com'
p1690
aS'v11.lscache1.c.youtube.com'
p1691
aS'v11.lscache1.googlevideo.com'
p1692
aS'v11.lscache2.c.bigcache.googleapis.com'
p1693
aS'v11.lscache2.c.youtube.com'
p1694
aS'v11.lscache2.googlevideo.com'
p1695
aS'v11.lscache3.c.bigcache.googleapis.com'
p1696
aS'v11.lscache3.c.youtube.com'
p1697
aS'v11.lscache3.googlevideo.com'
p1698
aS'v11.lscache4.c.bigcache.googleapis.com'
p1699
aS'v11.lscache4.c.youtube.com'
p1700
aS'v11.lscache4.googlevideo.com'
p1701
aS'v11.lscache5.c.bigcache.googleapis.com'
p1702
aS'v11.lscache5.c.youtube.com'
p1703
aS'v11.lscache5.googlevideo.com'
p1704
aS'youtube.com'
p1705
aS'v11.lscache6.c.bigcache.googleapis.com'
p1706
aS'v11.lscache6.c.youtube.com'
p1707
aS'v11.lscache6.googlevideo.com'
p1708
aS'v11.lscache7.c.bigcache.googleapis.com'
p1709
aS'v11.lscache7.c.youtube.com'
p1710
aS'v11.lscache7.googlevideo.com'
p1711
aS'v11.lscache8.c.bigcache.googleapis.com'
p1712
aS'v11.lscache8.c.youtube.com'
p1713
aS'v11.lscache8.googlevideo.com'
p1714
aS'v11.nonxt1.c.youtube.com'
p1715
aS'v11.nonxt1.googlevideo.com'
p1716
aS'v11.nonxt2.c.youtube.com'
p1717
aS'v11.nonxt2.googlevideo.com'
p1718
aS'v11.nonxt3.c.youtube.com'
p1719
aS'v11.nonxt3.googlevideo.com'
p1720
aS'v11.nonxt4.c.youtube.com'
p1721
aS'v11.nonxt4.googlevideo.com'
p1722
aS'v11.nonxt5.c.youtube.com'
p1723
aS'v11.nonxt5.googlevideo.com'
p1724
aS'v11.nonxt6.c.youtube.com'
p1725
aS'v11.nonxt6.googlevideo.com'
p1726
aS'v11.nonxt7.c.youtube.com'
p1727
aS'v11.nonxt7.googlevideo.com'
p1728
aS'v11.nonxt8.c.youtube.com'
p1729
aS'v11.nonxt8.googlevideo.com'
p1730
aS'v12.lscache1.c.bigcache.googleapis.com'
p1731
aS'v12.lscache1.c.youtube.com'
p1732
aS'v12.lscache1.googlevideo.com'
p1733
aS'v12.lscache2.c.bigcache.googleapis.com'
p1734
aS'v12.lscache2.c.youtube.com'
p1735
aS'v12.lscache2.googlevideo.com'
p1736
aS'v12.lscache3.c.bigcache.googleapis.com'
p1737
aS'v12.lscache3.c.youtube.com'
p1738
aS'v12.lscache3.googlevideo.com'
p1739
aS'v12.lscache4.c.bigcache.googleapis.com'
p1740
aS'v12.lscache4.c.youtube.com'
p1741
aS'v12.lscache4.googlevideo.com'
p1742
aS'v12.lscache5.c.bigcache.googleapis.com'
p1743
aS'v12.lscache5.c.youtube.com'
p1744
aS'v12.lscache5.googlevideo.com'
p1745
aS'v12.lscache6.c.bigcache.googleapis.com'
p1746
aS'v12.lscache6.c.youtube.com'
p1747
aS'v12.lscache6.googlevideo.com'
p1748
aS'v12.lscache7.c.bigcache.googleapis.com'
p1749
aS'v12.lscache7.c.youtube.com'
p1750
aS'v12.lscache7.googlevideo.com'
p1751
aS'v12.lscache8.c.bigcache.googleapis.com'
p1752
aS'v12.lscache8.c.youtube.com'
p1753
aS'v12.lscache8.googlevideo.com'
p1754
aS'v12.nonxt1.c.youtube.com'
p1755
aS'v12.nonxt1.googlevideo.com'
p1756
aS'v12.nonxt2.c.youtube.com'
p1757
aS'v12.nonxt2.googlevideo.com'
p1758
aS'v12.nonxt3.c.youtube.com'
p1759
aS'v12.nonxt3.googlevideo.com'
p1760
aS'v12.nonxt4.c.youtube.com'
p1761
aS'v12.nonxt4.googlevideo.com'
p1762
aS'v12.nonxt5.c.youtube.com'
p1763
aS'v12.nonxt5.googlevideo.com'
p1764
aS'v12.nonxt6.c.youtube.com'
p1765
aS'v12.nonxt6.googlevideo.com'
p1766
aS'v12.nonxt7.c.youtube.com'
p1767
aS'v12.nonxt7.googlevideo.com'
p1768
aS'v12.nonxt8.c.youtube.com'
p1769
aS'v12.nonxt8.googlevideo.com'
p1770
aS'v13.lscache1.c.bigcache.googleapis.com'
p1771
aS'v13.lscache1.c.youtube.com'
p1772
aS'v13.lscache1.googlevideo.com'
p1773
aS'v13.lscache2.c.bigcache.googleapis.com'
p1774
aS'v13.lscache2.c.youtube.com'
p1775
aS'v13.lscache2.googlevideo.com'
p1776
aS'v13.lscache3.c.bigcache.googleapis.com'
p1777
aS'v13.lscache3.c.youtube.com'
p1778
aS'v13.lscache3.googlevideo.com'
p1779
aS'v13.lscache4.c.bigcache.googleapis.com'
p1780
aS'v13.lscache4.c.youtube.com'
p1781
aS'v13.lscache4.googlevideo.com'
p1782
aS'v13.lscache5.c.bigcache.googleapis.com'
p1783
aS'v13.lscache5.c.youtube.com'
p1784
aS'v13.lscache5.googlevideo.com'
p1785
aS'v13.lscache6.c.bigcache.googleapis.com'
p1786
aS'v13.lscache6.c.youtube.com'
p1787
aS'v13.lscache6.googlevideo.com'
p1788
aS'v13.lscache7.c.bigcache.googleapis.com'
p1789
aS'v13.lscache7.c.youtube.com'
p1790
aS'v13.lscache7.googlevideo.com'
p1791
aS'v13.lscache8.c.bigcache.googleapis.com'
p1792
aS'v13.lscache8.c.youtube.com'
p1793
aS'v13.lscache8.googlevideo.com'
p1794
aS'v13.nonxt1.c.youtube.com'
p1795
aS'v13.nonxt1.googlevideo.com'
p1796
aS'v13.nonxt2.c.youtube.com'
p1797
aS'v13.nonxt2.googlevideo.com'
p1798
aS'v13.nonxt3.c.youtube.com'
p1799
aS'v13.nonxt3.googlevideo.com'
p1800
aS'v13.nonxt4.c.youtube.com'
p1801
aS'v13.nonxt4.googlevideo.com'
p1802
aS'v13.nonxt5.c.youtube.com'
p1803
aS'v13.nonxt5.googlevideo.com'
p1804
aS'v13.nonxt6.c.youtube.com'
p1805
aS'v13.nonxt6.googlevideo.com'
p1806
aS'v13.nonxt7.c.youtube.com'
p1807
aS'v13.nonxt7.googlevideo.com'
p1808
aS'v13.nonxt8.c.youtube.com'
p1809
aS'v13.nonxt8.googlevideo.com'
p1810
aS'v14.lscache1.c.bigcache.googleapis.com'
p1811
aS'v14.lscache1.c.youtube.com'
p1812
aS'v14.lscache1.googlevideo.com'
p1813
aS'v14.lscache2.c.bigcache.googleapis.com'
p1814
aS'v14.lscache2.c.youtube.com'
p1815
aS'v14.lscache2.googlevideo.com'
p1816
aS'v14.lscache3.c.bigcache.googleapis.com'
p1817
aS'v14.lscache3.c.youtube.com'
p1818
aS'v14.lscache3.googlevideo.com'
p1819
aS'v14.lscache4.c.bigcache.googleapis.com'
p1820
aS'v14.lscache4.c.youtube.com'
p1821
aS'v14.lscache4.googlevideo.com'
p1822
aS'v14.lscache5.c.bigcache.googleapis.com'
p1823
aS'v14.lscache5.c.youtube.com'
p1824
aS'v14.lscache5.googlevideo.com'
p1825
aS'v14.lscache6.c.bigcache.googleapis.com'
p1826
aS'v14.lscache6.c.youtube.com'
p1827
aS'v14.lscache6.googlevideo.com'
p1828
aS'v14.lscache7.c.bigcache.googleapis.com'
p1829
aS'v14.lscache7.c.youtube.com'
p1830
aS'v14.lscache7.googlevideo.com'
p1831
aS'v14.lscache8.c.bigcache.googleapis.com'
p1832
aS'v14.lscache8.c.youtube.com'
p1833
aS'v14.lscache8.googlevideo.com'
p1834
aS'v14.nonxt1.c.youtube.com'
p1835
aS'v14.nonxt1.googlevideo.com'
p1836
aS'v14.nonxt2.c.youtube.com'
p1837
aS'v14.nonxt2.googlevideo.com'
p1838
aS'v14.nonxt3.c.youtube.com'
p1839
aS'v14.nonxt3.googlevideo.com'
p1840
aS'v14.nonxt4.c.youtube.com'
p1841
aS'v14.nonxt4.googlevideo.com'
p1842
aS'v14.nonxt5.c.youtube.com'
p1843
aS'v14.nonxt5.googlevideo.com'
p1844
aS'v14.nonxt6.c.youtube.com'
p1845
aS'v14.nonxt6.googlevideo.com'
p1846
aS'yt-debates.appspot.com'
p1847
aS'v14.nonxt7.c.youtube.com'
p1848
aS'v14.nonxt7.googlevideo.com'
p1849
aS'v14.nonxt8.c.youtube.com'
p1850
aS'v14.nonxt8.googlevideo.com'
p1851
aS'v15.lscache1.c.bigcache.googleapis.com'
p1852
aS'v15.lscache1.c.youtube.com'
p1853
aS'v15.lscache1.googlevideo.com'
p1854
aS'v15.lscache2.c.bigcache.googleapis.com'
p1855
aS'v15.lscache2.c.youtube.com'
p1856
aS'v15.lscache2.googlevideo.com'
p1857
aS'v15.lscache3.c.bigcache.googleapis.com'
p1858
aS'v15.lscache3.c.youtube.com'
p1859
aS'v15.lscache3.googlevideo.com'
p1860
aS'v15.lscache4.c.bigcache.googleapis.com'
p1861
aS'v15.lscache4.c.youtube.com'
p1862
aS'v15.lscache4.googlevideo.com'
p1863
aS'v15.lscache5.c.bigcache.googleapis.com'
p1864
aS'v15.lscache5.c.youtube.com'
p1865
aS'v15.lscache5.googlevideo.com'
p1866
aS'v15.lscache6.c.bigcache.googleapis.com'
p1867
aS'v15.lscache6.c.youtube.com'
p1868
aS'v15.lscache6.googlevideo.com'
p1869
aS'v15.lscache7.c.bigcache.googleapis.com'
p1870
aS'v15.lscache7.c.youtube.com'
p1871
aS'v15.lscache7.googlevideo.com'
p1872
aS'v15.lscache8.c.bigcache.googleapis.com'
p1873
aS'v15.lscache8.c.youtube.com'
p1874
aS'v15.lscache8.googlevideo.com'
p1875
aS'v15.nonxt1.c.youtube.com'
p1876
aS'v15.nonxt1.googlevideo.com'
p1877
aS'v15.nonxt2.c.youtube.com'
p1878
aS'v15.nonxt2.googlevideo.com'
p1879
aS'v15.nonxt3.c.youtube.com'
p1880
aS'v15.nonxt3.googlevideo.com'
p1881
aS'v15.nonxt4.c.youtube.com'
p1882
aS'v15.nonxt4.googlevideo.com'
p1883
aS'v15.nonxt5.c.youtube.com'
p1884
aS'v15.nonxt5.googlevideo.com'
p1885
aS'v15.nonxt6.c.youtube.com'
p1886
aS'v15.nonxt6.googlevideo.com'
p1887
aS'v15.nonxt7.c.youtube.com'
p1888
aS'v15.nonxt7.googlevideo.com'
p1889
aS'v15.nonxt8.c.youtube.com'
p1890
aS'v15.nonxt8.googlevideo.com'
p1891
aS'v16.lscache1.c.bigcache.googleapis.com'
p1892
aS'v16.lscache1.c.youtube.com'
p1893
aS'v16.lscache1.googlevideo.com'
p1894
aS'v16.lscache2.c.bigcache.googleapis.com'
p1895
aS'v16.lscache2.c.youtube.com'
p1896
aS'v16.lscache2.googlevideo.com'
p1897
aS'v16.lscache3.c.bigcache.googleapis.com'
p1898
aS'v16.lscache3.c.youtube.com'
p1899
aS'v16.lscache3.googlevideo.com'
p1900
aS'v16.lscache4.c.bigcache.googleapis.com'
p1901
aS'v16.lscache4.c.youtube.com'
p1902
aS'v16.lscache4.googlevideo.com'
p1903
aS'v16.lscache5.c.bigcache.googleapis.com'
p1904
aS'v16.lscache5.c.youtube.com'
p1905
aS'v16.lscache5.googlevideo.com'
p1906
aS'v16.lscache6.c.bigcache.googleapis.com'
p1907
aS'v16.lscache6.c.youtube.com'
p1908
aS'v16.lscache6.googlevideo.com'
p1909
aS'v16.lscache7.c.bigcache.googleapis.com'
p1910
aS'v16.lscache7.c.youtube.com'
p1911
aS'v16.lscache7.googlevideo.com'
p1912
aS'v16.lscache8.c.bigcache.googleapis.com'
p1913
aS'v16.lscache8.c.youtube.com'
p1914
aS'v16.lscache8.googlevideo.com'
p1915
aS'v16.nonxt1.c.youtube.com'
p1916
aS'v16.nonxt1.googlevideo.com'
p1917
aS'v16.nonxt2.c.youtube.com'
p1918
aS'v16.nonxt2.googlevideo.com'
p1919
aS'v16.nonxt3.c.youtube.com'
p1920
aS'v16.nonxt3.googlevideo.com'
p1921
aS'v16.nonxt4.c.youtube.com'
p1922
aS'v16.nonxt4.googlevideo.com'
p1923
aS'v16.nonxt5.c.youtube.com'
p1924
aS'v16.nonxt5.googlevideo.com'
p1925
aS'v16.nonxt6.c.youtube.com'
p1926
aS'v16.nonxt6.googlevideo.com'
p1927
aS'v16.nonxt7.c.youtube.com'
p1928
aS'v16.nonxt7.googlevideo.com'
p1929
aS'v16.nonxt8.c.youtube.com'
p1930
aS'v16.nonxt8.googlevideo.com'
p1931
aS'v17.lscache1.c.bigcache.googleapis.com'
p1932
aS'v17.lscache1.c.youtube.com'
p1933
aS'v17.lscache1.googlevideo.com'
p1934
aS'v17.lscache2.c.bigcache.googleapis.com'
p1935
aS'v17.lscache2.c.youtube.com'
p1936
aS'v17.lscache2.googlevideo.com'
p1937
aS'v17.lscache3.c.bigcache.googleapis.com'
p1938
aS'v17.lscache3.c.youtube.com'
p1939
aS'v17.lscache3.googlevideo.com'
p1940
aS'v17.lscache4.c.bigcache.googleapis.com'
p1941
aS'v17.lscache4.c.youtube.com'
p1942
aS'v17.lscache4.googlevideo.com'
p1943
aS'v17.lscache5.c.bigcache.googleapis.com'
p1944
aS'v17.lscache5.c.youtube.com'
p1945
aS'v17.lscache5.googlevideo.com'
p1946
aS'v17.lscache6.c.bigcache.googleapis.com'
p1947
aS'v17.lscache6.c.youtube.com'
p1948
aS'v17.lscache6.googlevideo.com'
p1949
aS'v17.lscache7.c.bigcache.googleapis.com'
p1950
aS'v17.lscache7.c.youtube.com'
p1951
aS'v17.lscache7.googlevideo.com'
p1952
aS'v17.lscache8.c.bigcache.googleapis.com'
p1953
aS'v17.lscache8.c.youtube.com'
p1954
aS'v17.lscache8.googlevideo.com'
p1955
aS'v17.nonxt1.c.youtube.com'
p1956
aS'v17.nonxt1.googlevideo.com'
p1957
aS'v17.nonxt2.c.youtube.com'
p1958
aS'v17.nonxt2.googlevideo.com'
p1959
aS'v17.nonxt3.c.youtube.com'
p1960
aS'v17.nonxt3.googlevideo.com'
p1961
aS'v17.nonxt4.c.youtube.com'
p1962
aS'v17.nonxt4.googlevideo.com'
p1963
aS'v17.nonxt5.c.youtube.com'
p1964
aS'v17.nonxt5.googlevideo.com'
p1965
aS'v17.nonxt6.c.youtube.com'
p1966
aS'v17.nonxt6.googlevideo.com'
p1967
aS'v17.nonxt7.c.youtube.com'
p1968
aS'v17.nonxt7.googlevideo.com'
p1969
aS'v17.nonxt8.c.youtube.com'
p1970
aS'v17.nonxt8.googlevideo.com'
p1971
aS'v18.lscache1.c.bigcache.googleapis.com'
p1972
aS'v18.lscache1.c.youtube.com'
p1973
aS'v18.lscache1.googlevideo.com'
p1974
aS'v18.lscache2.c.bigcache.googleapis.com'
p1975
aS'v18.lscache2.c.youtube.com'
p1976
aS'v18.lscache2.googlevideo.com'
p1977
aS'v18.lscache3.c.bigcache.googleapis.com'
p1978
aS'v18.lscache3.c.youtube.com'
p1979
aS'v18.lscache3.googlevideo.com'
p1980
aS'v18.lscache4.c.bigcache.googleapis.com'
p1981
aS'v18.lscache4.c.youtube.com'
p1982
aS'v18.lscache4.googlevideo.com'
p1983
aS'v18.lscache5.c.bigcache.googleapis.com'
p1984
aS'v18.lscache5.c.youtube.com'
p1985
aS'v18.lscache5.googlevideo.com'
p1986
aS'v18.lscache6.c.bigcache.googleapis.com'
p1987
aS'v18.lscache6.c.youtube.com'
p1988
aS'ytimg.googleusercontent.com'
p1989
aS'v18.lscache6.googlevideo.com'
p1990
aS'v18.lscache7.c.bigcache.googleapis.com'
p1991
aS'v18.lscache7.c.youtube.com'
p1992
aS'v18.lscache7.googlevideo.com'
p1993
aS'v18.lscache8.c.bigcache.googleapis.com'
p1994
aS'v18.lscache8.c.youtube.com'
p1995
aS'v18.lscache8.googlevideo.com'
p1996
aS'v18.nonxt1.c.youtube.com'
p1997
aS'v18.nonxt1.googlevideo.com'
p1998
aS'v18.nonxt2.c.youtube.com'
p1999
aS'v18.nonxt2.googlevideo.com'
p2000
aS'v18.nonxt3.c.youtube.com'
p2001
aS'v18.nonxt3.googlevideo.com'
p2002
aS'v18.nonxt4.c.youtube.com'
p2003
aS'v18.nonxt4.googlevideo.com'
p2004
aS'v18.nonxt5.c.youtube.com'
p2005
aS'v18.nonxt5.googlevideo.com'
p2006
aS'v18.nonxt6.c.youtube.com'
p2007
aS'v18.nonxt6.googlevideo.com'
p2008
aS'v18.nonxt7.c.youtube.com'
p2009
aS'v18.nonxt7.googlevideo.com'
p2010
aS'v18.nonxt8.c.youtube.com'
p2011
aS'v18.nonxt8.googlevideo.com'
p2012
aS'v19.lscache1.c.bigcache.googleapis.com'
p2013
aS'v19.lscache1.c.youtube.com'
p2014
aS'v19.lscache1.googlevideo.com'
p2015
aS'v19.lscache2.c.bigcache.googleapis.com'
p2016
aS'v19.lscache2.c.youtube.com'
p2017
aS'v19.lscache2.googlevideo.com'
p2018
aS'v19.lscache3.c.bigcache.googleapis.com'
p2019
aS'v19.lscache3.c.youtube.com'
p2020
aS'v19.lscache3.googlevideo.com'
p2021
aS'v19.lscache4.c.bigcache.googleapis.com'
p2022
aS'v19.lscache4.c.youtube.com'
p2023
aS'v19.lscache4.googlevideo.com'
p2024
aS'v19.lscache5.c.bigcache.googleapis.com'
p2025
aS'v19.lscache5.c.youtube.com'
p2026
aS'v19.lscache5.googlevideo.com'
p2027
aS'v19.lscache6.c.bigcache.googleapis.com'
p2028
aS'v19.lscache6.c.youtube.com'
p2029
aS'v19.lscache6.googlevideo.com'
p2030
aS'v19.lscache7.c.bigcache.googleapis.com'
p2031
aS'v19.lscache7.c.youtube.com'
p2032
aS'v19.lscache7.googlevideo.com'
p2033
aS'v19.lscache8.c.bigcache.googleapis.com'
p2034
aS'v19.lscache8.c.youtube.com'
p2035
aS'v19.lscache8.googlevideo.com'
p2036
aS'v19.nonxt1.c.youtube.com'
p2037
aS'v19.nonxt1.googlevideo.com'
p2038
aS'v19.nonxt2.c.youtube.com'
p2039
aS'v19.nonxt2.googlevideo.com'
p2040
aS'v19.nonxt3.c.youtube.com'
p2041
aS'v19.nonxt3.googlevideo.com'
p2042
aS'v19.nonxt4.c.youtube.com'
p2043
aS'v19.nonxt4.googlevideo.com'
p2044
aS'v19.nonxt5.c.youtube.com'
p2045
aS'v19.nonxt5.googlevideo.com'
p2046
aS'v19.nonxt6.c.youtube.com'
p2047
aS'v19.nonxt6.googlevideo.com'
p2048
aS'v19.nonxt7.c.youtube.com'
p2049
aS'v19.nonxt7.googlevideo.com'
p2050
aS'v19.nonxt8.c.youtube.com'
p2051
aS'v19.nonxt8.googlevideo.com'
p2052
aS'v2.cache1.c.youtube.com'
p2053
aS'v2.cache1.c.bigcache.googleapis.com'
p2054
aS'v2.cache1.googlevideo.com'
p2055
aS'v2.cache2.c.bigcache.googleapis.com'
p2056
aS'v2.cache2.c.youtube.com'
p2057
aS'v2.cache2.googlevideo.com'
p2058
aS'v2.cache3.c.bigcache.googleapis.com'
p2059
aS'v2.cache3.c.youtube.com'
p2060
aS'v2.cache3.googlevideo.com'
p2061
aS'v2.cache4.c.bigcache.googleapis.com'
p2062
aS'v2.cache4.c.youtube.com'
p2063
aS'v2.cache4.googlevideo.com'
p2064
aS'v2.cache5.c.bigcache.googleapis.com'
p2065
aS'v2.cache5.c.youtube.com'
p2066
aS'v2.cache5.googlevideo.com'
p2067
aS'v2.cache6.c.bigcache.googleapis.com'
p2068
aS'v2.cache6.c.youtube.com'
p2069
aS'v2.cache6.googlevideo.com'
p2070
aS'v2.cache7.c.bigcache.googleapis.com'
p2071
aS'v2.cache7.c.youtube.com'
p2072
aS'v2.cache7.googlevideo.com'
p2073
aS'v2.cache8.c.bigcache.googleapis.com'
p2074
aS'v2.cache8.c.youtube.com'
p2075
aS'v2.cache8.googlevideo.com'
p2076
aS'v2.lscache1.c.bigcache.googleapis.com'
p2077
aS'v2.lscache1.c.youtube.com'
p2078
aS'v2.lscache1.googlevideo.com'
p2079
aS'v2.lscache2.c.bigcache.googleapis.com'
p2080
aS'v2.lscache2.c.youtube.com'
p2081
aS'v2.lscache2.googlevideo.com'
p2082
aS'v2.lscache3.c.bigcache.googleapis.com'
p2083
aS'v2.lscache3.c.youtube.com'
p2084
aS'v2.lscache3.googlevideo.com'
p2085
aS'v2.lscache4.c.bigcache.googleapis.com'
p2086
aS'v2.lscache4.c.youtube.com'
p2087
aS'v2.lscache4.googlevideo.com'
p2088
aS'v2.lscache5.c.bigcache.googleapis.com'
p2089
aS'v2.lscache5.c.youtube.com'
p2090
aS'v2.lscache5.googlevideo.com'
p2091
aS'v2.lscache6.c.bigcache.googleapis.com'
p2092
aS'v2.lscache6.c.youtube.com'
p2093
aS'v2.lscache6.googlevideo.com'
p2094
aS'v2.lscache7.c.bigcache.googleapis.com'
p2095
aS'v2.lscache7.c.youtube.com'
p2096
aS'v2.lscache7.googlevideo.com'
p2097
aS'v2.lscache8.c.bigcache.googleapis.com'
p2098
aS'v2.lscache8.c.youtube.com'
p2099
aS'v2.lscache8.googlevideo.com'
p2100
aS'v2.nonxt1.c.youtube.com'
p2101
aS'v2.nonxt1.googlevideo.com'
p2102
aS'v2.nonxt2.c.youtube.com'
p2103
aS'v2.nonxt2.googlevideo.com'
p2104
aS'v2.nonxt3.c.youtube.com'
p2105
aS'v2.nonxt3.googlevideo.com'
p2106
aS'v2.nonxt4.c.youtube.com'
p2107
aS'v2.nonxt4.googlevideo.com'
p2108
aS'v2.nonxt5.c.youtube.com'
p2109
aS'v2.nonxt5.googlevideo.com'
p2110
aS'v2.nonxt6.c.youtube.com'
p2111
aS'v2.nonxt6.googlevideo.com'
p2112
aS'v2.nonxt7.c.youtube.com'
p2113
aS'v2.nonxt7.googlevideo.com'
p2114
aS'v2.nonxt8.c.youtube.com'
p2115
aS'v2.nonxt8.googlevideo.com'
p2116
aS'v20.lscache1.c.bigcache.googleapis.com'
p2117
aS'v20.lscache1.c.youtube.com'
p2118
aS'v20.lscache1.googlevideo.com'
p2119
aS'v20.lscache2.c.bigcache.googleapis.com'
p2120
aS'v20.lscache2.c.youtube.com'
p2121
aS'v20.lscache2.googlevideo.com'
p2122
aS'v20.lscache3.c.bigcache.googleapis.com'
p2123
aS'v20.lscache3.c.youtube.com'
p2124
aS'v20.lscache3.googlevideo.com'
p2125
aS'v20.lscache4.c.bigcache.googleapis.com'
p2126
aS'v20.lscache4.c.youtube.com'
p2127
aS'v20.lscache4.googlevideo.com'
p2128
aS'v20.lscache5.c.bigcache.googleapis.com'
p2129
aS'v20.lscache5.c.youtube.com'
p2130
aS'zh-cn.facebook.com'
p2131
aS'v20.lscache5.googlevideo.com'
p2132
aS'v20.lscache6.c.bigcache.googleapis.com'
p2133
aS'v20.lscache6.c.youtube.com'
p2134
aS'v20.lscache6.googlevideo.com'
p2135
aS'v20.lscache7.c.bigcache.googleapis.com'
p2136
aS'v20.lscache7.c.youtube.com'
p2137
aS'v20.lscache7.googlevideo.com'
p2138
aS'v20.lscache8.c.bigcache.googleapis.com'
p2139
aS'v20.lscache8.c.youtube.com'
p2140
aS'v20.lscache8.googlevideo.com'
p2141
aS'v20.nonxt1.c.youtube.com'
p2142
aS'v20.nonxt1.googlevideo.com'
p2143
aS'v20.nonxt2.c.youtube.com'
p2144
aS'v20.nonxt2.googlevideo.com'
p2145
aS'v20.nonxt3.c.youtube.com'
p2146
aS'v20.nonxt3.googlevideo.com'
p2147
aS'v20.nonxt4.c.youtube.com'
p2148
aS'v20.nonxt4.googlevideo.com'
p2149
aS'v20.nonxt5.c.youtube.com'
p2150
aS'v20.nonxt5.googlevideo.com'
p2151
aS'v20.nonxt6.c.youtube.com'
p2152
aS'v20.nonxt6.googlevideo.com'
p2153
aS'v20.nonxt7.c.youtube.com'
p2154
aS'v20.nonxt7.googlevideo.com'
p2155
aS'v20.nonxt8.c.youtube.com'
p2156
aS'v20.nonxt8.googlevideo.com'
p2157
aS'v21.lscache1.c.bigcache.googleapis.com'
p2158
aS'v21.lscache1.c.youtube.com'
p2159
aS'v21.lscache1.googlevideo.com'
p2160
aS'v21.lscache2.c.bigcache.googleapis.com'
p2161
aS'v21.lscache2.c.youtube.com'
p2162
aS'v21.lscache2.googlevideo.com'
p2163
aS'v21.lscache3.c.bigcache.googleapis.com'
p2164
aS'v21.lscache3.c.youtube.com'
p2165
aS'v21.lscache3.googlevideo.com'
p2166
aS'v21.lscache4.c.bigcache.googleapis.com'
p2167
aS'v21.lscache4.c.youtube.com'
p2168
aS'v21.lscache4.googlevideo.com'
p2169
aS'v21.lscache5.c.bigcache.googleapis.com'
p2170
aS'v21.lscache5.c.youtube.com'
p2171
aS'v21.lscache5.googlevideo.com'
p2172
aS'v21.lscache6.c.bigcache.googleapis.com'
p2173
aS'v21.lscache6.c.youtube.com'
p2174
aS'v21.lscache6.googlevideo.com'
p2175
aS'v21.lscache7.c.bigcache.googleapis.com'
p2176
aS'v21.lscache7.c.youtube.com'
p2177
aS'v21.lscache7.googlevideo.com'
p2178
aS'v21.lscache8.c.bigcache.googleapis.com'
p2179
aS'v21.lscache8.c.youtube.com'
p2180
aS'v21.lscache8.googlevideo.com'
p2181
aS'v21.nonxt1.c.youtube.com'
p2182
aS'v21.nonxt1.googlevideo.com'
p2183
aS'v21.nonxt2.c.youtube.com'
p2184
aS'v21.nonxt2.googlevideo.com'
p2185
aS'v21.nonxt3.c.youtube.com'
p2186
aS'v21.nonxt3.googlevideo.com'
p2187
aS'v21.nonxt4.c.youtube.com'
p2188
aS'v21.nonxt4.googlevideo.com'
p2189
aS'v21.nonxt5.c.youtube.com'
p2190
aS'v21.nonxt5.googlevideo.com'
p2191
aS'v21.nonxt6.c.youtube.com'
p2192
aS'v21.nonxt6.googlevideo.com'
p2193
aS'v21.nonxt7.c.youtube.com'
p2194
aS'v21.nonxt7.googlevideo.com'
p2195
aS'v21.nonxt8.c.youtube.com'
p2196
aS'v21.nonxt8.googlevideo.com'
p2197
aS'v22.lscache1.c.bigcache.googleapis.com'
p2198
aS'v22.lscache1.c.youtube.com'
p2199
aS'v22.lscache1.googlevideo.com'
p2200
aS'v22.lscache2.c.bigcache.googleapis.com'
p2201
aS'v22.lscache2.c.youtube.com'
p2202
aS'v22.lscache2.googlevideo.com'
p2203
aS'v22.lscache3.c.bigcache.googleapis.com'
p2204
aS'v22.lscache3.c.youtube.com'
p2205
aS'v22.lscache3.googlevideo.com'
p2206
aS'v22.lscache4.c.bigcache.googleapis.com'
p2207
aS'v22.lscache4.c.youtube.com'
p2208
aS'v22.lscache4.googlevideo.com'
p2209
aS'v22.lscache5.c.bigcache.googleapis.com'
p2210
aS'v22.lscache5.c.youtube.com'
p2211
aS'v22.lscache5.googlevideo.com'
p2212
aS'v22.lscache6.c.bigcache.googleapis.com'
p2213
aS'v22.lscache6.c.youtube.com'
p2214
aS'v22.lscache6.googlevideo.com'
p2215
aS'v22.lscache7.c.bigcache.googleapis.com'
p2216
aS'v22.lscache7.c.youtube.com'
p2217
aS'v22.lscache7.googlevideo.com'
p2218
aS'v22.lscache8.c.bigcache.googleapis.com'
p2219
aS'v22.lscache8.c.youtube.com'
p2220
aS'v22.lscache8.googlevideo.com'
p2221
aS'v22.nonxt1.c.youtube.com'
p2222
aS'v22.nonxt1.googlevideo.com'
p2223
aS'v22.nonxt2.c.youtube.com'
p2224
aS'v22.nonxt2.googlevideo.com'
p2225
aS'v22.nonxt3.c.youtube.com'
p2226
aS'v22.nonxt3.googlevideo.com'
p2227
aS'v22.nonxt4.c.youtube.com'
p2228
aS'v22.nonxt4.googlevideo.com'
p2229
aS'v22.nonxt5.c.youtube.com'
p2230
aS'v22.nonxt5.googlevideo.com'
p2231
aS'v22.nonxt6.c.youtube.com'
p2232
aS'v22.nonxt6.googlevideo.com'
p2233
aS'v22.nonxt7.c.youtube.com'
p2234
aS'v22.nonxt7.googlevideo.com'
p2235
aS'v22.nonxt8.c.youtube.com'
p2236
aS'v22.nonxt8.googlevideo.com'
p2237
aS'v23.lscache1.c.bigcache.googleapis.com'
p2238
aS'v23.lscache1.c.youtube.com'
p2239
aS'v23.lscache1.googlevideo.com'
p2240
aS'v23.lscache2.c.bigcache.googleapis.com'
p2241
aS'v23.lscache2.c.youtube.com'
p2242
aS'v23.lscache2.googlevideo.com'
p2243
aS'v23.lscache3.c.bigcache.googleapis.com'
p2244
aS'v23.lscache3.c.youtube.com'
p2245
aS'v23.lscache3.googlevideo.com'
p2246
aS'v23.lscache4.c.bigcache.googleapis.com'
p2247
aS'v23.lscache4.c.youtube.com'
p2248
aS'v23.lscache4.googlevideo.com'
p2249
aS'v23.lscache5.c.bigcache.googleapis.com'
p2250
aS'v23.lscache5.c.youtube.com'
p2251
aS'v23.lscache5.googlevideo.com'
p2252
aS'v23.lscache6.c.bigcache.googleapis.com'
p2253
aS'v23.lscache6.c.youtube.com'
p2254
aS'v23.lscache6.googlevideo.com'
p2255
aS'v23.lscache7.c.bigcache.googleapis.com'
p2256
aS'v23.lscache7.c.youtube.com'
p2257
aS'v23.lscache7.googlevideo.com'
p2258
aS'v23.lscache8.c.bigcache.googleapis.com'
p2259
aS'v23.lscache8.c.youtube.com'
p2260
aS'v23.lscache8.googlevideo.com'
p2261
aS'v23.nonxt1.c.youtube.com'
p2262
aS'v23.nonxt1.googlevideo.com'
p2263
aS'v23.nonxt2.c.youtube.com'
p2264
aS'v23.nonxt2.googlevideo.com'
p2265
aS'v23.nonxt3.c.youtube.com'
p2266
aS'v23.nonxt3.googlevideo.com'
p2267
aS'v23.nonxt4.c.youtube.com'
p2268
aS'v23.nonxt5.c.youtube.com'
p2269
aS'v23.nonxt4.googlevideo.com'
p2270
aS'v23.nonxt5.googlevideo.com'
p2271
aS'v23.nonxt6.c.youtube.com'
p2272
aS'zh-tw.facebook.com'
p2273
aS'v23.nonxt6.googlevideo.com'
p2274
aS'v23.nonxt7.c.youtube.com'
p2275
aS'v23.nonxt7.googlevideo.com'
p2276
aS'v23.nonxt8.c.youtube.com'
p2277
aS'v23.nonxt8.googlevideo.com'
p2278
aS'v24.lscache1.c.bigcache.googleapis.com'
p2279
aS'v24.lscache1.c.youtube.com'
p2280
aS'v24.lscache1.googlevideo.com'
p2281
aS'v24.lscache2.c.bigcache.googleapis.com'
p2282
aS'v24.lscache2.c.youtube.com'
p2283
aS'v24.lscache2.googlevideo.com'
p2284
aS'v24.lscache3.c.bigcache.googleapis.com'
p2285
aS'v24.lscache3.c.youtube.com'
p2286
aS'v24.lscache3.googlevideo.com'
p2287
aS'v24.lscache4.c.bigcache.googleapis.com'
p2288
aS'v24.lscache4.c.youtube.com'
p2289
aS'v24.lscache4.googlevideo.com'
p2290
aS'v24.lscache5.c.bigcache.googleapis.com'
p2291
aS'v24.lscache5.c.youtube.com'
p2292
aS'v24.lscache5.googlevideo.com'
p2293
aS'v24.lscache6.c.bigcache.googleapis.com'
p2294
aS'v24.lscache6.c.youtube.com'
p2295
aS'v24.lscache6.googlevideo.com'
p2296
aS'v24.lscache7.c.bigcache.googleapis.com'
p2297
aS'v24.lscache7.c.youtube.com'
p2298
aS'v24.lscache7.googlevideo.com'
p2299
aS'v24.lscache8.c.bigcache.googleapis.com'
p2300
aS'v24.lscache8.c.youtube.com'
p2301
aS'v24.lscache8.googlevideo.com'
p2302
aS'v24.nonxt1.c.youtube.com'
p2303
aS'v24.nonxt1.googlevideo.com'
p2304
aS'v24.nonxt2.c.youtube.com'
p2305
aS'v24.nonxt2.googlevideo.com'
p2306
aS'v24.nonxt3.c.youtube.com'
p2307
aS'v24.nonxt3.googlevideo.com'
p2308
aS'v24.nonxt4.c.youtube.com'
p2309
aS'v24.nonxt4.googlevideo.com'
p2310
aS'v24.nonxt5.c.youtube.com'
p2311
aS'v24.nonxt5.googlevideo.com'
p2312
aS'v24.nonxt6.c.youtube.com'
p2313
aS'v24.nonxt6.googlevideo.com'
p2314
aS'v24.nonxt7.c.youtube.com'
p2315
aS'v24.nonxt7.googlevideo.com'
p2316
aS'v24.nonxt8.c.youtube.com'
p2317
aS'v24.nonxt8.googlevideo.com'
p2318
aS'v3.cache1.c.bigcache.googleapis.com'
p2319
aS'v3.cache1.c.youtube.com'
p2320
aS'v3.cache1.googlevideo.com'
p2321
aS'v3.cache2.c.bigcache.googleapis.com'
p2322
aS'v3.cache2.c.youtube.com'
p2323
aS'v3.cache2.googlevideo.com'
p2324
aS'v3.cache3.c.bigcache.googleapis.com'
p2325
aS'v3.cache3.c.youtube.com'
p2326
aS'v3.cache3.googlevideo.com'
p2327
aS'v3.cache4.c.bigcache.googleapis.com'
p2328
aS'v3.cache4.c.youtube.com'
p2329
aS'v3.cache4.googlevideo.com'
p2330
aS'v3.cache5.c.bigcache.googleapis.com'
p2331
aS'v3.cache5.c.youtube.com'
p2332
aS'v3.cache5.googlevideo.com'
p2333
aS'v3.cache6.c.bigcache.googleapis.com'
p2334
aS'v3.cache6.c.youtube.com'
p2335
aS'v3.cache6.googlevideo.com'
p2336
aS'v3.cache7.c.bigcache.googleapis.com'
p2337
aS'v3.cache7.c.youtube.com'
p2338
aS'v3.cache7.googlevideo.com'
p2339
aS'v3.cache8.c.bigcache.googleapis.com'
p2340
aS'v3.cache8.c.youtube.com'
p2341
aS'v3.lscache1.c.bigcache.googleapis.com'
p2342
aS'v3.cache8.googlevideo.com'
p2343
aS'v3.lscache1.c.youtube.com'
p2344
aS'v3.lscache1.googlevideo.com'
p2345
aS'v3.lscache2.c.bigcache.googleapis.com'
p2346
aS'v3.lscache2.c.youtube.com'
p2347
aS'v3.lscache2.googlevideo.com'
p2348
aS'v3.lscache3.c.bigcache.googleapis.com'
p2349
aS'v3.lscache3.c.youtube.com'
p2350
aS'v3.lscache3.googlevideo.com'
p2351
aS'v3.lscache4.c.bigcache.googleapis.com'
p2352
aS'v3.lscache4.c.youtube.com'
p2353
aS'v3.lscache4.googlevideo.com'
p2354
aS'v3.lscache5.c.bigcache.googleapis.com'
p2355
aS'v3.lscache5.c.youtube.com'
p2356
aS'v3.lscache5.googlevideo.com'
p2357
aS'v3.lscache6.c.bigcache.googleapis.com'
p2358
aS'v3.lscache6.c.youtube.com'
p2359
aS'v3.lscache6.googlevideo.com'
p2360
aS'v3.lscache7.c.bigcache.googleapis.com'
p2361
aS'v3.lscache7.c.youtube.com'
p2362
aS'v3.lscache7.googlevideo.com'
p2363
aS'v3.lscache8.c.bigcache.googleapis.com'
p2364
aS'v3.lscache8.c.youtube.com'
p2365
aS'v3.lscache8.googlevideo.com'
p2366
aS'v3.nonxt1.c.youtube.com'
p2367
aS'v3.nonxt1.googlevideo.com'
p2368
aS'v3.nonxt2.c.youtube.com'
p2369
aS'v3.nonxt2.googlevideo.com'
p2370
aS'v3.nonxt3.c.youtube.com'
p2371
aS'v3.nonxt3.googlevideo.com'
p2372
aS'v3.nonxt4.c.youtube.com'
p2373
aS'v3.nonxt4.googlevideo.com'
p2374
aS'v3.nonxt5.c.youtube.com'
p2375
aS'v3.nonxt5.googlevideo.com'
p2376
aS'v3.nonxt6.c.youtube.com'
p2377
aS'v3.nonxt6.googlevideo.com'
p2378
aS'v3.nonxt7.c.youtube.com'
p2379
aS'v3.nonxt7.googlevideo.com'
p2380
aS'v3.nonxt8.c.youtube.com'
p2381
aS'v3.nonxt8.googlevideo.com'
p2382
aS'v4.cache1.c.bigcache.googleapis.com'
p2383
aS'v4.cache1.c.youtube.com'
p2384
aS'v4.cache1.googlevideo.com'
p2385
aS'v4.cache2.c.bigcache.googleapis.com'
p2386
aS'v4.cache2.c.youtube.com'
p2387
aS'v4.cache2.googlevideo.com'
p2388
aS'v4.cache3.c.bigcache.googleapis.com'
p2389
aS'v4.cache3.c.youtube.com'
p2390
aS'v4.cache3.googlevideo.com'
p2391
aS'v4.cache4.c.bigcache.googleapis.com'
p2392
aS'v4.cache4.c.youtube.com'
p2393
aS'v4.cache4.googlevideo.com'
p2394
aS'v4.cache5.c.bigcache.googleapis.com'
p2395
aS'v4.cache5.c.youtube.com'
p2396
aS'v4.cache5.googlevideo.com'
p2397
aS'v4.cache6.c.bigcache.googleapis.com'
p2398
aS'v4.cache6.c.youtube.com'
p2399
aS'v4.cache6.googlevideo.com'
p2400
aS'v4.cache7.c.bigcache.googleapis.com'
p2401
aS'v4.cache7.c.youtube.com'
p2402
aS'v4.cache7.googlevideo.com'
p2403
aS'v4.cache8.c.bigcache.googleapis.com'
p2404
aS'v4.cache8.c.youtube.com'
p2405
aS'v4.cache8.googlevideo.com'
p2406
aS'v4.lscache1.c.bigcache.googleapis.com'
p2407
aS'v4.lscache1.c.youtube.com'
p2408
aS'v4.lscache2.c.bigcache.googleapis.com'
p2409
aS'v4.lscache1.googlevideo.com'
p2410
aS'v4.lscache2.c.youtube.com'
p2411
aS'v4.lscache2.googlevideo.com'
p2412
aS'v4.lscache3.c.bigcache.googleapis.com'
p2413
aS'v4.lscache3.c.youtube.com'
p2414
aS'v4.lscache3.googlevideo.com'
p2415
aS'v4.lscache4.c.bigcache.googleapis.com'
p2416
aS'v4.lscache4.c.youtube.com'
p2417
aS'v4.lscache4.googlevideo.com'
p2418
aS'v4.lscache5.c.bigcache.googleapis.com'
p2419
aS'v4.lscache5.c.youtube.com'
p2420
aS'v4.lscache5.googlevideo.com'
p2421
aS'v4.lscache6.c.bigcache.googleapis.com'
p2422
aS'v4.lscache6.c.youtube.com'
p2423
aS'v4.lscache6.googlevideo.com'
p2424
aS'v4.lscache7.c.bigcache.googleapis.com'
p2425
aS'v4.lscache7.c.youtube.com'
p2426
aS'v4.lscache7.googlevideo.com'
p2427
aS'v4.lscache8.c.bigcache.googleapis.com'
p2428
aS'v4.lscache8.c.youtube.com'
p2429
aS'v4.lscache8.googlevideo.com'
p2430
aS'v4.nonxt1.c.youtube.com'
p2431
aS'v4.nonxt1.googlevideo.com'
p2432
aS'v4.nonxt2.c.youtube.com'
p2433
aS'v4.nonxt2.googlevideo.com'
p2434
aS'v4.nonxt3.c.youtube.com'
p2435
aS'v4.nonxt3.googlevideo.com'
p2436
aS'v4.nonxt4.c.youtube.com'
p2437
aS'v4.nonxt4.googlevideo.com'
p2438
aS'v4.nonxt5.c.youtube.com'
p2439
aS'v4.nonxt5.googlevideo.com'
p2440
aS'v4.nonxt6.c.youtube.com'
p2441
aS'v4.nonxt6.googlevideo.com'
p2442
aS'v4.nonxt7.c.youtube.com'
p2443
aS'v4.nonxt7.googlevideo.com'
p2444
aS'v4.nonxt8.c.youtube.com'
p2445
aS'v4.nonxt8.googlevideo.com'
p2446
aS'v5.cache1.c.bigcache.googleapis.com'
p2447
aS'v5.cache1.c.youtube.com'
p2448
aS'v5.cache1.googlevideo.com'
p2449
aS'v5.cache2.c.bigcache.googleapis.com'
p2450
aS'v5.cache2.c.youtube.com'
p2451
aS'v5.cache2.googlevideo.com'
p2452
aS'v5.cache3.c.bigcache.googleapis.com'
p2453
aS'v5.cache3.c.youtube.com'
p2454
aS'v5.cache3.googlevideo.com'
p2455
aS'v5.cache4.c.bigcache.googleapis.com'
p2456
aS'v5.cache4.c.youtube.com'
p2457
aS'v5.cache4.googlevideo.com'
p2458
aS'v5.cache5.c.bigcache.googleapis.com'
p2459
aS'v5.cache5.c.youtube.com'
p2460
aS'v5.cache5.googlevideo.com'
p2461
aS'v5.cache6.c.bigcache.googleapis.com'
p2462
aS'v5.cache6.c.youtube.com'
p2463
aS'v5.cache6.googlevideo.com'
p2464
aS'v5.cache7.c.bigcache.googleapis.com'
p2465
aS'v5.cache7.c.youtube.com'
p2466
aS'v5.cache7.googlevideo.com'
p2467
aS'v5.cache8.c.bigcache.googleapis.com'
p2468
aS'v5.cache8.c.youtube.com'
p2469
aS'v5.cache8.googlevideo.com'
p2470
aS'v5.lscache1.c.bigcache.googleapis.com'
p2471
aS'v5.lscache1.c.youtube.com'
p2472
aS'v5.lscache1.googlevideo.com'
p2473
aS'v5.lscache2.c.bigcache.googleapis.com'
p2474
aS'v5.lscache2.c.youtube.com'
p2475
aS'v5.lscache2.googlevideo.com'
p2476
aS'v5.lscache3.c.bigcache.googleapis.com'
p2477
aS'v5.lscache3.c.youtube.com'
p2478
aS'v5.lscache3.googlevideo.com'
p2479
aS'v5.lscache4.c.bigcache.googleapis.com'
p2480
aS'v5.lscache4.c.youtube.com'
p2481
aS'v5.lscache4.googlevideo.com'
p2482
aS'v5.lscache5.c.bigcache.googleapis.com'
p2483
aS'v5.lscache5.c.youtube.com'
p2484
aS'v5.lscache5.googlevideo.com'
p2485
aS'v5.lscache6.c.bigcache.googleapis.com'
p2486
aS'v5.lscache6.c.youtube.com'
p2487
aS'v5.lscache6.googlevideo.com'
p2488
aS'v5.lscache7.c.bigcache.googleapis.com'
p2489
aS'v5.lscache7.c.youtube.com'
p2490
aS'v5.lscache7.googlevideo.com'
p2491
aS'v5.lscache8.c.bigcache.googleapis.com'
p2492
aS'v5.lscache8.c.youtube.com'
p2493
aS'v5.lscache8.googlevideo.com'
p2494
aS'v5.nonxt1.c.youtube.com'
p2495
aS'v5.nonxt1.googlevideo.com'
p2496
aS'v5.nonxt2.c.youtube.com'
p2497
aS'v5.nonxt3.c.youtube.com'
p2498
aS'v5.nonxt2.googlevideo.com'
p2499
aS'v5.nonxt3.googlevideo.com'
p2500
aS'v5.nonxt4.c.youtube.com'
p2501
aS'v5.nonxt4.googlevideo.com'
p2502
aS'v5.nonxt5.c.youtube.com'
p2503
aS'v5.nonxt5.googlevideo.com'
p2504
aS'v5.nonxt6.c.youtube.com'
p2505
aS'v5.nonxt6.googlevideo.com'
p2506
aS'v5.nonxt7.c.youtube.com'
p2507
aS'v5.nonxt7.googlevideo.com'
p2508
aS'v5.nonxt8.c.youtube.com'
p2509
aS'v5.nonxt8.googlevideo.com'
p2510
aS'v6.cache1.c.bigcache.googleapis.com'
p2511
aS'v6.cache1.c.youtube.com'
p2512
aS'v6.cache1.googlevideo.com'
p2513
aS'v6.cache2.c.bigcache.googleapis.com'
p2514
aS'v6.cache2.c.youtube.com'
p2515
aS'v6.cache2.googlevideo.com'
p2516
aS'v6.cache3.c.bigcache.googleapis.com'
p2517
aS'v6.cache3.c.youtube.com'
p2518
aS'v6.cache3.googlevideo.com'
p2519
aS'v6.cache4.c.bigcache.googleapis.com'
p2520
aS'v6.cache4.c.youtube.com'
p2521
aS'v6.cache4.googlevideo.com'
p2522
aS'v6.cache5.c.bigcache.googleapis.com'
p2523
aS'v6.cache5.c.youtube.com'
p2524
aS'v6.cache5.googlevideo.com'
p2525
aS'v6.cache6.c.bigcache.googleapis.com'
p2526
aS'v6.cache6.c.youtube.com'
p2527
aS'v6.cache6.googlevideo.com'
p2528
aS'v6.cache7.c.bigcache.googleapis.com'
p2529
aS'v6.cache7.c.youtube.com'
p2530
aS'v6.cache7.googlevideo.com'
p2531
aS'v6.cache8.c.bigcache.googleapis.com'
p2532
aS'v6.cache8.c.youtube.com'
p2533
aS'v6.cache8.googlevideo.com'
p2534
aS'v6.lscache1.c.bigcache.googleapis.com'
p2535
aS'v6.lscache1.c.youtube.com'
p2536
aS'v6.lscache1.googlevideo.com'
p2537
aS'v6.lscache2.c.bigcache.googleapis.com'
p2538
aS'v6.lscache2.c.youtube.com'
p2539
aS'v6.lscache2.googlevideo.com'
p2540
aS'v6.lscache3.c.bigcache.googleapis.com'
p2541
aS'v6.lscache3.c.youtube.com'
p2542
aS'v6.lscache3.googlevideo.com'
p2543
aS'v6.lscache4.c.bigcache.googleapis.com'
p2544
aS'v6.lscache4.c.youtube.com'
p2545
aS'v6.lscache4.googlevideo.com'
p2546
aS'v6.lscache5.c.bigcache.googleapis.com'
p2547
aS'v6.lscache5.c.youtube.com'
p2548
aS'v6.lscache5.googlevideo.com'
p2549
aS'v6.lscache6.c.bigcache.googleapis.com'
p2550
aS'v6.lscache6.c.youtube.com'
p2551
aS'v6.lscache6.googlevideo.com'
p2552
aS'v6.lscache7.c.bigcache.googleapis.com'
p2553
aS'v6.lscache7.c.youtube.com'
p2554
aS'v6.lscache7.googlevideo.com'
p2555
aS'v6.lscache8.c.bigcache.googleapis.com'
p2556
aS'v6.lscache8.c.youtube.com'
p2557
aS'v6.lscache8.googlevideo.com'
p2558
aS'v6.nonxt1.c.youtube.com'
p2559
aS'v6.nonxt1.googlevideo.com'
p2560
aS'v6.nonxt2.c.youtube.com'
p2561
aS'v6.nonxt2.googlevideo.com'
p2562
aS'v6.nonxt3.c.youtube.com'
p2563
aS'v6.nonxt3.googlevideo.com'
p2564
aS'v6.nonxt4.c.youtube.com'
p2565
aS'v6.nonxt4.googlevideo.com'
p2566
aS'v6.nonxt5.c.youtube.com'
p2567
aS'v6.nonxt5.googlevideo.com'
p2568
aS'v6.nonxt6.c.youtube.com'
p2569
aS'v6.nonxt6.googlevideo.com'
p2570
aS'v6.nonxt7.c.youtube.com'
p2571
aS'v6.nonxt7.googlevideo.com'
p2572
aS'v6.nonxt8.c.youtube.com'
p2573
aS'v6.nonxt8.googlevideo.com'
p2574
aS'v7.cache1.c.bigcache.googleapis.com'
p2575
aS'v7.cache1.c.youtube.com'
p2576
aS'v7.cache1.googlevideo.com'
p2577
aS'v7.cache2.c.bigcache.googleapis.com'
p2578
aS'v7.cache2.c.youtube.com'
p2579
aS'v7.cache2.googlevideo.com'
p2580
aS'v7.cache3.c.bigcache.googleapis.com'
p2581
aS'v7.cache3.c.youtube.com'
p2582
aS'v7.cache3.googlevideo.com'
p2583
aS'v7.cache4.c.bigcache.googleapis.com'
p2584
aS'v7.cache4.c.youtube.com'
p2585
aS'v7.cache4.googlevideo.com'
p2586
aS'v7.cache5.c.bigcache.googleapis.com'
p2587
aS'v7.cache5.c.youtube.com'
p2588
aS'v7.cache5.googlevideo.com'
p2589
aS'v7.cache6.c.bigcache.googleapis.com'
p2590
aS'v7.cache6.c.youtube.com'
p2591
aS'v7.cache6.googlevideo.com'
p2592
aS'v7.cache7.c.bigcache.googleapis.com'
p2593
aS'v7.cache7.c.youtube.com'
p2594
aS'v7.cache7.googlevideo.com'
p2595
aS'v7.cache8.c.bigcache.googleapis.com'
p2596
aS'v7.cache8.c.youtube.com'
p2597
aS'v7.cache8.googlevideo.com'
p2598
aS'v7.lscache1.c.bigcache.googleapis.com'
p2599
aS'v7.lscache1.c.youtube.com'
p2600
aS'v7.lscache1.googlevideo.com'
p2601
aS'v7.lscache2.c.bigcache.googleapis.com'
p2602
aS'v7.lscache2.c.youtube.com'
p2603
aS'v7.lscache2.googlevideo.com'
p2604
aS'v7.lscache3.c.bigcache.googleapis.com'
p2605
aS'v7.lscache3.c.youtube.com'
p2606
aS'v7.lscache3.googlevideo.com'
p2607
aS'v7.lscache4.c.bigcache.googleapis.com'
p2608
aS'v7.lscache4.c.youtube.com'
p2609
aS'v7.lscache4.googlevideo.com'
p2610
aS'v7.lscache5.c.bigcache.googleapis.com'
p2611
aS'v7.lscache5.c.youtube.com'
p2612
aS'v7.lscache5.googlevideo.com'
p2613
aS'v7.lscache6.c.bigcache.googleapis.com'
p2614
aS'v7.lscache6.c.youtube.com'
p2615
aS'v7.lscache6.googlevideo.com'
p2616
aS'v7.lscache7.c.bigcache.googleapis.com'
p2617
aS'v7.lscache7.c.youtube.com'
p2618
aS'v7.lscache7.googlevideo.com'
p2619
aS'v7.lscache8.c.bigcache.googleapis.com'
p2620
aS'v7.lscache8.c.youtube.com'
p2621
aS'v7.lscache8.googlevideo.com'
p2622
aS'v7.nonxt1.c.youtube.com'
p2623
aS'v7.nonxt1.googlevideo.com'
p2624
aS'v7.nonxt2.c.youtube.com'
p2625
aS'v7.nonxt2.googlevideo.com'
p2626
aS'v7.nonxt3.c.youtube.com'
p2627
aS'v7.nonxt3.googlevideo.com'
p2628
aS'v7.nonxt4.c.youtube.com'
p2629
aS'v7.nonxt4.googlevideo.com'
p2630
aS'v7.nonxt5.c.youtube.com'
p2631
aS'v7.nonxt5.googlevideo.com'
p2632
aS'v7.nonxt6.c.youtube.com'
p2633
aS'v7.nonxt6.googlevideo.com'
p2634
aS'v7.nonxt7.c.youtube.com'
p2635
aS'v7.nonxt7.googlevideo.com'
p2636
aS'v7.nonxt8.c.youtube.com'
p2637
aS'v7.nonxt8.googlevideo.com'
p2638
aS'v8.cache1.c.bigcache.googleapis.com'
p2639
aS'v8.cache1.c.youtube.com'
p2640
aS'v8.cache1.googlevideo.com'
p2641
aS'v8.cache2.c.bigcache.googleapis.com'
p2642
aS'v8.cache2.c.youtube.com'
p2643
aS'v8.cache2.googlevideo.com'
p2644
aS'v8.cache3.c.bigcache.googleapis.com'
p2645
aS'v8.cache3.c.youtube.com'
p2646
aS'v8.cache3.googlevideo.com'
p2647
aS'v8.cache4.c.bigcache.googleapis.com'
p2648
aS'v8.cache4.c.youtube.com'
p2649
aS'v8.cache4.googlevideo.com'
p2650
aS'v8.cache5.c.bigcache.googleapis.com'
p2651
aS'v8.cache5.c.youtube.com'
p2652
aS'v8.cache5.googlevideo.com'
p2653
aS'v8.cache6.c.bigcache.googleapis.com'
p2654
aS'v8.cache6.c.youtube.com'
p2655
aS'v8.cache6.googlevideo.com'
p2656
aS'v8.cache7.c.bigcache.googleapis.com'
p2657
aS'v8.cache7.c.youtube.com'
p2658
aS'v8.cache7.googlevideo.com'
p2659
aS'v8.cache8.c.bigcache.googleapis.com'
p2660
aS'v8.cache8.c.youtube.com'
p2661
aS'v8.cache8.googlevideo.com'
p2662
aS'v8.lscache1.c.bigcache.googleapis.com'
p2663
aS'v8.lscache1.c.youtube.com'
p2664
aS'v8.lscache1.googlevideo.com'
p2665
aS'v8.lscache2.c.bigcache.googleapis.com'
p2666
aS'v8.lscache2.c.youtube.com'
p2667
aS'v8.lscache2.googlevideo.com'
p2668
aS'v8.lscache3.c.bigcache.googleapis.com'
p2669
aS'v8.lscache3.c.youtube.com'
p2670
aS'v8.lscache3.googlevideo.com'
p2671
aS'v8.lscache4.c.bigcache.googleapis.com'
p2672
aS'v8.lscache4.c.youtube.com'
p2673
aS'v8.lscache4.googlevideo.com'
p2674
aS'v8.lscache5.c.bigcache.googleapis.com'
p2675
aS'v8.lscache5.c.youtube.com'
p2676
aS'v8.lscache5.googlevideo.com'
p2677
aS'v8.lscache6.c.bigcache.googleapis.com'
p2678
aS'v8.lscache6.c.youtube.com'
p2679
aS'v8.lscache6.googlevideo.com'
p2680
aS'v8.lscache7.c.bigcache.googleapis.com'
p2681
aS'v8.lscache7.c.youtube.com'
p2682
aS'v8.lscache7.googlevideo.com'
p2683
aS'v8.lscache8.c.bigcache.googleapis.com'
p2684
aS'v8.lscache8.c.youtube.com'
p2685
aS'v8.lscache8.googlevideo.com'
p2686
aS'v8.nonxt1.c.youtube.com'
p2687
aS'v8.nonxt1.googlevideo.com'
p2688
aS'v8.nonxt2.c.youtube.com'
p2689
aS'v8.nonxt2.googlevideo.com'
p2690
aS'v8.nonxt3.c.youtube.com'
p2691
aS'v8.nonxt3.googlevideo.com'
p2692
aS'v8.nonxt4.c.youtube.com'
p2693
aS'v8.nonxt4.googlevideo.com'
p2694
aS'v8.nonxt5.c.youtube.com'
p2695
aS'v8.nonxt5.googlevideo.com'
p2696
aS'v8.nonxt6.c.youtube.com'
p2697
aS'v8.nonxt6.googlevideo.com'
p2698
aS'v8.nonxt7.c.youtube.com'
p2699
aS'v8.nonxt7.googlevideo.com'
p2700
aS'v8.nonxt8.c.youtube.com'
p2701
aS'v8.nonxt8.googlevideo.com'
p2702
aS'v9.lscache1.c.bigcache.googleapis.com'
p2703
aS'v9.lscache1.c.youtube.com'
p2704
aS'v9.lscache1.googlevideo.com'
p2705
aS'v9.lscache2.c.bigcache.googleapis.com'
p2706
aS'v9.lscache2.c.youtube.com'
p2707
aS'v9.lscache2.googlevideo.com'
p2708
aS'v9.lscache3.c.bigcache.googleapis.com'
p2709
aS'v9.lscache3.c.youtube.com'
p2710
aS'v9.lscache3.googlevideo.com'
p2711
aS'v9.lscache4.c.bigcache.googleapis.com'
p2712
aS'v9.lscache4.c.youtube.com'
p2713
aS'v9.lscache4.googlevideo.com'
p2714
aS'v9.lscache5.c.bigcache.googleapis.com'
p2715
aS'v9.lscache5.c.youtube.com'
p2716
aS'v9.lscache5.googlevideo.com'
p2717
aS'v9.lscache6.c.bigcache.googleapis.com'
p2718
aS'v9.lscache6.c.youtube.com'
p2719
aS'v9.lscache6.googlevideo.com'
p2720
aS'v9.lscache7.c.bigcache.googleapis.com'
p2721
aS'v9.lscache7.c.youtube.com'
p2722
aS'v9.lscache7.googlevideo.com'
p2723
aS'v9.lscache8.c.bigcache.googleapis.com'
p2724
aS'v9.lscache8.c.youtube.com'
p2725
aS'v9.lscache8.googlevideo.com'
p2726
aS'v9.nonxt1.c.youtube.com'
p2727
aS'v9.nonxt1.googlevideo.com'
p2728
aS'v9.nonxt2.c.youtube.com'
p2729
aS'v9.nonxt2.googlevideo.com'
p2730
aS'v9.nonxt3.c.youtube.com'
p2731
aS'v9.nonxt3.googlevideo.com'
p2732
aS'v9.nonxt4.c.youtube.com'
p2733
aS'v9.nonxt4.googlevideo.com'
p2734
aS'v9.nonxt5.c.youtube.com'
p2735
aS'v9.nonxt5.googlevideo.com'
p2736
aS'v9.nonxt6.c.youtube.com'
p2737
aS'v9.nonxt6.googlevideo.com'
p2738
aS'v9.nonxt7.c.youtube.com'
p2739
aS'v9.nonxt7.googlevideo.com'
p2740
aS'v9.nonxt8.c.youtube.com'
p2741
aS'v9.nonxt8.googlevideo.com'
p2742
aS'video-stats.video.google.com'
p2743
aS'video.google.cn'
p2744
aS'video.google.com'
p2745
aS'video.google.com.hk'
p2746
aS'video.google.com.tw'
p2747
aS'video.l.google.com'
p2748
aS'vupload.facebook.com'
p2749
aS'wallet.google.com'
p2750
aS'wave-opensocial.googleusercontent.com'
p2751
aS'wave.google.com'
p2752
aS'wave.googleusercontent.com'
p2753
aS'wave1.google.com'
p2754
aS'webcache.googleusercontent.com'
p2755
aS'webmproject.blogspot.com'
p2756
aS'welcome-cros.appspot.com'
p2757
aS'wenda.google.com.hk'
p2758
aS'writely-china.l.google.com'
p2759
aS'writely.google.com'
p2760
aS'writely.l.google.com'
p2761
aS'www-blogger-opensocial.googleusercontent.com'
p2762
aS'www-fc-opensocial.googleusercontent.com'
p2763
aS'www-focus-opensocial.googleusercontent.com'
p2764
aS'www-fusiontables-opensocial.googleusercontent.com'
p2765
aS'www-gm-opensocial.googleusercontent.com'
p2766
aS'www-kix-opensocial.googleusercontent.com'
p2767
aS'www-onepick-opensocial.googleusercontent.com'
p2768
aS'www-open-opensocial.googleusercontent.com'
p2769
aS'www-opensocial-sandbox.googleusercontent.com'
p2770
aS'www-opensocial.googleusercontent.com'
p2771
aS'www-oz-opensocial.googleusercontent.com'
p2772
aS'www-trixcopysheet-opensocial.googleusercontent.com'
p2773
aS'www-wave-opensocial.googleusercontent.com'
p2774
aS'www.265.com'
p2775
aS'www.blogblog.com'
p2776
aS'www.blogger.com'
p2777
aS'www.blogspot.com'
p2778
aS'www.chromium.org'
p2779
aS'www.facebook.com'
p2780
aS'www.gmail.com'
p2781
aS'www.gmodules.com'
p2782
aS'www.google.ae'
p2783
aS'www.google.at'
p2784
aS'www.google.be'
p2785
aS'www.google.ca'
p2786
aS'www.google.ch'
p2787
aS'www.google.cn'
p2788
aS'www.google.co.il'
p2789
aS'www.google.co.in'
p2790
aS'www.google.co.jp'
p2791
aS'www.google.co.kr'
p2792
aS'www.google.co.nz'
p2793
aS'www.google.co.uk'
p2794
aS'www.google.co.ve'
p2795
aS'www.google.co.za'
p2796
aS'www.google.com'
p2797
aS'www.google.com.ar'
p2798
aS'www.google.com.au'
p2799
aS'www.google.com.br'
p2800
aS'www.google.com.gr'
p2801
aS'www.google.com.hk'
p2802
aS'www.google.com.ly'
p2803
aS'www.google.com.my'
p2804
aS'www.google.com.pe'
p2805
aS'www.google.com.ph'
p2806
aS'www.google.com.pk'
p2807
aS'www.google.com.ru'
p2808
aS'www.google.com.sg'
p2809
aS'www.google.com.tr'
p2810
aS'www.google.com.tw'
p2811
aS'www.google.com.ua'
p2812
aS'www.google.com.vn'
p2813
aS'www.google.de'
p2814
aS'www.google.fi'
p2815
aS'www.google.fr'
p2816
aS'www.google.it'
p2817
aS'www.google.lt'
p2818
aS'www.google.lv'
p2819
aS'www.google.nl'
p2820
aS'www.google.pl'
p2821
aS'www.google.pt'
p2822
aS'www.google.ro'
p2823
aS'www.googleapis.com'
p2824
aS'www.googlechinawebmaster.com'
p2825
aS'www.googlehosted.com'
p2826
aS'www.googlelabs.com'
p2827
aS'www.googlemashups.com'
p2828
aS'www.googlesource.com'
p2829
aS'www.googleusercontent.com'
p2830
aS'www.gstatic.cn'
p2831
aS'www.gstatic.com'
p2832
aS'www.gvt0.cn'
p2833
aS'www.ig.gmodules.com'
p2834
aS'www.l.google.com'
p2835
aS'www.orkut.com'
p2836
aS'www.orkut.gmodules.com'
p2837
aa(lp2838
V2607:f8b0:400a:802::100c
p2839
aV2607:f8b0:400a:802::100b
p2840
aV2607:f8b0:400a:802::100a
p2841
aV2001:4860:400b:c01::bd
p2842
aV2607:f8b0:400d:c06::bd
p2843
aV2001:4860:400b:c01::a0
p2844
aV2607:f8b0:4000:800::100e
p2845
aV2a00:1450:4017:801::100c
p2846
aV2607:f8b0:400a:802::100b
p2847
aV2001:4860:400b:c01::bd
p2848
aV2001:4860:400b:c01::bd
p2849
aV2607:f8b0:400a:802::100a
p2850
aV2001:4860:400b:c01::bd
p2851
aV2001:4860:400b:c01::bd
p2852
aV2607:f8b0:400a:802::100a
p2853
aV2a00:1450:4001:c02::bd
p2854
aV2001:4860:400b:c01::bd
p2855
aV2607:f8b0:400a:802::100a
p2856
aV2001:4860:400b:c01::bd
p2857
aV2a00:1450:4013:c01::bd
p2858
aV2607:f8b0:400a:802::100a
p2859
aV2a00:1450:4001:c02::bd
p2860
aV2001:4860:400b:c01::bd
p2861
aV2607:f8b0:400a:802::100c
p2862
aV2001:4860:400b:c01::bd
p2863
aV2001:4860:400b:c01::bd
p2864
aV2607:f8b0:400a:802::100c
p2865
aV2001:4860:400b:c01::bd
p2866
aV2a00:1450:400c:c03::bd
p2867
aV2a00:1450:4013:c01::84
p2868
aV2607:f8b0:4004:806::100a
p2869
aV2a00:1450:4002:802::100c
p2870
aV2404:6800:4006:806::100c
p2871
aV2a00:1450:4017:801::100c
p2872
aV2607:f8b0:400a:802::100b
p2873
aV2607:f8b0:400a:802::100a
p2874
aV2001:4860:400b:c01::bd
p2875
aV2001:4860:400b:c01::bd
p2876
aV2001:4860:400b:c01::a0
p2877
aV2607:f8b0:400a:802::100e
p2878
aV2607:f8b0:400a:802::100c
p2879
aV2a00:1450:4003:803::100a
p2880
aV2607:f8b0:400a:802::100b
p2881
aV2a00:1450:4002:803::100a
p2882
aV2a00:1450:4001:c02::84
p2883
aV2607:f8b0:4001:c02::84
p2884
aV2a00:1450:4001:c02::84
p2885
aV2607:f8b0:400a:802::100a
p2886
aV2a00:1450:400c:c03::a0
p2887
aV2a00:1450:4001:c02::84
p2888
aV2607:f8b0:400a:802::100b
p2889
aV2607:f8b0:400a:802::100b
p2890
aV2607:f8b0:400a:802::100a
p2891
aV2607:f8b0:400a:802::100c
p2892
aV2607:f8b0:400a:802::100a
p2893
aV2607:f8b0:400a:802::100c
p2894
aV2001:4860:400b:c01::bd
p2895
aV2a00:1450:4013:c01::bd
p2896
aV2001:4860:400b:c01::a0
p2897
aV2a00:1450:4013:c01::8b
p2898
aV2a00:1450:400c:c00::84
p2899
aV2607:f8b0:400a:802::100a
p2900
aV2607:f8b0:400a:802::100a
p2901
aV2a00:1450:4002:802::100c
p2902
aV2607:f8b0:400a:802::100a
p2903
aV2607:f8b0:400a:802::100b
p2904
aV2607:f8b0:400a:802::100a
p2905
aV2607:f8b0:400a:802::100a
p2906
aV2607:f8b0:400a:802::100a
p2907
aV2607:f8b0:400a:802::100a
p2908
aV2607:f8b0:400a:802::100b
p2909
aV2607:f8b0:400a:802::100c
p2910
aV2a00:1450:4001:c02::84
p2911
aV2a00:1450:4001:c02::bd
p2912
aV2a00:1450:4001:c02::bd
p2913
aV2607:f8b0:4004:800::1008
p2914
aV2607:f8b0:400a:802::100a
p2915
aV2607:f8b0:400a:802::100c
p2916
aV2607:f8b0:400a:802::100a
p2917
aV2607:f8b0:400a:802::100a
p2918
aV2607:f8b0:400a:802::100a
p2919
aV2607:f8b0:400a:802::100b
p2920
aV2001:4860:400b:c01::bd
p2921
aV2001:4860:400b:c01::bd
p2922
aV2607:f8b0:400a:802::1003
p2923
aV2607:f8b0:400a:802::100c
p2924
aV2607:f8b0:4001:c02::84
p2925
aV2a00:1450:4001:c02::84
p2926
aV2607:f8b0:400a:802::100b
p2927
aV2607:f8b0:400d:c00::bd
p2928
aV2001:4860:400b:c01::bd
p2929
aV2a00:1450:4001:c02::84
p2930
aV2607:f8b0:4004:806::100a
p2931
aV2001:4860:400b:c01::bd
p2932
aV2001:4860:400b:c01::bd
p2933
aV2607:f8b0:400a:802::100b
p2934
aV2001:4860:400b:c01::bd
p2935
aV2001:4860:400b:c01::bd
p2936
aV2607:f8b0:400a:802::100a
p2937
aV2a00:1450:4003:803::100c
p2938
aV2a00:1450:4001:c02::84
p2939
aV2001:4860:400b:c01::bd
p2940
aV2a00:1450:4001:c02::bd
p2941
aV2001:4860:400b:c01::54
p2942
aV2a00:1450:4001:c02::5e
p2943
aV2001:4860:400b:c01::54
p2944
aV2607:f8b0:400a:802::1000
p2945
aV2607:f8b0:400a:802::100a
p2946
aV2607:f8b0:400a:802::1004
p2947
aV2607:f8b0:400a:802::100c
p2948
aV2607:f8b0:400a:802::100c
p2949
aV2607:f8b0:400a:802::100c
p2950
aV2607:f8b0:4001:c02::5f
p2951
aV2a00:1450:4002:802::100c
p2952
aV2001:4860:400b:c01::52
p2953
aV2a00:1450:4017:801::100a
p2954
aV2607:f8b0:400a:802::1006
p2955
aV2404:6800:4005:800::100c
p2956
aV2001:4860:400b:c01::79
p2957
aV2607:f8b0:400a:802::1009
p2958
aV2a00:1450:4001:c02::65
p2959
aV2a03:2880:20:3f07:face:b00c::1
p2960
aV2607:f8b0:400a:802::1006
p2961
aV2001:4860:400b:c01::8d
p2962
aV2a03:2880:20:3f07:face:b00c::1
p2963
aV2607:f8b0:400a:802::1000
p2964
aV2607:f8b0:400a:802::1002
p2965
aV2607:f8b0:400a:802::101d
p2966
aV2607:f8b0:4006:808::1010
p2967
aV2607:f8b0:400a:802::1013
p2968
aV2a00:1450:4013:c01::6a
p2969
aV2607:f8b0:400a:802::1013
p2970
aV2404:6800:4005:800::1013
p2971
aV2607:f8b0:4001:c02::84
p2972
aV2607:f8b0:400a:802::100b
p2973
aV2001:4860:400b:c01::bf
p2974
aV2607:f8b0:400a:802::1005
p2975
aV2607:f8b0:400a:802::1007
p2976
aV2607:f8b0:400a:802::1008
p2977
aV2607:f8b0:400a:802::1005
p2978
aV2607:f8b0:400a:802::1002
p2979
aV2001:4860:400b:c01::79
p2980
aV2607:f8b0:400a:802::1007
p2981
aV2607:f8b0:400a:802::100e
p2982
aV2a00:1450:4013:c01::65
p2983
aV2607:f8b0:4006:808::1007
p2984
aV2607:f8b0:400a:802::1006
p2985
aV2a00:1450:4003:803::1007
p2986
aV2607:f8b0:400a:802::1009
p2987
aV2404:6800:4005:800::1000
p2988
aV2607:f8b0:400a:802::1002
p2989
aV2607:f8b0:400a:802::1000
p2990
aV2607:f8b0:4004:806::1006
p2991
aV2607:f8b0:400a:802::1009
p2992
aV2607:f8b0:400a:802::1007
p2993
aV2607:f8b0:400a:802::1000
p2994
aV2607:f8b0:400a:802::1009
p2995
aV2607:f8b0:400a:802::1007
p2996
aV2607:f8b0:400a:802::1009
p2997
aV2404:6800:4008:c01::89
p2998
aV2001:4860:400b:c01::79
p2999
aV2001:4860:400b:c01::79
p3000
aV2001:4860:400b:c01::bf
p3001
aV2404:6800:4008:c01::bf
p3002
aV2607:f8b0:400a:802::100c
p3003
aV2a00:1450:4001:c02::bf
p3004
aV2a00:1450:4002:802::1003
p3005
aV2607:f8b0:400a:802::100a
p3006
aV2001:4860:400b:c01::a0
p3007
aV2607:f8b0:400a:802::1014
p3008
aV2607:f8b0:400a:802::1014
p3009
aV2607:f8b0:400a:802::1014
p3010
aV2607:f8b0:400a:802::100a
p3011
aV2001:4860:400b:c01::bf
p3012
aV2607:f8b0:400a:802::100b
p3013
aV2a00:1450:4001:c02::8d
p3014
aV2001:4860:400b:c01::a0
p3015
aV2404:6800:4005:800::1003
p3016
aV2607:f8b0:400a:802::1002
p3017
aV2a00:1450:4001:c02::84
p3018
aV2607:f8b0:400a:802::1003
p3019
aV2607:f8b0:400a:802::1004
p3020
aV2607:f8b0:400a:802::1006
p3021
aV2607:f8b0:400a:802::1004
p3022
aV2001:4860:400b:c01::bd
p3023
aV2001:4860:400b:c01::8d
p3024
aV2607:f8b0:400a:802::100b
p3025
aV2a00:1450:4013:c01::84
p3026
aV2001:4860:400b:c01::bf
p3027
aV2a00:1450:4001:c02::bf
p3028
aV2a00:1450:4013:c01::8a
p3029
aV2a00:1450:4013:c01::80
p3030
aV2607:f8b0:4004:800::1001
p3031
aV2001:4860:4001:7::e
p3032
aV2607:f8b0:4001:c02::65
p3033
aV2a00:1450:400c:c00::71
p3034
aV2a00:1450:4013:c00::64
p3035
aV2607:f8b0:400a:802::1007
p3036
aV2607:f8b0:400a:802::1000
p3037
aV2607:f8b0:400a:802::100e
p3038
aV2607:f8b0:400a:802::100e
p3039
aV2607:f8b0:400a:802::1002
p3040
aV2a00:1450:4013:c01::64
p3041
aV2607:f8b0:4004:800::1005
p3042
aV2001:4860:400b:c01::5f
p3043
aV2607:f8b0:4001:c02::bd
p3044
aV2a03:2880:2050:3f07:face:b00c::1
p3045
aV2a00:1450:4007:80a::100b
p3046
aV2607:f8b0:400a:802::1002
p3047
aV2607:f8b0:400a:802::100c
p3048
aV2a00:1450:4001:c02::52
p3049
aV2607:f8b0:400a:802::1004
p3050
aV2001:4860:400b:c01::8d
p3051
aV2607:f8b0:400a:802::1006
p3052
aV2607:f8b0:400a:802::1006
p3053
aV2607:f8b0:400a:802::100f
p3054
aV2607:f8b0:400a:802::100f
p3055
aV2607:f8b0:400a:802::100a
p3056
aV2607:f8b0:400a:802::1006
p3057
aV2607:f8b0:4004:806::100c
p3058
aV2a00:1450:4002:802::1005
p3059
aV2a00:1450:400c:c00::66
p3060
aV2607:f8b0:4004:800::1008
p3061
aV2607:f8b0:400a:802::1004
p3062
aV2001:4860:400b:c01::52
p3063
aV2607:f8b0:400a:802::100a
p3064
aV2607:f8b0:400a:802::1003
p3065
aV2607:f8b0:400a:802::1003
p3066
aV2001:4860:400b:c01::8d
p3067
aV2607:f8b0:400a:802::100a
p3068
aV2a03:2880:11:1f04:face:b00c::1
p3069
aV2001:4860:400b:c01::8d
p3070
aV2607:f8b0:4007:803::1018
p3071
aV2607:f8b0:4012:800::101f
p3072
aV2a00:1450:4001:c02::8d
p3073
aV2607:f8b0:400a:802::1007
p3074
aV2607:f8b0:4001:c02::84
p3075
aV2a00:1450:4001:c02::79
p3076
aV2a03:2880:2050:1f08:face:b00c::1
p3077
aV2a00:1450:4017:801::1003
p3078
aV2607:f8b0:400a:802::1008
p3079
aV2607:f8b0:400a:802::1008
p3080
aV2607:f8b0:400e:c04::a0
p3081
aV2607:f8b0:400a:802::1007
p3082
aV2001:4860:400b:c01::5b
p3083
aV2607:f8b0:400a:802::1000
p3084
aV2607:f8b0:400a:802::1006
p3085
aV2a00:1450:4013:c01::84
p3086
aV2607:f8b0:400a:802::100b
p3087
aV2607:f8b0:4004:800::100c
p3088
aV2607:f8b0:400a:802::100a
p3089
aV2607:f8b0:4006:808::100b
p3090
aV2607:f8b0:400a:802::100c
p3091
aV2607:f8b0:400a:802::100a
p3092
aV2a00:1450:4002:802::100a
p3093
aV2607:f8b0:400a:802::100a
p3094
aV2607:f8b0:400a:802::100a
p3095
aV2607:f8b0:400a:802::100a
p3096
aV2607:f8b0:400a:802::100a
p3097
aV2607:f8b0:400a:802::100b
p3098
aV2404:6800:4006:806::100c
p3099
aV2a00:1450:4013:c01::84
p3100
aV2607:f8b0:4000:800::100a
p3101
aV2a00:1450:4001:c02::84
p3102
aV2a00:1450:4001:c02::84
p3103
aV2607:f8b0:400a:802::100c
p3104
aV2607:f8b0:400a:802::100c
p3105
aV2607:f8b0:4000:800::100c
p3106
aV2a00:1450:4013:c01::84
p3107
aV2607:f8b0:400a:802::100a
p3108
aV2607:f8b0:400a:802::100c
p3109
aV2607:f8b0:400a:802::100a
p3110
aV2607:f8b0:400a:802::100a
p3111
aV2607:f8b0:400a:802::100a
p3112
aV2607:f8b0:400a:802::100a
p3113
aV2a00:1450:4013:c01::84
p3114
aV2607:f8b0:400a:802::100a
p3115
aV2a00:1450:4013:c01::84
p3116
aV2607:f8b0:4006:808::100c
p3117
aV2607:f8b0:400a:802::100c
p3118
aV2a00:1450:400c:c00::84
p3119
aV2607:f8b0:400a:802::100a
p3120
aV2607:f8b0:400a:802::100c
p3121
aV2607:f8b0:400a:802::1008
p3122
aV2607:f8b0:400a:802::100a
p3123
aV2607:f8b0:400a:802::100b
p3124
aV2404:6800:4006:806::100c
p3125
aV2a00:1450:4001:c02::84
p3126
aV2607:f8b0:400a:802::100b
p3127
aV2404:6800:4005:800::100b
p3128
aV2607:f8b0:400a:802::100a
p3129
aV2404:6800:4005:800::100b
p3130
aV2607:f8b0:400a:802::100a
p3131
aV2a00:1450:4013:c01::84
p3132
aV2a00:1450:4001:c02::84
p3133
aV2607:f8b0:400a:802::100c
p3134
aV2607:f8b0:400a:802::100c
p3135
aV2607:f8b0:400a:802::100a
p3136
aV2607:f8b0:400a:802::100a
p3137
aV2607:f8b0:400a:802::100a
p3138
aV2607:f8b0:400a:802::100a
p3139
aV2607:f8b0:400a:802::100a
p3140
aV2607:f8b0:400a:802::100a
p3141
aV2607:f8b0:400a:802::100a
p3142
aV2607:f8b0:400a:802::100a
p3143
aV2607:f8b0:4004:800::100c
p3144
aV2607:f8b0:4000:800::100a
p3145
aV2404:6800:4005:800::100a
p3146
aV2607:f8b0:400a:802::100c
p3147
aV2607:f8b0:400a:802::100c
p3148
aV2607:f8b0:400a:802::100a
p3149
aV2607:f8b0:400a:802::100a
p3150
aV2607:f8b0:400a:802::100c
p3151
aV2607:f8b0:400a:802::100a
p3152
aV2607:f8b0:400a:802::100b
p3153
aV2607:f8b0:4004:800::100c
p3154
aV2607:f8b0:400a:802::100b
p3155
aV2a00:1450:400c:c00::84
p3156
aV2a00:1450:4013:c01::84
p3157
aV2a00:1450:4013:c00::84
p3158
aV2a00:1450:4013:c01::84
p3159
aV2607:f8b0:400a:802::100c
p3160
aV2607:f8b0:400a:802::100a
p3161
aV2607:f8b0:400a:802::1002
p3162
aV2607:f8b0:400a:802::1001
p3163
aV2607:f8b0:400a:802::1001
p3164
aV2607:f8b0:400a:802::1005
p3165
aV2a00:1450:4001:c02::66
p3166
aV2607:f8b0:4006:808::1009
p3167
aV2607:f8b0:400a:802::1007
p3168
aV2a00:1450:4007:80a::1002
p3169
aV2607:f8b0:400a:802::1003
p3170
aV2a00:1450:4007:80a::1006
p3171
aV2a00:1450:4002:802::1006
p3172
aV2607:f8b0:400a:802::100a
p3173
aV2607:f8b0:4001:c02::bf
p3174
aV2a00:1450:4001:c02::8b
p3175
aV2001:4860:400b:c01::52
p3176
aV2607:f8b0:400a:802::1002
p3177
aV2001:4860:400b:c01::8d
p3178
aV2607:f8b0:400a:802::100b
p3179
aV2001:4860:400b:c01::79
p3180
aV2a00:1450:4007:80a::1001
p3181
aV2a00:1450:4002:802::1001
p3182
aV2a00:1450:4001:c02::8a
p3183
aV2607:f8b0:400a:802::100e
p3184
aV2607:f8b0:4000:800::1007
p3185
aV2607:f8b0:400a:802::1002
p3186
aV2a00:1450:4001:c02::8d
p3187
aV2001:4860:400b:c01::8d
p3188
aV2607:f8b0:400a:802::100c
p3189
aV2607:f8b0:400a:802::101d
p3190
aV2607:f8b0:400a:802::1009
p3191
aV2001:4860:400b:c01::8d
p3192
aV2001:4860:400b:c01::5f
p3193
aV2607:f8b0:400a:802::1005
p3194
aV2607:f8b0:400a:802::1005
p3195
aV2a00:1450:4017:801::1011
p3196
aV2001:4860:400b:c01::a0
p3197
aV2607:f8b0:4000:800::1017
p3198
aV2607:f8b0:4004:800::1017
p3199
aV2607:f8b0:400a:802::100f
p3200
aV2607:f8b0:400a:802::100f
p3201
aV2607:f8b0:400a:802::1001
p3202
aV2607:f8b0:400a:802::1001
p3203
aV2607:f8b0:400a:802::100c
p3204
aV2607:f8b0:400a:802::1002
p3205
aV2607:f8b0:400a:802::1005
p3206
aV2607:f8b0:400a:802::1008
p3207
aV2001:4860:400b:c01::79
p3208
aV2607:f8b0:4001:c02::79
p3209
aV2607:f8b0:400d:c06::79
p3210
aV2001:4860:400b:c01::79
p3211
aV2607:f8b0:4003:c01::6d
p3212
aV2a00:1450:4013:c01::6c
p3213
aV2a00:1450:4013:c01::1a
p3214
aV2607:f8b0:400d:c01::6d
p3215
aV2607:f8b0:400e:c03::6c
p3216
aV2607:f8b0:400a:802::1016
p3217
aV2607:f8b0:400a:802::1008
p3218
aV2607:f8b0:400a:802::100c
p3219
aV2001:4860:400b:c01::52
p3220
aV2001:4860:400b:c01::6a
p3221
aV2607:f8b0:400e:c02::e
p3222
aV2a00:1450:4001:c02::84
p3223
aV2607:f8b0:4003:c05::8d
p3224
aV2607:f8b0:4004:806::100b
p3225
aV2a00:1450:4013:c01::52
p3226
aV2a00:1450:4001:801::100a
p3227
aV2607:f8b0:400a:802::100c
p3228
aV2001:4860:4860::8888
p3229
aV2001:4860:4860::8844
p3230
aV2001:4860:400b:c01::a0
p3231
aV2607:f8b0:400a:802::1007
p3232
aV2001:4860:400b:c01::5e
p3233
aV2607:f8b0:400a:802::100c
p3234
aV2a00:1450:4001:c02::5f
p3235
aV2a00:1450:4007:80a::100a
p3236
aV2001:4860:400b:c01::52
p3237
aV2607:f8b0:4004:800::100a
p3238
aV2a00:1450:400c:c00::84
p3239
aV2a00:1450:4002:802::100a
p3240
aV2607:f8b0:400a:802::100c
p3241
aV2a00:1450:4001:803::100a
p3242
aV2607:f8b0:400a:802::100b
p3243
aV2607:f8b0:400a:802::100c
p3244
aV2001:4860:400b:c01::52
p3245
aV2607:f8b0:400a:802::100c
p3246
aV2607:f8b0:400a:802::100c
p3247
aV2607:f8b0:400a:802::100c
p3248
aV2607:f8b0:400a:802::100c
p3249
aV2a00:1450:4013:c01::84
p3250
aV2a00:1450:4013:c01::10
p3251
aV2607:f8b0:400e:c03::10
p3252
aV2a00:1450:400c:c00::10
p3253
aV2607:f8b0:400a:802::1015
p3254
aV2a00:1450:4007:80a::100c
p3255
aV2a00:1450:400c:c00::69
p3256
aV2607:f8b0:400a:802::100c
p3257
aV2607:f8b0:400a:802::100c
p3258
aV2607:f8b0:400a:802::100c
p3259
aV2001:4860:400b:c01::8d
p3260
aV2607:f8b0:400a:802::100c
p3261
aV2001:4860:400b:c01::69
p3262
aV2607:f8b0:400a:802::100c
p3263
aV2a00:1450:4007:80a::1007
p3264
aV2607:f8b0:400a:802::100b
p3265
aV2607:f8b0:400a:802::100a
p3266
aV2a00:1450:400c:c00::79
p3267
aV2607:f8b0:4004:800::1006
p3268
aV2a03:2880:2110:cf07:face:b00c::1
p3269
aV2001:4860:400b:c01::65
p3270
aV2607:f8b0:400d:c06::8a
p3271
aV2a00:1450:4013:c01::71
p3272
aV2a00:1450:4001:c02::71
p3273
aV2001:4860:400b:c01::79
p3274
aV2607:f8b0:400a:802::1012
p3275
aV2001:4860:400b:c01::8d
p3276
aV2001:4860:400b:c01::8d
p3277
aV2607:f8b0:400a:802::1001
p3278
aV2607:f8b0:400a:802::1007
p3279
aV2001:4860:400b:c01::8d
p3280
aV2404:6800:4006:806::1009
p3281
aV2607:f8b0:4006:808::1012
p3282
aV2607:f8b0:400a:802::1012
p3283
aV2001:4860:400b:c01::69
p3284
aV2607:f8b0:400a:802::100c
p3285
aV2a00:1450:4002:802::1003
p3286
aV2001:4860:400b:c01::8d
p3287
aV2a00:1450:400c:c00::84
p3288
aV2607:f8b0:400a:803::1018
p3289
aV2607:f8b0:400a:803::100f
p3290
aV2607:f8b0:400a:803::1018
p3291
aV2607:f8b0:400a:803::1018
p3292
aV2607:f8b0:400a:802::100c
p3293
aV2607:f8b0:400a:802::100a
p3294
aV2001:4860:400b:c01::8d
p3295
aV2a00:1450:4001:c02::84
p3296
aV2a00:1450:4001:c02::84
p3297
aV2607:f8b0:400a:802::100a
p3298
aV2607:f8b0:4006:808::100b
p3299
aV2607:f8b0:400a:802::100b
p3300
aV2a00:1450:4013:c01::71
p3301
aV2607:f8b0:400a:802::1000
p3302
aV2607:f8b0:400a:802::1000
p3303
aV2607:f8b0:400a:802::100c
p3304
aV2607:f8b0:400a:802::100a
p3305
aV2607:f8b0:400a:802::100a
p3306
aV2607:f8b0:400a:802::100a
p3307
aV2607:f8b0:400a:802::100a
p3308
aV2607:f8b0:4000:800::100c
p3309
aV2607:f8b0:4006:808::100b
p3310
aV2607:f8b0:400a:802::100b
p3311
aS''
p3312
aV2a00:1450:4007:80a::100c
p3313
aV2607:f8b0:400e:c02::6d
p3314
aV2607:f8b0:400d:c00::10
p3315
aV2607:f8b0:400a:802::100b
p3316
aV2a00:1450:400c:c00::8a
p3317
aV2607:f8b0:4001:c02::84
p3318
aV2607:f8b0:400d:c06::bf
p3319
aV2607:f8b0:400a:802::100b
p3320
aV2001:4860:400b:c01::56
p3321
aV2001:4860:400b:c01::bf
p3322
aV2607:f8b0:400a:802::100a
p3323
aV2001:4860:400b:c01::56
p3324
aV2a00:1450:4001:c02::84
p3325
aV2001:4860:400b:c01::55
p3326
aV2404:6800:4008:c01::55
p3327
aV2a00:1450:4001:c02::57
p3328
aV2a00:1450:4001:c02::57
p3329
aV2607:f8b0:400d:c00::57
p3330
aV2a00:1450:4013:c01::55
p3331
aV2001:4860:400b:c01::55
p3332
aV2607:f8b0:400a:802::1002
p3333
aV2607:f8b0:400a:802::1008
p3334
aV2001:4860:400b:c01::65
p3335
aV2001:4860:400b:c01::65
p3336
aV2001:4860:400b:c01::65
p3337
aV2001:4860:400b:c01::65
p3338
aV2001:4860:400b:c01::65
p3339
aV2607:f8b0:400a:802::1002
p3340
aV2a00:1450:4002:802::1002
p3341
aV2001:4860:400b:c01::8d
p3342
aV2607:f8b0:4004:806::100a
p3343
aV2a00:1450:4013:c01::5b
p3344
aV2607:f8b0:400a:802::1004
p3345
aV2607:f8b0:400a:802::1006
p3346
aV2607:f8b0:400a:802::1006
p3347
aV2607:f8b0:400a:802::1002
p3348
aV2607:f8b0:400a:802::1001
p3349
aV2607:f8b0:400a:802::1002
p3350
aV2607:f8b0:400a:802::1002
p3351
aV2607:f8b0:400a:802::1006
p3352
aV2607:f8b0:400a:802::100e
p3353
aV2607:f8b0:400a:802::100e
p3354
aV2607:f8b0:400a:802::1000
p3355
aV2607:f8b0:4006:808::1001
p3356
aV2607:f8b0:400a:802::1002
p3357
aV2a00:1450:4001:c02::8b
p3358
aV2607:f8b0:400a:802::1008
p3359
aV2a00:1450:4002:803::100b
p3360
aV2607:f8b0:4004:806::1008
p3361
aV2607:f8b0:400a:802::1008
p3362
aV2001:4860:400b:c01::74
p3363
aV2607:f8b0:400a:802::100c
p3364
aV2607:f8b0:400a:802::100a
p3365
aV2607:f8b0:400a:802::1002
p3366
aV2607:f8b0:400a:802::100c
p3367
aV2607:f8b0:400a:802::1003
p3368
aV2a00:1450:400c:c00::84
p3369
aV2607:f8b0:400a:802::1000
p3370
aV2404:6800:4006:806::100c
p3371
aV2607:f8b0:400a:802::100a
p3372
aV2607:f8b0:4001:c02::8b
p3373
aV2a00:1450:4013:c01::84
p3374
aV2607:f8b0:400a:802::100c
p3375
aV2a00:1450:4013:c00::66
p3376
aV2607:f8b0:4004:800::100c
p3377
aV2607:f8b0:400a:802::100c
p3378
aV2607:f8b0:400a:802::100e
p3379
aV2607:f8b0:400a:802::100a
p3380
aV2607:f8b0:400a:802::1003
p3381
aV2a00:1450:4001:c02::8d
p3382
aV2a00:1450:4001:c02::8d
p3383
aV2607:f8b0:4000:800::1007
p3384
aV2a03:2880:2050:3f07:face:b00c::1
p3385
aV2607:f8b0:400a:802::1015
p3386
aV2a00:1450:4001:c02::a0
p3387
aV2001:4860:400b:c01::c1
p3388
aV2001:4860:400b:c01::c1
p3389
aV2a00:1450:4002:802::1016
p3390
aV2607:f8b0:400a:802::1006
p3391
aV2607:f8b0:400a:802::100a
p3392
aV2607:f8b0:400a:802::1015
p3393
aV2607:f8b0:400a:802::1005
p3394
aV2607:f8b0:400a:802::1006
p3395
aV2607:f8b0:400a:802::100a
p3396
aV2607:f8b0:400a:802::1006
p3397
aV2607:f8b0:4001:c02::5e
p3398
aV2607:f8b0:400a:802::101f
p3399
aV2001:4860:400b:c01::5f
p3400
aV2404:6800:4008:c01::a0
p3401
aV2607:f8b0:400a:802::100f
p3402
aV2607:f8b0:400a:802::1002
p3403
aV2607:f8b0:400a:802::1002
p3404
aV2607:f8b0:400e:c01::bc
p3405
aV2001:4860:400b:c01::bf
p3406
aV2001:4860:400b:c01::c1
p3407
aV2001:4860:400b:c01::67
p3408
aV2001:4860:400b:c01::c1
p3409
aV2a00:1450:4001:c02::66
p3410
aV2a00:1450:4001:c02::8d
p3411
aV2607:f8b0:400d:c04::a0
p3412
aV2a00:1450:400c:c00::65
p3413
aV2a00:1450:4013:c01::65
p3414
aV2607:f8b0:400e:c03::a0
p3415
aV2607:f8b0:400a:802::100e
p3416
aV2607:f8b0:400a:802::1009
p3417
aV2607:f8b0:400a:802::1009
p3418
aV2607:f8b0:400e:c04::a0
p3419
aV2607:f8b0:400a:802::1005
p3420
aV2607:f8b0:400a:802::1005
p3421
aV2607:f8b0:4001:c02::66
p3422
aV2607:f8b0:400d:c03::a0
p3423
aV2607:f8b0:400a:802::1008
p3424
aV2a00:1450:400d:805::1004
p3425
aV2607:f8b0:400a:802::1000
p3426
aV2a00:1450:400c:c04::a0
p3427
aV2607:f8b0:400a:802::1005
p3428
aV2a00:1450:4002:803::1002
p3429
aV2a00:1450:4002:802::1003
p3430
aV2607:f8b0:400a:802::1009
p3431
aV2607:f8b0:400a:802::1006
p3432
aV2607:f8b0:400a:802::1007
p3433
aV2607:f8b0:400a:802::1000
p3434
aV2607:f8b0:400e:c03::bc
p3435
aV2607:f8b0:400a:802::1006
p3436
aV2a00:1450:4013:c00::64
p3437
aV2a00:1450:4002:802::1004
p3438
aV2607:f8b0:400a:802::100e
p3439
aV2404:6800:4005:800::1001
p3440
aV2607:f8b0:400a:802::1006
p3441
aV2a00:1450:4013:c00::84
p3442
aV2a00:1450:4001:c02::75
p3443
aV2607:f8b0:400a:802::1001
p3444
aV2607:f8b0:400a:802::100b
p3445
aV2607:f8b0:400a:802::100a
p3446
aV2607:f8b0:400a:802::1003
p3447
aV2607:f8b0:400a:802::1000
p3448
aV2001:4860:400b:c01::a0
p3449
aV2607:f8b0:400a:802::1009
p3450
aV2a00:1450:4013:c01::5e
p3451
aV2607:f8b0:400a:802::101f
p3452
aV2a00:1450:4013:c00::64
p3453
aV2a00:1450:400c:c00::8d
p3454
aV2607:f8b0:400d:c00::8d
p3455
aV2001:4860:400b:c01::8d
p3456
aV2607:f8b0:400a:802::100b
p3457
aV2a00:1450:4001:c02::84
p3458
aV2a00:1450:4002:802::100a
p3459
aV2607:f8b0:400a:802::100c
p3460
aV2607:f8b0:400a:802::100c
p3461
aV2607:f8b0:400a:802::100a
p3462
aV2607:f8b0:400a:802::100a
p3463
aV2607:f8b0:4001:c02::84
p3464
aV2404:6800:4008:c01::57
p3465
aV2001:4860:400b:c01::56
p3466
aV2607:f8b0:4001:c02::55
p3467
aV2a00:1450:4001:c02::57
p3468
aV2001:4860:400b:c01::56
p3469
aV2a00:1450:400c:c00::84
p3470
aV2a00:1450:4002:803::1014
p3471
aV2607:f8b0:400a:802::1011
p3472
aV2001:4860:400b:c01::8d
p3473
aV2607:f8b0:400a:802::1011
p3474
aV2607:f8b0:400a:802::100a
p3475
aV2607:f8b0:400a:802::1004
p3476
aV2607:f8b0:400a:802::1011
p3477
aV2607:f8b0:400a:802::1011
p3478
aV2607:f8b0:400a:802::1004
p3479
aV2607:f8b0:400a:802::1004
p3480
aV2a00:1450:4013:c01::88
p3481
aV2607:f8b0:4004:806::100e
p3482
aV2a03:2880:20:3f07:face:b00c::1
p3483
aV2a03:2880:20:8f08:face:b00c::1
p3484
aV2607:f8b0:400a:802::1003
p3485
aV2607:f8b0:400a:802::1005
p3486
aV2607:f8b0:400a:802::1002
p3487
aV2607:f8b0:400e:c03::6d
p3488
aV2607:f8b0:400e:c02::10
p3489
aV2001:4860:400b:c01::66
p3490
aV2001:4860:400b:c01::8d
p3491
aV2607:f8b0:400a:802::1006
p3492
aV2001:4860:400b:c01::8d
p3493
aV2001:4860:400b:c01::56
p3494
aV2a00:1450:4001:c02::84
p3495
aV2607:f8b0:4007:1a::6
p3496
aV2607:f8b0:4007:16::6
p3497
aV2001:1900:2200:20::c
p3498
aV2001:4860:4001:10::6
p3499
aV2404:6800:4005:4::6
p3500
aV2404:6800:4005:4::6
p3501
aV2404:6800:4005:4::6
p3502
aV2404:6800:4005:5::6
p3503
aV2404:6800:4005:5::6
p3504
aV2404:6800:4005:5::6
p3505
aV2404:6800:4005:6::6
p3506
aV2404:6800:4005:6::6
p3507
aV2404:6800:4005:6::6
p3508
aV2404:6800:4005:7::6
p3509
aV2404:6800:4005:7::6
p3510
aV2404:6800:4005:7::6
p3511
aV2404:6800:4007::6
p3512
aV2404:6800:4007::6
p3513
aV2404:6800:4007:1::6
p3514
aV2404:6800:4007:1::6
p3515
aV2404:6800:4008:2::6
p3516
aV2404:6800:4008:2::6
p3517
aV2404:6800:4008:3::6
p3518
aV2404:6800:4008:3::6
p3519
aV2001:4860:4001:10::f
p3520
aV2404:6800:4005:4::f
p3521
aV2404:6800:4005:4::f
p3522
aV2404:6800:4005:4::f
p3523
aV2404:6800:4005:5::f
p3524
aV2404:6800:4005:5::f
p3525
aV2404:6800:4005:5::f
p3526
aV2404:6800:4005:6::f
p3527
aV2404:6800:4005:6::f
p3528
aV2404:6800:4005:6::f
p3529
aV2404:6800:4005:7::f
p3530
aV2404:6800:4005:7::f
p3531
aV2404:6800:4005:7::f
p3532
aV2404:6800:4007::f
p3533
aV2404:6800:4007::f
p3534
aV2404:6800:4007:1::f
p3535
aV2404:6800:4007:1::f
p3536
aV2404:6800:4008:2::f
p3537
aV2404:6800:4008:2::f
p3538
aV2404:6800:4008:3::f
p3539
aV2404:6800:4008:3::f
p3540
aV2001:4860:4007:5::10
p3541
aV2001:4860:4001:10::10
p3542
aV2404:6800:4005:4::10
p3543
aV2404:6800:4005:4::10
p3544
aV2404:6800:4005:4::10
p3545
aV2404:6800:4005:5::10
p3546
aV2404:6800:4005:5::10
p3547
aV2001:4860:400b:c01::bf
p3548
aV2404:6800:4005:5::10
p3549
aV2404:6800:4005:6::10
p3550
aV2404:6800:4005:6::10
p3551
aV2404:6800:4005:7::10
p3552
aV2404:6800:4005:6::10
p3553
aV2404:6800:4005:7::10
p3554
aV2404:6800:4005:7::10
p3555
aV2404:6800:4007::10
p3556
aV2404:6800:4007::10
p3557
aV2404:6800:4007:1::10
p3558
aV2404:6800:4007:1::10
p3559
aV2404:6800:4008:2::10
p3560
aV2404:6800:4008:2::10
p3561
aV2404:6800:4008:3::10
p3562
aV2404:6800:4008:3::10
p3563
aV2001:4860:4001:10::11
p3564
aV2404:6800:4005:4::11
p3565
aV2404:6800:4005:4::11
p3566
aV2404:6800:4005:4::11
p3567
aV2404:6800:4005:5::11
p3568
aV2404:6800:4005:5::11
p3569
aV2404:6800:4005:5::11
p3570
aV2404:6800:4005:6::11
p3571
aV2404:6800:4005:6::11
p3572
aV2404:6800:4005:6::11
p3573
aV2404:6800:4005:7::11
p3574
aV2404:6800:4005:7::11
p3575
aV2404:6800:4005:7::11
p3576
aV2404:6800:4007::11
p3577
aV2404:6800:4007::11
p3578
aV2404:6800:4007:1::11
p3579
aV2404:6800:4007:1::11
p3580
aV2404:6800:4008:2::11
p3581
aV2404:6800:4008:2::11
p3582
aV2404:6800:4008:3::11
p3583
aV2404:6800:4008:3::11
p3584
aV2001:4860:4001:10::12
p3585
aV2404:6800:4005:4::12
p3586
aV2404:6800:4005:4::12
p3587
aV2404:6800:4005:4::12
p3588
aV2404:6800:4005:5::12
p3589
aV2404:6800:4005:5::12
p3590
aV2404:6800:4005:5::12
p3591
aV2404:6800:4005:6::12
p3592
aV2404:6800:4005:6::12
p3593
aV2404:6800:4005:6::12
p3594
aV2404:6800:4005:7::12
p3595
aV2404:6800:4005:7::12
p3596
aV2404:6800:4005:7::12
p3597
aV2404:6800:4007::12
p3598
aV2404:6800:4007::12
p3599
aV2404:6800:4007:1::12
p3600
aV2404:6800:4007:1::12
p3601
aV2404:6800:4008:2::12
p3602
aV2404:6800:4008:2::12
p3603
aV2404:6800:4008:3::12
p3604
aV2404:6800:4008:3::12
p3605
aV2404:6800:4005:4::13
p3606
aV2404:6800:4005:4::13
p3607
aV2404:6800:4005:4::13
p3608
aV2404:6800:4005:5::13
p3609
aV2404:6800:4005:5::13
p3610
aV2404:6800:4005:5::13
p3611
aV2404:6800:4005:6::13
p3612
aV2404:6800:4005:6::13
p3613
aV2404:6800:4005:6::13
p3614
aV2404:6800:4005:7::13
p3615
aV2404:6800:4005:7::13
p3616
aV2404:6800:4005:7::13
p3617
aV2404:6800:4007::13
p3618
aV2404:6800:4007::13
p3619
aV2404:6800:4007:1::13
p3620
aV2404:6800:4007:1::13
p3621
aV2404:6800:4008:2::13
p3622
aV2404:6800:4008:2::13
p3623
aV2404:6800:4008:3::13
p3624
aV2404:6800:4008:3::13
p3625
aV2001:4860:4007:6::14
p3626
aV2001:4860:4001:10::14
p3627
aV2404:6800:4005:4::14
p3628
aV2404:6800:4005:4::14
p3629
aV2404:6800:4005:4::14
p3630
aV2404:6800:4005:5::14
p3631
aV2404:6800:4005:5::14
p3632
aV2404:6800:4005:5::14
p3633
aV2404:6800:4005:6::14
p3634
aV2404:6800:4005:6::14
p3635
aV2404:6800:4005:6::14
p3636
aV2404:6800:4005:7::14
p3637
aV2404:6800:4005:7::14
p3638
aV2404:6800:4005:7::14
p3639
aV2404:6800:4007::14
p3640
aV2404:6800:4007::14
p3641
aV2404:6800:4007:1::14
p3642
aV2404:6800:4007:1::14
p3643
aV2404:6800:4008:2::14
p3644
aV2404:6800:4008:2::14
p3645
aV2404:6800:4008:3::14
p3646
aV2404:6800:4008:3::14
p3647
aV2001:4860:4001:10::15
p3648
aV2404:6800:4005:4::15
p3649
aV2404:6800:4005:4::15
p3650
aV2404:6800:4005:4::15
p3651
aV2404:6800:4005:5::15
p3652
aV2404:6800:4005:5::15
p3653
aV2404:6800:4005:5::15
p3654
aV2404:6800:4005:6::15
p3655
aV2404:6800:4005:6::15
p3656
aV2404:6800:4005:6::15
p3657
aV2404:6800:4005:7::15
p3658
aV2404:6800:4005:7::15
p3659
aV2404:6800:4005:7::15
p3660
aV2404:6800:4007::15
p3661
aV2404:6800:4007::15
p3662
aV2404:6800:4007:1::15
p3663
aV2404:6800:4007:1::15
p3664
aV2404:6800:4008:2::15
p3665
aV2404:6800:4008:2::15
p3666
aV2404:6800:4008:3::15
p3667
aV2404:6800:4008:3::15
p3668
aV2001:4860:4001:10::16
p3669
aV2404:6800:4005:4::16
p3670
aV2404:6800:4005:4::16
p3671
aV2404:6800:4005:4::16
p3672
aV2404:6800:4005:5::16
p3673
aV2404:6800:4005:5::16
p3674
aV2404:6800:4005:5::16
p3675
aV2404:6800:4005:6::16
p3676
aV2404:6800:4005:6::16
p3677
aV2404:6800:4005:6::16
p3678
aV2404:6800:4005:7::16
p3679
aV2404:6800:4005:7::16
p3680
aV2404:6800:4005:7::16
p3681
aV2404:6800:4007::16
p3682
aV2404:6800:4007::16
p3683
aV2404:6800:4007:1::16
p3684
aV2404:6800:4007:1::16
p3685
aV2404:6800:4008:2::16
p3686
aV2404:6800:4008:2::16
p3687
aV2404:6800:4008:3::16
p3688
aV2404:6800:4008:3::16
p3689
aV2001:4860:400b:c01::bf
p3690
aV2001:4860:4001:10::17
p3691
aV2404:6800:4005:4::17
p3692
aV2404:6800:4005:4::17
p3693
aV2404:6800:4005:4::17
p3694
aV2404:6800:4005:5::17
p3695
aV2404:6800:4005:5::17
p3696
aV2404:6800:4005:5::17
p3697
aV2404:6800:4005:6::17
p3698
aV2404:6800:4005:6::17
p3699
aV2404:6800:4005:6::17
p3700
aV2404:6800:4005:7::17
p3701
aV2404:6800:4005:7::17
p3702
aV2404:6800:4005:7::17
p3703
aV2404:6800:4007::17
p3704
aV2404:6800:4007::17
p3705
aV2404:6800:4007:1::17
p3706
aV2404:6800:4007:1::17
p3707
aV2404:6800:4008:2::17
p3708
aV2404:6800:4008:2::17
p3709
aV2404:6800:4008:3::17
p3710
aV2404:6800:4008:3::17
p3711
aV2001:4860:4001:10::18
p3712
aV2404:6800:4005:4::18
p3713
aV2404:6800:4005:4::18
p3714
aV2404:6800:4005:4::18
p3715
aV2404:6800:4005:5::18
p3716
aV2404:6800:4005:5::18
p3717
aV2404:6800:4005:5::18
p3718
aV2404:6800:4005:6::18
p3719
aV2404:6800:4005:6::18
p3720
aV2404:6800:4005:6::18
p3721
aV2404:6800:4005:7::18
p3722
aV2404:6800:4005:7::18
p3723
aV2404:6800:4005:7::18
p3724
aV2404:6800:4007::18
p3725
aV2404:6800:4007::18
p3726
aV2404:6800:4007:1::18
p3727
aV2404:6800:4007:1::18
p3728
aV2404:6800:4008:2::18
p3729
aV2404:6800:4008:2::18
p3730
aV2404:6800:4008:3::18
p3731
aV2404:6800:4008:3::18
p3732
aV2607:f8b0:400a:802::100a
p3733
aV2001:1900:2200:20::d
p3734
aV2001:4860:4001:10::7
p3735
aV2404:6800:4005:4::7
p3736
aV2404:6800:4005:4::7
p3737
aV2404:6800:4005:4::7
p3738
aV2404:6800:4005:5::7
p3739
aV2404:6800:4005:5::7
p3740
aV2404:6800:4005:5::7
p3741
aV2404:6800:4005:6::7
p3742
aV2404:6800:4005:6::7
p3743
aV2404:6800:4005:6::7
p3744
aV2404:6800:4005:7::7
p3745
aV2404:6800:4005:7::7
p3746
aV2404:6800:4005:7::7
p3747
aV2404:6800:4007::7
p3748
aV2404:6800:4007::7
p3749
aV2404:6800:4007:1::7
p3750
aV2404:6800:4007:1::7
p3751
aV2404:6800:4008:2::7
p3752
aV2404:6800:4008:2::7
p3753
aV2404:6800:4008:3::7
p3754
aV2404:6800:4008:3::7
p3755
aV2001:4860:4001:10::19
p3756
aV2404:6800:4005:4::19
p3757
aV2404:6800:4005:4::19
p3758
aV2404:6800:4005:4::19
p3759
aV2404:6800:4005:5::19
p3760
aV2404:6800:4005:5::19
p3761
aV2404:6800:4005:5::19
p3762
aV2404:6800:4005:6::19
p3763
aV2404:6800:4005:6::19
p3764
aV2404:6800:4005:6::19
p3765
aV2404:6800:4005:7::19
p3766
aV2404:6800:4005:7::19
p3767
aV2404:6800:4005:7::19
p3768
aV2404:6800:4007::19
p3769
aV2404:6800:4007::19
p3770
aV2404:6800:4007:1::19
p3771
aV2404:6800:4007:1::19
p3772
aV2404:6800:4008:2::19
p3773
aV2404:6800:4008:2::19
p3774
aV2404:6800:4008:3::19
p3775
aV2404:6800:4008:3::19
p3776
aV2001:4860:4007:4::8
p3777
aV2001:1900:2200:20::e
p3778
aV2001:4860:4001:10::8
p3779
aV2404:6800:4005:4::8
p3780
aV2404:6800:4005:4::8
p3781
aV2404:6800:4005:4::8
p3782
aV2404:6800:4005:5::8
p3783
aV2404:6800:4005:5::8
p3784
aV2404:6800:4005:5::8
p3785
aV2404:6800:4005:6::8
p3786
aV2404:6800:4005:6::8
p3787
aV2404:6800:4005:6::8
p3788
aV2404:6800:4005:7::8
p3789
aV2404:6800:4005:7::8
p3790
aV2404:6800:4005:7::8
p3791
aV2404:6800:4007::8
p3792
aV2404:6800:4007::8
p3793
aV2404:6800:4007:1::8
p3794
aV2404:6800:4007:1::8
p3795
aV2404:6800:4008:2::8
p3796
aV2404:6800:4008:2::8
p3797
aV2404:6800:4008:3::8
p3798
aV2404:6800:4008:3::8
p3799
aV2001:4860:400b:c01::8d
p3800
aV2001:1900:2200:20::f
p3801
aV2001:4860:4001:10::9
p3802
aV2404:6800:4005:4::9
p3803
aV2404:6800:4005:4::9
p3804
aV2404:6800:4005:4::9
p3805
aV2404:6800:4005:5::9
p3806
aV2404:6800:4005:5::9
p3807
aV2404:6800:4005:5::9
p3808
aV2404:6800:4005:6::9
p3809
aV2404:6800:4005:6::9
p3810
aV2404:6800:4005:6::9
p3811
aV2404:6800:4005:7::9
p3812
aV2404:6800:4005:7::9
p3813
aV2404:6800:4005:7::9
p3814
aV2404:6800:4007::9
p3815
aV2404:6800:4007::9
p3816
aV2404:6800:4007:1::9
p3817
aV2404:6800:4007:1::9
p3818
aV2404:6800:4008:2::9
p3819
aV2404:6800:4008:2::9
p3820
aV2404:6800:4008:3::9
p3821
aV2404:6800:4008:3::9
p3822
aV2001:4860:4007:5::a
p3823
aV2001:1900:2200:20::10
p3824
aV2001:4860:4001:10::a
p3825
aV2404:6800:4005:4::a
p3826
aV2404:6800:4005:4::a
p3827
aV2404:6800:4005:4::a
p3828
aV2404:6800:4005:5::a
p3829
aV2404:6800:4005:5::a
p3830
aV2404:6800:4005:5::a
p3831
aV2607:f8b0:400a:802::1013
p3832
aV2404:6800:4005:6::a
p3833
aV2404:6800:4005:6::a
p3834
aV2404:6800:4005:6::a
p3835
aV2404:6800:4005:7::a
p3836
aV2404:6800:4005:7::a
p3837
aV2404:6800:4005:7::a
p3838
aV2404:6800:4007::a
p3839
aV2404:6800:4007::a
p3840
aV2404:6800:4007:1::a
p3841
aV2404:6800:4007:1::a
p3842
aV2404:6800:4008:2::a
p3843
aV2404:6800:4008:2::a
p3844
aV2404:6800:4008:3::a
p3845
aV2404:6800:4008:3::a
p3846
aV2001:1900:2200:20::11
p3847
aV2001:4860:4001:10::b
p3848
aV2404:6800:4005:4::b
p3849
aV2404:6800:4005:4::b
p3850
aV2404:6800:4005:4::b
p3851
aV2404:6800:4005:5::b
p3852
aV2404:6800:4005:5::b
p3853
aV2404:6800:4005:5::b
p3854
aV2404:6800:4005:6::b
p3855
aV2404:6800:4005:6::b
p3856
aV2404:6800:4005:6::b
p3857
aV2404:6800:4005:7::b
p3858
aV2404:6800:4005:7::b
p3859
aV2404:6800:4005:7::b
p3860
aV2404:6800:4007::b
p3861
aV2404:6800:4007::b
p3862
aV2404:6800:4007:1::b
p3863
aV2404:6800:4007:1::b
p3864
aV2404:6800:4008:2::b
p3865
aV2404:6800:4008:2::b
p3866
aV2404:6800:4008:3::b
p3867
aV2404:6800:4008:3::b
p3868
aV2607:f8b0:4007:16::c
p3869
aV2001:1900:2200:20::12
p3870
aV2001:4860:4001:10::c
p3871
aV2404:6800:4005:4::c
p3872
aV2404:6800:4005:4::c
p3873
aV2404:6800:4005:4::c
p3874
aV2404:6800:4005:5::c
p3875
aV2404:6800:4005:5::c
p3876
aV2404:6800:4005:5::c
p3877
aV2404:6800:4005:6::c
p3878
aV2404:6800:4005:6::c
p3879
aV2404:6800:4005:6::c
p3880
aV2404:6800:4005:7::c
p3881
aV2404:6800:4005:7::c
p3882
aV2404:6800:4005:7::c
p3883
aV2404:6800:4007::c
p3884
aV2404:6800:4007::c
p3885
aV2404:6800:4007:1::c
p3886
aV2404:6800:4007:1::c
p3887
aV2404:6800:4008:2::c
p3888
aV2404:6800:4008:2::c
p3889
aV2404:6800:4008:3::c
p3890
aV2404:6800:4008:3::c
p3891
aV2607:f8b0:400a:802::100c
p3892
aV2001:4860:4007:6::d
p3893
aV2001:1900:2200:20::13
p3894
aV2001:4860:4001:10::d
p3895
aV2404:6800:4005:4::d
p3896
aV2404:6800:4005:4::d
p3897
aV2404:6800:4005:4::d
p3898
aV2404:6800:4005:5::d
p3899
aV2404:6800:4005:5::d
p3900
aV2404:6800:4005:5::d
p3901
aV2404:6800:4005:6::d
p3902
aV2404:6800:4005:6::d
p3903
aV2404:6800:4005:6::d
p3904
aV2404:6800:4005:7::d
p3905
aV2404:6800:4005:7::d
p3906
aV2404:6800:4005:7::d
p3907
aV2404:6800:4007::d
p3908
aV2404:6800:4007::d
p3909
aV2404:6800:4007:1::d
p3910
aV2404:6800:4007:1::d
p3911
aV2404:6800:4008:2::d
p3912
aV2404:6800:4008:2::d
p3913
aV2404:6800:4008:3::d
p3914
aV2404:6800:4008:3::d
p3915
aV2001:4860:4001:10::e
p3916
aV2404:6800:4005:4::e
p3917
aV2404:6800:4005:4::e
p3918
aV2404:6800:4005:4::e
p3919
aV2404:6800:4005:5::e
p3920
aV2404:6800:4005:5::e
p3921
aV2404:6800:4005:5::e
p3922
aV2404:6800:4005:6::e
p3923
aV2404:6800:4005:6::e
p3924
aV2404:6800:4005:6::e
p3925
aV2404:6800:4005:7::e
p3926
aV2404:6800:4005:7::e
p3927
aV2404:6800:4005:7::e
p3928
aV2404:6800:4007::e
p3929
aV2404:6800:4007::e
p3930
aV2404:6800:4007:1::e
p3931
aV2404:6800:4007:1::e
p3932
aV2404:6800:4008:2::e
p3933
aV2404:6800:4008:2::e
p3934
aV2404:6800:4008:3::e
p3935
aV2404:6800:4008:3::e
p3936
aV2607:f8b0:400a:802::100a
p3937
aV2607:f8b0:400a:802::1014
p3938
aV2607:f8b0:400a:802::100b
p3939
aV2a00:1450:400c:c00::5f
p3940
aV2607:f8b0:400a:802::1007
p3941
aV2404:6800:4008:c01::8d
p3942
aV2607:f8b0:400a:802::1008
p3943
aV2600:140a::18c:0:0:0:236
p3944
aV2607:f8b0:400a:802::1007
p3945
aV2607:f8b0:400a:802::1000
p3946
aV2607:f8b0:400a:802::100c
p3947
aV2607:f8b0:400a:802::1006
p3948
aV2607:f8b0:400a:802::1002
p3949
aV2607:f8b0:400a:802::1009
p3950
aV2607:f8b0:400a:802::100e
p3951
aV2607:f8b0:400a:802::1002
p3952
aV2001:4860:400b:c01::51
p3953
aV2404:6800:4006:806::1006
p3954
aV2a00:1450:4002:802::1004
p3955
aV2607:f8b0:400a:802::1001
p3956
aV2a00:1450:4017:801::1003
p3957
aV2001:4860:400b:c01::a0
p3958
aV2a03:2880:f00d:208:face:b00c::1
p3959
aV2a03:2880:f00d:308:face:b00c::1
p3960
aV2a00:1450:400c:c03::8d
p3961
aV2001:4860:400b:c01::8d
p3962
aV2607:f8b0:400a:802::1006
p3963
aV2001:4860:400b:c01::8d
p3964
aV2607:f8b0:400a:802::1005
p3965
aV2607:f8b0:4004:800::100a
p3966
aV2607:f8b0:400e:c02::6d
p3967
aV2a00:1450:400c:c00::10
p3968
aV2607:f8b0:400a:802::1003
p3969
aV2607:f8b0:4001:c02::64
p3970
aV2607:f8b0:400a:802::100b
p3971
aV2607:f8b0:4001:c02::71
p3972
aV2a00:1450:4013:c01::64
p3973
aV2607:f8b0:400a:802::1004
p3974
aV2607:f8b0:400a:802::1007
p3975
aV2607:f8b0:400a:802::1007
p3976
aV2607:f8b0:4001:c02::66
p3977
aV2a00:1450:4017:801::100e
p3978
aV2607:f8b0:400a:802::1004
p3979
aV2404:6800:4005:800::1007
p3980
aV2607:f8b0:400a:802::1007
p3981
aV2404:6800:4005:800::1003
p3982
aV2607:f8b0:400a:802::1000
p3983
aV2607:f8b0:4000:800::100e
p3984
aV2a00:1450:4002:802::101f
p3985
aV2001:4860:400b:c01::75
p3986
aV2001:4860:400b:c01::74
p3987
aV2607:f8b0:400a:802::100a
p3988
aV2001:4860:400b:c01::57
p3989
aV2001:4860:400b:c01::56
p3990
aV2607:f8b0:4003:c05::55
p3991
aV2a00:1450:400c:c00::56
p3992
aV2a00:1450:4013:c01::bf
p3993
aV2607:f8b0:400d:c00::80
p3994
aV2a00:1450:400c:c03::8d
p3995
aV2607:f8b0:400d:c00::8d
p3996
aV2001:4860:400b:c01::71
p3997
aV2001:4860:400b:c01::71
p3998
aV2607:f8b0:400a:802::1005
p3999
aV2607:f8b0:4001:c02::8d
p4000
aV2001:4860:400b:c01::75
p4001
aV2607:f8b0:400a:802::1013
p4002
aV2607:f8b0:400a:802::1010
p4003
aV2607:f8b0:400a:802::1012
p4004
aV2607:f8b0:400a:802::1011
p4005
aV2001:4860:400b:c01::8d
p4006
aV2607:f8b0:400d:c06::7d
p4007
aV2001:4860:400b:c01::7d
p4008
aV2607:f8b0:400a:802::1002
p4009
aV2a00:1450:4001:c02::67
p4010
aV2a00:1450:4013:c01::93
p4011
aV2a00:1450:4002:802::1014
p4012
aV2607:f8b0:400a:802::1013
p4013
aV2607:f8b0:400a:802::1000
p4014
aV2607:f8b0:400a:802::1000
p4015
aV2607:f8b0:400a:802::1003
p4016
aV2607:f8b0:400a:802::1004
p4017
aV2404:6800:4005:800::1007
p4018
aV2404:6800:4006:806::1006
p4019
aV2607:f8b0:400a:802::1003
p4020
aV2a00:1450:4001:c02::8b
p4021
aV2607:f8b0:400a:802::1004
p4022
aV2607:f8b0:400a:802::1003
p4023
aV2607:f8b0:4004:800::100e
p4024
aV2607:f8b0:400a:802::1003
p4025
aV2607:f8b0:400a:802::1001
p4026
aV2607:f8b0:400a:802::1001
p4027
aV2607:f8b0:4006:808::1006
p4028
aV2a00:1450:4002:802::1004
p4029
aV2a00:1450:4013:c00::66
p4030
aV2607:f8b0:400a:802::1006
p4031
aV2607:f8b0:4004:800::1002
p4032
aV2607:f8b0:4001:c02::64
p4033
aV2607:f8b0:400a:802::1006
p4034
aV2607:f8b0:400a:802::1006
p4035
aV2607:f8b0:400a:802::1003
p4036
aV2607:f8b0:400a:802::1003
p4037
aV2607:f8b0:400a:802::1003
p4038
aV2607:f8b0:400a:802::1003
p4039
aV2a00:1450:4001:c02::64
p4040
aV2607:f8b0:400a:802::1002
p4041
aV2607:f8b0:400a:802::1003
p4042
aV2a00:1450:400c:c00::8a
p4043
aV2607:f8b0:400a:802::1002
p4044
aV2607:f8b0:400a:802::1002
p4045
aV2607:f8b0:400a:802::1003
p4046
aV2607:f8b0:400a:802::1003
p4047
aV2607:f8b0:400a:802::1003
p4048
aV2607:f8b0:400a:802::1003
p4049
aV2607:f8b0:400a:802::1003
p4050
aV2607:f8b0:400a:802::1005
p4051
aV2a00:1450:4013:c00::66
p4052
aV2607:f8b0:400a:802::1003
p4053
aV2607:f8b0:4006:808::100e
p4054
aV2607:f8b0:400a:802::1003
p4055
aV2a00:1450:4007:80a::1002
p4056
aV2a00:1450:4017:801::1002
p4057
aV2607:f8b0:400a:802::1005
p4058
aV2607:f8b0:400a:802::1008
p4059
aV2607:f8b0:400a:802::1008
p4060
aV2607:f8b0:400a:802::1008
p4061
aV2607:f8b0:400a:802::1008
p4062
aV2607:f8b0:4000:800::1004
p4063
aV2a00:1450:4001:c02::64
p4064
aV2607:f8b0:400a:802::1008
p4065
aV2607:f8b0:4004:806::1002
p4066
aV2607:f8b0:4000:800::1004
p4067
aV2a00:1450:4001:c02::64
p4068
aV2607:f8b0:400a:802::1008
p4069
aV2607:f8b0:4006:808::1006
p4070
aV2607:f8b0:400a:802::1007
p4071
aV2607:f8b0:400a:802::1007
p4072
aV2607:f8b0:400a:802::1007
p4073
aV2607:f8b0:4001:c02::66
p4074
aV2607:f8b0:4004:800::1005
p4075
aV2404:6800:4006:806::1001
p4076
aV2607:f8b0:4004:806::1004
p4077
aV2607:f8b0:400a:802::1000
p4078
aV2607:f8b0:4006:808::1007
p4079
aV2607:f8b0:4004:806::1004
p4080
aV2a00:1450:400c:c00::66
p4081
aV2607:f8b0:400a:802::1006
p4082
aV2607:f8b0:400a:802::1006
p4083
aV2607:f8b0:400a:802::1006
p4084
aV2607:f8b0:400a:802::1006
p4085
aV2607:f8b0:400a:802::1008
p4086
aV2607:f8b0:400a:802::1006
p4087
aV2a00:1450:4017:801::1006
p4088
aV2607:f8b0:4001:c02::8b
p4089
ag3312
aV2607:f8b0:4000:800::1004
p4090
aV2a00:1450:4001:c02::65
p4091
aV2607:f8b0:400a:802::1002
p4092
aV2607:f8b0:400a:802::1002
p4093
aV2607:f8b0:400a:802::1008
p4094
aV2607:f8b0:400a:802::1008
p4095
aV2607:f8b0:400a:802::1008
p4096
aV2607:f8b0:400a:802::1002
p4097
aV2607:f8b0:400a:802::1002
p4098
aV2a00:1450:4001:c02::65
p4099
aV2607:f8b0:400a:802::1008
p4100
aV2a00:1450:4001:c02::65
p4101
aV2607:f8b0:4000:800::1001
p4102
aV2607:f8b0:400a:802::1008
p4103
aV2a00:1450:400c:c00::8a
p4104
aV2607:f8b0:400a:802::1008
p4105
aV2607:f8b0:400a:802::1008
p4106
aV2607:f8b0:400a:802::1008
p4107
aV2607:f8b0:400a:802::1006
p4108
aV2a00:1450:4002:803::1008
p4109
aV2607:f8b0:400a:802::1008
p4110
aV2a00:1450:4001:c02::8b
p4111
aV2607:f8b0:400a:802::1006
p4112
aV2607:f8b0:4004:800::1004
p4113
aV2607:f8b0:400a:802::1006
p4114
aV2607:f8b0:4006:808::100e
p4115
aV2607:f8b0:400a:802::1003
p4116
aV2a00:1450:4002:803::1006
p4117
aV2607:f8b0:400a:802::1001
p4118
aV2a00:1450:4002:802::1007
p4119
aV2a00:1450:4013:c00::8b
p4120
aV2607:f8b0:400a:802::1001
p4121
aV2607:f8b0:400a:802::1001
p4122
aV2607:f8b0:400a:802::1001
p4123
aV2607:f8b0:400a:802::1001
p4124
aV2607:f8b0:400a:802::1003
p4125
aV2607:f8b0:400a:802::1003
p4126
aV2a00:1450:400c:c00::66
p4127
aV2a00:1450:4002:802::1003
p4128
aV2607:f8b0:400a:802::1008
p4129
aV2607:f8b0:400a:802::1008
p4130
aV2a00:1450:4013:c01::71
p4131
aV2a00:1450:4017:801::1006
p4132
aV2607:f8b0:4001:c02::64
p4133
aV2607:f8b0:400a:802::1008
p4134
aV2607:f8b0:400a:802::1008
p4135
aV2607:f8b0:400a:802::1008
p4136
aV2607:f8b0:400a:802::1008
p4137
aV2607:f8b0:400a:802::1000
p4138
aV2607:f8b0:400a:802::1009
p4139
aV2404:6800:4006:806::1008
p4140
aV2607:f8b0:400a:802::1009
p4141
aV2a00:1450:4001:c02::65
p4142
aV2a00:1450:4002:802::1003
p4143
aV2a00:1450:4013:c01::71
p4144
aV2607:f8b0:4004:800::1004
p4145
aV2607:f8b0:400a:802::1009
p4146
aV2607:f8b0:400a:802::1009
p4147
aV2607:f8b0:400a:802::1003
p4148
aV2607:f8b0:400a:802::1004
p4149
aV2607:f8b0:400a:802::1004
p4150
aV2607:f8b0:400a:802::1004
p4151
aV2607:f8b0:400a:802::1004
p4152
aV2607:f8b0:4004:800::100e
p4153
aV2607:f8b0:400a:802::1003
p4154
aV2a00:1450:4002:802::1001
p4155
aV2607:f8b0:400a:802::1003
p4156
aV2a00:1450:4001:803::100e
p4157
aV2607:f8b0:400a:802::1003
p4158
aV2607:f8b0:400a:802::1001
p4159
aV2607:f8b0:400a:802::1001
p4160
aV2607:f8b0:400a:802::1006
p4161
aV2a00:1450:4013:c00::66
p4162
aV2a00:1450:4002:802::1004
p4163
aV2607:f8b0:4001:c02::66
p4164
aV2607:f8b0:400a:802::1006
p4165
aV2a00:1450:4013:c01::66
p4166
aV2607:f8b0:4004:806::1008
p4167
aV2607:f8b0:400a:802::1001
p4168
aV2607:f8b0:400a:802::1001
p4169
aV2607:f8b0:400a:802::1006
p4170
aV2607:f8b0:400a:802::1002
p4171
aV2607:f8b0:400a:802::1002
p4172
aV2607:f8b0:400a:802::1002
p4173
aV2607:f8b0:400a:802::1002
p4174
aV2607:f8b0:400a:802::1002
p4175
aV2607:f8b0:4004:800::1005
p4176
aV2607:f8b0:400a:802::1002
p4177
aV2607:f8b0:400a:802::1002
p4178
aV2607:f8b0:400a:802::1003
p4179
aV2607:f8b0:400a:802::1003
p4180
aV2607:f8b0:400a:802::1005
p4181
aV2607:f8b0:400a:802::1003
p4182
aV2607:f8b0:400a:802::1003
p4183
aV2607:f8b0:400a:802::1003
p4184
aV2a00:1450:400c:c00::8a
p4185
aV2607:f8b0:400a:802::1003
p4186
aV2607:f8b0:4006:808::100e
p4187
aV2a00:1450:400c:c00::64
p4188
aV2a00:1450:400c:c00::8a
p4189
aV2607:f8b0:400a:802::1005
p4190
aV2607:f8b0:400a:802::1008
p4191
aV2607:f8b0:400a:802::1008
p4192
aV2607:f8b0:400a:802::1008
p4193
aV2607:f8b0:400a:802::1008
p4194
aV2a00:1450:4001:c02::66
p4195
aV2607:f8b0:4006:808::1006
p4196
aV2607:f8b0:400a:802::1000
p4197
aV2607:f8b0:4006:808::1006
p4198
aV2607:f8b0:4000:800::1004
p4199
aV2607:f8b0:400a:802::1008
p4200
aV2607:f8b0:4006:808::1001
p4201
aV2607:f8b0:400a:802::1007
p4202
aV2607:f8b0:400a:802::1007
p4203
aV2607:f8b0:400a:802::1007
p4204
aV2607:f8b0:400a:802::1007
p4205
aV2607:f8b0:4001:c02::65
p4206
aV2607:f8b0:4004:800::1005
p4207
aV2a00:1450:4002:803::1003
p4208
aV2607:f8b0:400a:802::1007
p4209
aV2a00:1450:4003:803::1009
p4210
aV2607:f8b0:400a:802::1007
p4211
aV2404:6800:4005:800::1000
p4212
aV2607:f8b0:400a:802::1006
p4213
aV2607:f8b0:400a:802::1006
p4214
aV2607:f8b0:400a:802::1006
p4215
aV2607:f8b0:400a:802::1008
p4216
aV2607:f8b0:400a:802::1008
p4217
aV2607:f8b0:400a:802::1006
p4218
aV2a00:1450:4001:c02::8b
p4219
aV2a00:1450:4002:802::1009
p4220
aV2607:f8b0:4001:c02::8b
p4221
aV2a00:1450:4013:c01::64
p4222
aV2607:f8b0:400a:802::1008
p4223
aV2a00:1450:4013:c01::71
p4224
aV2607:f8b0:4004:806::1002
p4225
aV2607:f8b0:400a:802::1002
p4226
aV2607:f8b0:400a:802::1002
p4227
aV2607:f8b0:400a:802::1002
p4228
aV2607:f8b0:400a:802::1002
p4229
aV2a00:1450:400c:c00::71
p4230
aV2607:f8b0:400a:802::1008
p4231
aV2607:f8b0:4006:808::1006
p4232
aV2607:f8b0:400a:802::1008
p4233
aV2607:f8b0:400a:802::1008
p4234
aV2607:f8b0:400a:802::1008
p4235
aV2404:6800:4005:800::1007
p4236
aV2607:f8b0:400a:802::1008
p4237
aV2607:f8b0:400a:802::1008
p4238
aV2607:f8b0:400a:802::1008
p4239
aV2607:f8b0:400a:802::1008
p4240
aV2607:f8b0:4001:c02::64
p4241
aV2607:f8b0:400a:802::1008
p4242
aV2404:6800:4005:800::1007
p4243
aV2607:f8b0:400a:802::1006
p4244
aV2a00:1450:4002:802::1008
p4245
aV2607:f8b0:400a:802::1006
p4246
aV2a00:1450:4001:c02::71
p4247
aV2607:f8b0:400a:802::1004
p4248
aV2607:f8b0:400a:802::1004
p4249
aV2607:f8b0:400a:802::1006
p4250
aV2607:f8b0:400a:802::1006
p4251
aV2607:f8b0:400a:802::1006
p4252
aV2607:f8b0:4006:808::1004
p4253
aV2a00:1450:400c:c00::64
p4254
aV2a00:1450:4002:802::1000
p4255
aV2a00:1450:4013:c01::64
p4256
aV2607:f8b0:4004:800::100c
p4257
aV2607:f8b0:400a:802::1003
p4258
aV2a00:1450:4001:80a::1005
p4259
aV2607:f8b0:4001:c02::8a
p4260
aV2607:f8b0:400a:802::1001
p4261
aV2607:f8b0:4006:808::1006
p4262
aV2607:f8b0:4000:800::1008
p4263
aV2607:f8b0:400a:802::1003
p4264
aV2607:f8b0:400a:802::1003
p4265
aV2607:f8b0:400a:802::1001
p4266
aV2607:f8b0:400a:802::1003
p4267
aV2607:f8b0:400a:802::1001
p4268
aV2607:f8b0:400a:802::1008
p4269
aV2607:f8b0:4001:c02::8a
p4270
aV2607:f8b0:4004:800::1003
p4271
aV2607:f8b0:400a:802::1008
p4272
aV2a00:1450:4007:80a::1003
p4273
aV2607:f8b0:400a:802::1003
p4274
aV2607:f8b0:4001:c02::64
p4275
aV2607:f8b0:400a:802::1008
p4276
aV2a00:1450:4002:803::1000
p4277
aV2607:f8b0:400a:802::1008
p4278
aV2607:f8b0:400a:802::1008
p4279
aV2607:f8b0:400a:802::1009
p4280
aV2607:f8b0:400a:802::1008
p4281
aV2607:f8b0:400a:802::1009
p4282
aV2607:f8b0:400a:802::1000
p4283
aV2607:f8b0:4001:c02::64
p4284
aV2a00:1450:4007:80a::1005
p4285
aV2607:f8b0:400a:802::1009
p4286
aV2a00:1450:4007:80a::1005
p4287
aV2607:f8b0:4000:800::1001
p4288
aV2607:f8b0:400a:802::1009
p4289
aV2607:f8b0:400a:802::1009
p4290
aV2607:f8b0:400a:802::1009
p4291
aV2607:f8b0:400a:802::1000
p4292
aV2607:f8b0:400a:802::1004
p4293
aV2607:f8b0:400a:802::1003
p4294
aV2607:f8b0:4001:c02::66
p4295
aV2607:f8b0:4004:806::1004
p4296
aV2607:f8b0:4000:800::1001
p4297
aV2a00:1450:4002:802::1001
p4298
aV2a00:1450:4001:c02::65
p4299
aV2607:f8b0:4000:800::1008
p4300
aV2607:f8b0:4004:800::100e
p4301
aV2607:f8b0:400a:802::1003
p4302
aV2607:f8b0:400a:802::1001
p4303
aV2607:f8b0:400a:802::1006
p4304
aV2a00:1450:400c:c00::71
p4305
aV2607:f8b0:400a:802::1001
p4306
aV2607:f8b0:4006:808::100e
p4307
aV2a00:1450:4002:802::1004
p4308
aV2a00:1450:4013:c00::66
p4309
aV2a00:1450:4013:c01::71
p4310
aV2a00:1450:400c:c00::8b
p4311
aV2607:f8b0:400a:802::1006
p4312
aV2607:f8b0:400a:802::1002
p4313
aV2607:f8b0:400a:802::1002
p4314
aV2607:f8b0:400a:802::1002
p4315
aV2607:f8b0:400a:802::1002
p4316
aV2607:f8b0:400a:802::1003
p4317
aV2a00:1450:4002:802::1007
p4318
aV2607:f8b0:4000:800::1001
p4319
aV2607:f8b0:4004:806::1003
p4320
aV2607:f8b0:400a:802::1002
p4321
aV2607:f8b0:400a:802::1002
p4322
aV2607:f8b0:400a:802::1005
p4323
aV2607:f8b0:400a:802::1003
p4324
aV2607:f8b0:400a:802::1005
p4325
aV2607:f8b0:400a:802::1003
p4326
aV2607:f8b0:400a:802::1005
p4327
aV2607:f8b0:4004:800::1003
p4328
aV2607:f8b0:400a:802::1005
p4329
aV2404:6800:4005:800::1004
p4330
aV2607:f8b0:400a:802::1005
p4331
aV2a00:1450:4003:803::100e
p4332
aV2a00:1450:400c:c00::64
p4333
aV2607:f8b0:400a:802::1008
p4334
aV2607:f8b0:400a:802::1008
p4335
aV2607:f8b0:400a:802::1000
p4336
aV2607:f8b0:400a:802::1008
p4337
aV2607:f8b0:400a:802::1008
p4338
aV2607:f8b0:400a:802::1008
p4339
aV2607:f8b0:4001:c02::66
p4340
aV2a00:1450:4013:c01::8a
p4341
aV2404:6800:4006:806::1007
p4342
aV2607:f8b0:400a:802::1008
p4343
aV2a00:1450:400c:c00::71
p4344
aV2607:f8b0:4004:806::1009
p4345
aV2607:f8b0:400a:802::1007
p4346
aV2a00:1450:4007:80a::1001
p4347
aV2607:f8b0:400a:802::1007
p4348
aV2607:f8b0:400a:802::1007
p4349
aV2607:f8b0:400a:802::1007
p4350
aV2607:f8b0:400a:802::1007
p4351
aV2607:f8b0:4000:800::1001
p4352
aV2607:f8b0:400a:802::1007
p4353
aV2a00:1450:4013:c01::66
p4354
aV2607:f8b0:400a:802::1007
p4355
aV2607:f8b0:400a:802::1007
p4356
aV2607:f8b0:4006:808::1005
p4357
aV2607:f8b0:400a:802::1006
p4358
aV2607:f8b0:400a:802::1006
p4359
aV2607:f8b0:400a:802::1008
p4360
aV2607:f8b0:400a:802::1006
p4361
aV2607:f8b0:400a:802::1006
p4362
aV2607:f8b0:400a:802::1006
p4363
aV2a00:1450:4001:c02::8b
p4364
aV2607:f8b0:400a:802::1008
p4365
aV2a00:1450:400c:c00::71
p4366
aV2a00:1450:4003:803::1003
p4367
aV2607:f8b0:400a:802::1002
p4368
aV2607:f8b0:400a:802::1008
p4369
aV2607:f8b0:400a:802::1002
p4370
aV2607:f8b0:400a:802::1008
p4371
aV2607:f8b0:400a:802::1002
p4372
aV2607:f8b0:400a:802::1002
p4373
aV2607:f8b0:4000:800::1004
p4374
aV2607:f8b0:400a:802::1002
p4375
aV2607:f8b0:4001:c02::66
p4376
aV2607:f8b0:400a:802::1008
p4377
aV2a00:1450:4003:803::1003
p4378
aV2a00:1450:4013:c01::8b
p4379
aV2a00:1450:4001:c02::65
p4380
aV2607:f8b0:400a:802::1008
p4381
aV2607:f8b0:400a:802::1008
p4382
aV2607:f8b0:400a:802::1006
p4383
aV2607:f8b0:400a:802::1008
p4384
aV2a00:1450:400c:c00::8b
p4385
aV2607:f8b0:400a:802::1008
p4386
aV2607:f8b0:400a:802::1006
p4387
aV2a00:1450:4013:c01::66
p4388
aV2607:f8b0:400a:802::1006
p4389
aV2a00:1450:4002:802::1008
p4390
aV2607:f8b0:400a:802::1004
p4391
aV2607:f8b0:400a:802::1004
p4392
aV2607:f8b0:400a:802::1006
p4393
aV2607:f8b0:400a:802::1006
p4394
aV2607:f8b0:400a:802::1006
p4395
aV2a00:1450:4013:c00::71
p4396
aV2607:f8b0:4000:800::1008
p4397
aV2a00:1450:4002:802::1000
p4398
aV2404:6800:4006:806::100e
p4399
aV2607:f8b0:400a:802::100a
p4400
aV2a00:1450:4013:c00::65
p4401
aV2a00:1450:4013:c01::8a
p4402
aV2607:f8b0:400a:802::1000
p4403
aV2607:f8b0:400a:802::1006
p4404
ag3312
aV2a00:1450:400c:c00::71
p4405
aV2001:4860:400b:c01::a0
p4406
aV2607:f8b0:4009:806::101f
p4407
aV2001:4860:400b:c01::5e
p4408
aV2001:4860:400b:c01::5f
p4409
aV2607:f8b0:400a:802::100a
p4410
aV2607:f8b0:400a:802::1013
p4411
aV2607:f8b0:400a:802::1004
p4412
aV2607:f8b0:400a:802::100a
p4413
aV2a00:1450:4002:802::1004
p4414
aV2001:4860:400b:c01::74
p4415
aV2a03:2880:20:3f07:face:b00c::1
p4416
aV2607:f8b0:4003:c03::74
p4417
aV2a00:1450:4001:c02::75
p4418
aV2a00:1450:400c:c00::74
p4419
aV2a00:1450:4017:801::100c
p4420
aV2a00:1450:400e:400::10
p4421
aV2a00:1450:400e:400::10
p4422
aV2a00:1450:400e:400::10
p4423
aV2a00:1450:400e:404::10
p4424
aV2a00:1450:400e:404::10
p4425
aV2a00:1450:400e:404::10
p4426
aV2a00:1450:400e:401::10
p4427
aV2a00:1450:400e:401::10
p4428
aV2a00:1450:400e:401::10
p4429
aV2a00:1450:400e:405::10
p4430
aV2a00:1450:400e:405::10
p4431
aV2a00:1450:400e:405::10
p4432
aV2a00:1450:400e:402::10
p4433
aV2a00:1450:400e:402::10
p4434
aV2a00:1450:400e:402::10
p4435
aV2a00:1450:400e:406::10
p4436
aV2a00:1450:400e:406::10
p4437
aV2a00:1450:400e:406::10
p4438
aV2a00:1450:400e:403::10
p4439
aV2a00:1450:400e:403::10
p4440
aV2a00:1450:400e:403::10
p4441
aV2a00:1450:400e:407::10
p4442
aV2a00:1450:400e:407::10
p4443
aV2a00:1450:400e:407::10
p4444
aV2a00:1450:4007:80a::1003
p4445
aV2607:f8b0:400a:802::1003
p4446
aV2607:f8b0:400a:802::1001
p4447
aV2607:f8b0:400a:802::1001
p4448
aV2607:f8b0:400a:802::1001
p4449
aV2607:f8b0:4000:800::1001
p4450
aV2607:f8b0:4004:800::1002
p4451
aV2607:f8b0:4001:c02::66
p4452
aV2a00:1450:4013:c01::71
p4453
aV2a00:1450:4013:c01::66
p4454
aV2607:f8b0:400a:802::1006
p4455
aV2404:6800:4005:800::1005
p4456
aV2607:f8b0:400a:802::1006
p4457
aV2607:f8b0:400a:802::1002
p4458
aV2607:f8b0:400a:802::1002
p4459
aV2607:f8b0:400a:802::1002
p4460
aV2607:f8b0:400a:802::1002
p4461
aV2607:f8b0:400a:802::1002
p4462
aV2607:f8b0:400a:802::1003
p4463
aV2607:f8b0:400a:802::1002
p4464
aV2404:6800:4005:800::1002
p4465
aV2607:f8b0:400a:802::1003
p4466
aV2a00:1450:4003:803::1009
p4467
aV2a00:1450:4013:c01::8b
p4468
aV2607:f8b0:400a:802::1002
p4469
aV2607:f8b0:400a:802::1002
p4470
aV2607:f8b0:400a:802::1003
p4471
aV2607:f8b0:400a:802::1005
p4472
aV2607:f8b0:400a:802::1005
p4473
aV2607:f8b0:400a:802::1003
p4474
aV2607:f8b0:400a:802::1003
p4475
aV2607:f8b0:400a:802::1003
p4476
aV2a00:1450:4001:c02::66
p4477
aV2607:f8b0:400a:802::1003
p4478
aV2a00:1450:400c:c00::66
p4479
aV2607:f8b0:400a:802::1005
p4480
aV2a00:1450:4017:801::1006
p4481
aV2607:f8b0:400a:802::1008
p4482
aV2607:f8b0:400a:802::1008
p4483
aV2607:f8b0:400a:802::1008
p4484
aV2607:f8b0:400a:802::1000
p4485
aV2607:f8b0:400a:802::1008
p4486
aV2607:f8b0:400a:802::1008
p4487
aV2a00:1450:4001:c02::66
p4488
aV2607:f8b0:400a:802::1008
p4489
aV2607:f8b0:400a:802::1000
p4490
aV2a00:1450:4013:c01::71
p4491
aV2404:6800:4005:800::1005
p4492
aV2607:f8b0:400a:802::1008
p4493
aV2607:f8b0:4000:800::1001
p4494
aV2a00:1450:4017:801::100e
p4495
aV2607:f8b0:400a:802::1000
p4496
aV2607:f8b0:400a:802::1007
p4497
aV2607:f8b0:400a:802::1007
p4498
aV2607:f8b0:400a:802::1007
p4499
aV2a00:1450:4013:c01::71
p4500
aV2607:f8b0:4004:800::1005
p4501
aV2a00:1450:4002:803::1003
p4502
aV2a00:1450:4002:802::1004
p4503
aV2607:f8b0:400a:802::1007
p4504
aV2607:f8b0:400a:802::1000
p4505
aV2a00:1450:4013:c00::65
p4506
aV2607:f8b0:4006:808::1005
p4507
aV2607:f8b0:400a:802::1001
p4508
aV2607:f8b0:400a:802::1006
p4509
aV2607:f8b0:400a:802::1008
p4510
aV2607:f8b0:400a:802::1006
p4511
aV2607:f8b0:400a:802::1008
p4512
aV2a00:1450:400c:c00::66
p4513
aV2607:f8b0:400a:802::1006
p4514
aV2a00:1450:4013:c01::64
p4515
aV2a00:1450:400c:c00::71
p4516
aV2607:f8b0:400a:802::1002
p4517
aV2607:f8b0:4004:806::1008
p4518
aV2607:f8b0:400a:802::1002
p4519
aV2607:f8b0:400a:802::1002
p4520
aV2607:f8b0:400a:802::1002
p4521
aV2607:f8b0:400a:802::1002
p4522
aV2607:f8b0:400a:802::1008
p4523
aV2607:f8b0:4004:806::1002
p4524
aV2607:f8b0:400a:802::1008
p4525
aV2607:f8b0:4004:806::1002
p4526
aV2607:f8b0:400a:802::1008
p4527
aV2a00:1450:4003:803::1003
p4528
aV2607:f8b0:400a:802::1008
p4529
aV2a00:1450:4001:c02::8a
p4530
aV2607:f8b0:400a:802::1006
p4531
aV2607:f8b0:400a:802::1006
p4532
aV2607:f8b0:400a:802::1008
p4533
aV2607:f8b0:400a:802::1008
p4534
aV2607:f8b0:400a:802::1008
p4535
aV2607:f8b0:400a:802::1008
p4536
aV2607:f8b0:400a:802::1008
p4537
aV2607:f8b0:400a:802::1006
p4538
aV2404:6800:4005:800::1007
p4539
aV2607:f8b0:400a:802::1008
p4540
aV2607:f8b0:400a:802::1001
p4541
aV2a00:1450:4013:c00::8b
p4542
aV2607:f8b0:400a:802::1001
p4543
aV2607:f8b0:4001:c02::71
p4544
aV2a00:1450:4003:803::1005
p4545
aV2a00:1450:4017:801::1003
p4546
aV2607:f8b0:400a:802::1001
p4547
aV2a00:1450:4013:c01::8a
p4548
aV2607:f8b0:400a:802::1001
p4549
aV2607:f8b0:400a:802::1003
p4550
aV2607:f8b0:400a:802::1001
p4551
aV2607:f8b0:400a:802::1008
p4552
aV2607:f8b0:4000:800::1005
p4553
aV2a00:1450:4002:802::1003
p4554
aV2a00:1450:4002:803::1000
p4555
aV2607:f8b0:400a:802::1008
p4556
aV2a00:1450:4007:80a::1003
p4557
aV2607:f8b0:400a:802::1008
p4558
aV2a00:1450:4003:803::1000
p4559
aV2607:f8b0:400a:802::1008
p4560
aV2607:f8b0:400a:802::1008
p4561
aV2607:f8b0:400a:802::1003
p4562
aV2607:f8b0:400a:802::1008
p4563
aV2607:f8b0:400a:802::1009
p4564
aV2607:f8b0:400a:802::1009
p4565
aV2607:f8b0:400a:802::1000
p4566
aV2607:f8b0:4004:806::1009
p4567
aV2a00:1450:4013:c01::8a
p4568
aV2a00:1450:4002:802::1003
p4569
aV2a00:1450:4013:c00::66
p4570
aV2a00:1450:4013:c01::8a
p4571
aV2607:f8b0:400a:802::1009
p4572
aV2607:f8b0:400a:802::1009
p4573
aV2607:f8b0:400a:802::1000
p4574
aV2607:f8b0:400a:802::1004
p4575
aV2607:f8b0:400a:802::1003
p4576
aV2607:f8b0:400a:802::1003
p4577
aV2a00:1450:4013:c01::66
p4578
aV2607:f8b0:400a:802::1004
p4579
aV2607:f8b0:400a:802::1003
p4580
aV2a00:1450:4007:80a::1003
p4581
aV2607:f8b0:400a:802::1003
p4582
aV2a00:1450:4007:80a::1003
p4583
aV2a00:1450:4002:802::1001
p4584
aV2607:f8b0:400a:802::1003
p4585
aV2607:f8b0:4001:c02::65
p4586
aV2a00:1450:4001:c02::65
p4587
aV2607:f8b0:400a:802::1003
p4588
aV2607:f8b0:400a:802::1001
p4589
aV2607:f8b0:400a:802::1006
p4590
aV2607:f8b0:400a:802::1006
p4591
aV2607:f8b0:400a:802::1001
p4592
aV2a00:1450:4003:803::1002
p4593
aV2a00:1450:4013:c01::66
p4594
aV2a00:1450:4002:802::1004
p4595
aV2607:f8b0:400a:802::1006
p4596
aV2a00:1450:4013:c01::71
p4597
aV2607:f8b0:400a:802::1001
p4598
aV2607:f8b0:400a:802::1002
p4599
aV2607:f8b0:400a:802::1003
p4600
aV2607:f8b0:400a:802::1002
p4601
aV2607:f8b0:400a:802::1002
p4602
aV2607:f8b0:400a:802::1002
p4603
aV2404:6800:4005:800::1003
p4604
aV2607:f8b0:400a:802::1003
p4605
aV2a00:1450:400c:c00::66
p4606
aV2607:f8b0:400a:802::1002
p4607
aV2607:f8b0:400a:802::1002
p4608
aV2607:f8b0:400a:802::1003
p4609
aV2607:f8b0:400a:802::1003
p4610
aV2607:f8b0:400a:802::1003
p4611
aV2607:f8b0:400a:802::1003
p4612
aV2607:f8b0:400a:802::1003
p4613
aV2607:f8b0:400a:802::1003
p4614
aV2607:f8b0:400a:802::1003
p4615
aV2607:f8b0:4000:800::1001
p4616
aV2607:f8b0:400a:802::1003
p4617
aV2a00:1450:4003:803::100e
p4618
aV2607:f8b0:4004:800::1003
p4619
aV2a00:1450:4002:803::1002
p4620
aV2607:f8b0:4004:800::100e
p4621
aV2607:f8b0:400a:802::1005
p4622
aV2607:f8b0:400a:802::1008
p4623
aV2607:f8b0:400a:802::1008
p4624
aV2607:f8b0:400a:802::1008
p4625
aV2607:f8b0:400a:802::1008
p4626
aV2607:f8b0:400a:802::1008
p4627
aV2a00:1450:4001:c02::66
p4628
aV2607:f8b0:4004:806::1009
p4629
aV2607:f8b0:400a:802::1008
p4630
aV2a00:1450:4013:c01::71
p4631
aV2a00:1450:4017:801::1000
p4632
aV2607:f8b0:400a:802::1008
p4633
aV2a00:1450:4001:c02::65
p4634
aV2607:f8b0:4001:c02::66
p4635
aV2a00:1450:4001:c02::64
p4636
aV2607:f8b0:400a:802::1007
p4637
aV2607:f8b0:400a:802::1007
p4638
aV2607:f8b0:400a:802::1007
p4639
aV2607:f8b0:400a:802::1007
p4640
aV2a00:1450:4002:803::1003
p4641
aV2607:f8b0:400a:802::1007
p4642
aV2607:f8b0:4004:800::1005
p4643
aV2607:f8b0:400a:802::1007
p4644
aV2607:f8b0:400a:802::1007
p4645
aV2607:f8b0:400a:802::1007
p4646
aV2607:f8b0:4006:808::1007
p4647
aV2607:f8b0:4004:806::1006
p4648
aV2607:f8b0:400a:802::1006
p4649
aV2607:f8b0:400a:802::1008
p4650
aV2607:f8b0:400a:802::1008
p4651
aV2607:f8b0:400a:802::1006
p4652
aV2607:f8b0:400a:802::1008
p4653
aV2607:f8b0:400a:802::1006
p4654
aV2a00:1450:4007:80a::1009
p4655
aV2607:f8b0:400a:802::1008
p4656
aV2404:6800:4005:800::1005
p4657
aV2607:f8b0:400a:802::1008
p4658
aV2607:f8b0:4001:c02::66
p4659
aV2607:f8b0:400a:802::1002
p4660
aV2404:6800:4005:800::1003
p4661
aV2607:f8b0:400a:802::1002
p4662
aV2607:f8b0:400a:802::1002
p4663
aV2607:f8b0:400a:802::1002
p4664
aV2607:f8b0:400a:802::1002
p4665
aV2607:f8b0:400a:802::1008
p4666
aV2607:f8b0:400a:802::1002
p4667
aV2a00:1450:4002:803::100e
p4668
aV2607:f8b0:400a:802::1002
p4669
aV2607:f8b0:4004:800::1007
p4670
aV2607:f8b0:400a:802::1008
p4671
aV2a00:1450:4017:801::1006
p4672
aV2a00:1450:4001:c02::64
p4673
aV2607:f8b0:400a:802::1008
p4674
aV2607:f8b0:400a:802::1006
p4675
aV2607:f8b0:400a:802::1008
p4676
aV2607:f8b0:4006:808::1003
p4677
aV2607:f8b0:400a:802::1008
p4678
aV2607:f8b0:4004:800::1004
p4679
aV2a00:1450:4013:c01::71
p4680
aV2a00:1450:4002:802::1008
p4681
aV2607:f8b0:4001:c02::8d
p4682
aV2607:f8b0:400a:802::1003
p4683
aV2607:f8b0:4001:c02::71
p4684
aV2607:f8b0:400a:802::1001
p4685
aV2607:f8b0:400a:802::1001
p4686
aV2607:f8b0:400a:802::1003
p4687
aV2607:f8b0:4006:808::1006
p4688
aV2607:f8b0:400a:802::1001
p4689
aV2404:6800:4005:800::1002
p4690
aV2607:f8b0:400a:802::1001
p4691
aV2607:f8b0:400a:802::1003
p4692
aV2607:f8b0:400a:802::1001
p4693
aV2607:f8b0:400a:802::1008
p4694
aV2607:f8b0:4001:c02::64
p4695
aV2a00:1450:4007:80a::1003
p4696
aV2607:f8b0:400a:802::1008
p4697
aV2607:f8b0:400a:802::1003
p4698
aV2607:f8b0:400a:802::1008
p4699
aV2607:f8b0:4004:806::1000
p4700
aV2607:f8b0:400a:802::1008
p4701
aV2607:f8b0:4004:806::1000
p4702
aV2607:f8b0:400a:802::1008
p4703
aV2607:f8b0:4001:c02::64
p4704
aV2607:f8b0:400a:802::1003
p4705
aV2607:f8b0:400a:802::1008
p4706
aV2607:f8b0:400a:802::1000
p4707
aV2607:f8b0:400a:802::1000
p4708
aV2607:f8b0:400a:802::1000
p4709
aV2a00:1450:4002:803::1004
p4710
aV2a00:1450:4013:c01::8a
p4711
aV2607:f8b0:400a:802::1000
p4712
aV2a00:1450:4002:802::1003
p4713
aV2607:f8b0:400a:802::1000
p4714
aV2a00:1450:4013:c01::8a
p4715
aV2607:f8b0:400a:802::1009
p4716
aV2607:f8b0:400a:802::1009
p4717
aV2607:f8b0:400a:802::1003
p4718
aV2607:f8b0:400a:802::1004
p4719
aV2607:f8b0:400a:802::1003
p4720
aV2607:f8b0:4004:800::100e
p4721
aV2607:f8b0:400a:802::1003
p4722
aV2a00:1450:4001:808::1007
p4723
aV2404:6800:4006:806::1004
p4724
aV2607:f8b0:400a:802::1004
p4725
aV2607:f8b0:4004:806::1004
p4726
aV2607:f8b0:400a:802::1004
p4727
aV2607:f8b0:400a:802::1003
p4728
aV2607:f8b0:400a:802::1006
p4729
aV2607:f8b0:400a:802::1006
p4730
aV2607:f8b0:400a:802::1001
p4731
aV2404:6800:4005:800::1005
p4732
aV2607:f8b0:400a:802::1006
p4733
aV2607:f8b0:400a:802::1001
p4734
aV2a00:1450:4013:c01::71
p4735
aV2a00:1450:4001:c02::8a
p4736
aV2607:f8b0:400a:802::1001
p4737
aV2a00:1450:400c:c00::71
p4738
aV2607:f8b0:400a:802::1001
p4739
aV2607:f8b0:400a:802::1001
p4740
aV2607:f8b0:400a:802::1002
p4741
aV2607:f8b0:400a:802::1003
p4742
aV2404:6800:4006:806::100e
p4743
aV2607:f8b0:400a:802::1002
p4744
aV2607:f8b0:400a:802::1002
p4745
aV2607:f8b0:400a:802::1002
p4746
aV2607:f8b0:400a:802::1002
p4747
aV2607:f8b0:4000:800::1008
p4748
aV2a00:1450:4002:802::1007
p4749
aV2607:f8b0:400a:802::1003
p4750
aV2607:f8b0:400a:802::1002
p4751
aV2607:f8b0:400a:802::1003
p4752
aV2607:f8b0:400a:802::1003
p4753
aV2607:f8b0:400a:802::1003
p4754
aV2607:f8b0:400a:802::1005
p4755
aV2607:f8b0:400a:802::1005
p4756
aV2607:f8b0:400a:802::1005
p4757
aV2a00:1450:4001:c02::64
p4758
aV2607:f8b0:4004:806::1000
p4759
aV2607:f8b0:400a:802::1005
p4760
aV2607:f8b0:400a:802::1005
p4761
aV2a00:1450:4002:802::1005
p4762
aV2607:f8b0:400a:802::1008
p4763
aV2607:f8b0:400a:802::1000
p4764
aV2607:f8b0:400a:802::1008
p4765
aV2607:f8b0:400a:802::1008
p4766
aV2607:f8b0:400a:802::1008
p4767
aV2a00:1450:4007:80a::1003
p4768
aV2607:f8b0:400a:802::1008
p4769
aV2a00:1450:4013:c01::71
p4770
aV2607:f8b0:4004:806::1002
p4771
aV2a00:1450:4013:c00::66
p4772
aV2a00:1450:4017:801::1002
p4773
aV2607:f8b0:400a:802::1007
p4774
aV2a00:1450:4001:80d::1007
p4775
aV2607:f8b0:400a:802::1000
p4776
aV2607:f8b0:400a:802::1007
p4777
aV2607:f8b0:400a:802::1007
p4778
aV2607:f8b0:400a:802::1007
p4779
aV2607:f8b0:400a:802::1007
p4780
aV2a00:1450:4001:c02::64
p4781
aV2404:6800:4006:806::1001
p4782
aV2a00:1450:4001:c02::64
p4783
aV2607:f8b0:400a:802::1007
p4784
aV2a00:1450:4013:c00::65
p4785
aV2a00:1450:4001:c02::8b
p4786
aV2607:f8b0:400a:802::1006
p4787
aV2607:f8b0:400a:802::1006
p4788
aV2607:f8b0:400a:802::1006
p4789
aV2607:f8b0:400a:802::1006
p4790
aV2607:f8b0:400a:802::1008
p4791
aV2607:f8b0:400a:802::1008
p4792
aV2607:f8b0:400a:802::1006
p4793
aV2607:f8b0:4001:c02::8b
p4794
aV2607:f8b0:400a:802::1006
p4795
aV2607:f8b0:4004:806::1006
p4796
aV2607:f8b0:400a:802::1002
p4797
aV2a00:1450:4017:801::1009
p4798
aV2607:f8b0:400a:802::1002
p4799
aV2607:f8b0:400a:802::1009
p4800
aV2607:f8b0:400a:802::1002
p4801
aV2607:f8b0:400a:802::1002
p4802
aV2607:f8b0:400a:802::1002
p4803
aV2607:f8b0:400a:802::1002
p4804
aV2607:f8b0:400a:802::1002
p4805
aV2607:f8b0:400a:802::1002
p4806
aV2a00:1450:4013:c01::71
p4807
aV2607:f8b0:4000:800::1004
p4808
aV2607:f8b0:400a:802::1008
p4809
aV2607:f8b0:4006:808::1005
p4810
aV2607:f8b0:400a:802::1008
p4811
aV2607:f8b0:400a:802::1008
p4812
aV2607:f8b0:400a:802::1008
p4813
aV2607:f8b0:400a:802::1008
p4814
aV2607:f8b0:400a:802::1008
p4815
aV2607:f8b0:400a:802::1008
p4816
aV2a00:1450:4002:802::1005
p4817
aV2404:6800:4006:806::100e
p4818
aV2607:f8b0:400a:802::1006
p4819
aV2607:f8b0:400a:802::1006
p4820
aV2607:f8b0:400a:802::1006
p4821
aV2607:f8b0:4000:800::1002
p4822
aV2607:f8b0:400a:802::1006
p4823
aV2607:f8b0:400a:802::100a
p4824
aV2607:f8b0:400a:802::1001
p4825
aV2607:f8b0:4001:c02::71
p4826
aV2a00:1450:4013:c01::8a
p4827
aV2a00:1450:400c:c00::71
p4828
aV2607:f8b0:400a:802::1003
p4829
aV2a00:1450:400c:c00::71
p4830
aV2607:f8b0:400a:802::1001
p4831
aV2607:f8b0:400a:802::1003
p4832
aV2607:f8b0:400a:802::1001
p4833
aV2607:f8b0:400a:802::1001
p4834
aV2607:f8b0:400a:802::1001
p4835
aV2607:f8b0:400a:802::1001
p4836
aV2607:f8b0:400a:802::1008
p4837
aV2404:6800:4006:806::1003
p4838
aV2a00:1450:4007:80a::1003
p4839
aV2607:f8b0:400a:802::1003
p4840
aV2607:f8b0:400a:802::1008
p4841
aV2607:f8b0:4004:800::1003
p4842
aV2607:f8b0:400a:802::1003
p4843
aV2a00:1450:4001:808::100e
p4844
aV2607:f8b0:400a:802::1008
p4845
aV2607:f8b0:400a:802::1008
p4846
aV2607:f8b0:400a:802::1008
p4847
aV2607:f8b0:400a:802::1000
p4848
aV2607:f8b0:400a:802::1000
p4849
aV2607:f8b0:400a:802::1009
p4850
aV2a00:1450:4002:803::1004
p4851
aV2404:6800:4005:800::1002
p4852
aV2607:f8b0:4000:800::1001
p4853
aV2607:f8b0:4006:808::1007
p4854
aV2607:f8b0:400a:802::1009
p4855
aV2a00:1450:4013:c00::66
p4856
aV2a00:1450:4013:c01::8a
p4857
aV2607:f8b0:400a:802::1009
p4858
aV2607:f8b0:400a:802::1000
p4859
aV2607:f8b0:400a:802::1004
p4860
aV2607:f8b0:400a:802::1003
p4861
aV2607:f8b0:400a:802::1003
p4862
aV2a00:1450:4001:808::1007
p4863
aV2607:f8b0:4001:c02::65
p4864
aV2607:f8b0:400a:802::1003
p4865
aV2a00:1450:400c:c00::66
p4866
aV2a00:1450:4017:801::1006
p4867
aV2404:6800:4005:800::1006
p4868
aV2a00:1450:4001:c02::65
p4869
aV2607:f8b0:400a:802::1004
p4870
aV2607:f8b0:400a:802::1009
p4871
aV2607:f8b0:400a:802::1001
p4872
aV2607:f8b0:400a:802::1001
p4873
aV2607:f8b0:400a:802::1001
p4874
aV2a00:1450:4002:803::1008
p4875
aV2607:f8b0:400a:802::1001
p4876
aV2a00:1450:4001:c02::8a
p4877
aV2607:f8b0:400a:802::1001
p4878
aV2607:f8b0:4004:800::1002
p4879
aV2607:f8b0:4001:c02::64
p4880
aV2607:f8b0:400a:802::1001
p4881
aV2607:f8b0:400a:802::1006
p4882
aV2607:f8b0:400a:802::1002
p4883
aV2607:f8b0:400a:802::1003
p4884
aV2607:f8b0:400a:802::1002
p4885
aV2a00:1450:4001:c02::8b
p4886
aV2607:f8b0:400a:802::1003
p4887
aV2a00:1450:400e:400::11
p4888
aV2a00:1450:400e:400::11
p4889
aV2a00:1450:400e:400::11
p4890
aV2a00:1450:400e:404::11
p4891
aV2a00:1450:400e:404::11
p4892
aV2a00:1450:400e:404::11
p4893
aV2a00:1450:400e:401::11
p4894
aV2a00:1450:400e:401::11
p4895
aV2a00:1450:400e:401::11
p4896
aV2a00:1450:400e:405::11
p4897
aV2a00:1450:400e:405::11
p4898
aV2a00:1450:400e:405::11
p4899
aV2a00:1450:400e:402::11
p4900
aV2a00:1450:400e:402::11
p4901
aV2a00:1450:400e:402::11
p4902
aV2a00:1450:400e:406::11
p4903
aV2a00:1450:400e:406::11
p4904
aV2a00:1450:400e:406::11
p4905
aV2a00:1450:400e:403::11
p4906
aV2a00:1450:400e:403::11
p4907
aV2a00:1450:400e:403::11
p4908
aV2a00:1450:400e:407::11
p4909
aV2a00:1450:400e:407::11
p4910
aV2a00:1450:400e:407::11
p4911
aV2607:f8b0:400a:802::1008
p4912
aV2607:f8b0:400a:802::1008
p4913
aV2a00:1450:4002:802::1005
p4914
aV2607:f8b0:400a:802::1007
p4915
aV2a00:1450:4001:c02::8b
p4916
aV2607:f8b0:400a:802::1007
p4917
aV2607:f8b0:400a:802::1000
p4918
aV2607:f8b0:400a:802::1007
p4919
aV2607:f8b0:400a:802::1007
p4920
aV2a00:1450:4003:803::1009
p4921
aV2a00:1450:4002:802::1004
p4922
aV2a00:1450:4013:c00::65
p4923
aV2607:f8b0:400a:802::1007
p4924
aV2607:f8b0:4004:800::1005
p4925
aV2607:f8b0:400a:802::1000
p4926
aV2607:f8b0:4006:808::1005
p4927
aV2607:f8b0:400a:802::1000
p4928
aV2607:f8b0:400a:802::1008
p4929
aV2607:f8b0:400a:802::1006
p4930
aV2607:f8b0:400a:802::1006
p4931
aV2607:f8b0:400a:802::1008
p4932
aV2607:f8b0:400a:802::1006
p4933
aV2a00:1450:400c:c00::65
p4934
aV2607:f8b0:400a:802::1006
p4935
aV2404:6800:4005:800::1005
p4936
aV2607:f8b0:400a:802::1008
p4937
aV2a00:1450:4001:c02::8b
p4938
aV2607:f8b0:4001:c02::66
p4939
aV2607:f8b0:400a:802::1002
p4940
aV2607:f8b0:400a:802::1002
p4941
aV2607:f8b0:400a:802::1002
p4942
aV2607:f8b0:400a:802::1002
p4943
aV2607:f8b0:400a:802::1002
p4944
aV2607:f8b0:400a:802::1002
p4945
aV2a00:1450:4007:80a::1003
p4946
aV2607:f8b0:400a:802::1008
p4947
aV2a00:1450:4002:802::1005
p4948
aV2404:6800:4006:806::1004
p4949
aV2607:f8b0:400a:802::1008
p4950
aV2a00:1450:4007:80a::1001
p4951
aV2607:f8b0:400a:802::1008
p4952
aV2607:f8b0:400a:802::1008
p4953
aV2607:f8b0:400a:802::1006
p4954
aV2607:f8b0:400a:802::1008
p4955
aV2a00:1450:400c:c00::8b
p4956
aV2607:f8b0:400a:802::1008
p4957
aV2a00:1450:4003:803::1004
p4958
aV2607:f8b0:400a:802::1006
p4959
aV2607:f8b0:4004:800::1004
p4960
aV2607:f8b0:400a:802::1006
p4961
aV2607:f8b0:400a:802::1006
p4962
aV2607:f8b0:400a:802::1006
p4963
aV2607:f8b0:400a:802::1006
p4964
aV2607:f8b0:400a:802::1006
p4965
aV2a03:2880:20:3f07:face:b00c::1
p4966
aV2607:f8b0:400a:802::1001
p4967
aV2a00:1450:4013:c00::8b
p4968
aV2a00:1450:4013:c01::8a
p4969
aV2607:f8b0:400a:802::1001
p4970
aV2404:6800:4005:800::1008
p4971
aV2a00:1450:4013:c00::8b
p4972
aV2607:f8b0:400a:802::1001
p4973
aV2607:f8b0:400a:802::1001
p4974
aV2607:f8b0:400a:802::1001
p4975
aV2607:f8b0:400a:802::1001
p4976
aV2607:f8b0:400a:802::1001
p4977
aV2607:f8b0:400a:802::1003
p4978
aV2607:f8b0:400a:802::1003
p4979
aV2607:f8b0:400a:802::1008
p4980
aV2a00:1450:4001:c02::66
p4981
aV2607:f8b0:400a:802::1008
p4982
aV2a00:1450:4013:c01::66
p4983
aV2607:f8b0:400a:802::1008
p4984
aV2a00:1450:400c:c00::66
p4985
aV2607:f8b0:400a:802::1003
p4986
aV2404:6800:4006:806::1003
p4987
aV2607:f8b0:400a:802::1008
p4988
aV2607:f8b0:400a:802::1008
p4989
aV2607:f8b0:400a:802::1008
p4990
aV2607:f8b0:400a:802::1008
p4991
aV2607:f8b0:400a:802::1009
p4992
aV2607:f8b0:400a:802::1009
p4993
aV2607:f8b0:400a:802::1009
p4994
aV2a00:1450:4002:802::1003
p4995
aV2607:f8b0:400a:802::1009
p4996
aV2607:f8b0:400a:802::1009
p4997
aV2a00:1450:4002:802::1003
p4998
aV2607:f8b0:4000:800::1001
p4999
aV2a00:1450:4007:80a::1005
p5000
aV2607:f8b0:400a:802::1009
p5001
aV2607:f8b0:400a:802::1009
p5002
aV2607:f8b0:400a:802::1004
p5003
aV2607:f8b0:400a:802::1004
p5004
aV2607:f8b0:400a:802::1003
p5005
aV2607:f8b0:4000:800::1008
p5006
aV2607:f8b0:400a:802::1003
p5007
aV2607:f8b0:4004:800::100e
p5008
aV2607:f8b0:400a:802::1004
p5009
aV2a00:1450:4002:802::1001
p5010
aV2607:f8b0:400a:802::1003
p5011
aV2607:f8b0:400a:802::1004
p5012
aV2a00:1450:400c:c00::71
p5013
aV2607:f8b0:400a:802::1003
p5014
aV2607:f8b0:400a:802::1001
p5015
aV2607:f8b0:400a:802::1001
p5016
aV2607:f8b0:400a:802::1001
p5017
aV2a00:1450:4013:c00::66
p5018
aV2607:f8b0:400a:802::1001
p5019
aV2607:f8b0:4004:806::1008
p5020
aV2a00:1450:4013:c01::66
p5021
aV2a00:1450:4002:802::1004
p5022
aV2607:f8b0:400a:802::1001
p5023
aV2607:f8b0:400a:802::1001
p5024
aV2607:f8b0:400a:802::1002
p5025
aV2607:f8b0:400a:802::1002
p5026
aV2607:f8b0:400a:802::1003
p5027
aV2607:f8b0:400a:802::1002
p5028
aV2607:f8b0:400a:802::1002
p5029
aV2607:f8b0:400a:802::1003
p5030
aV2607:f8b0:400a:802::1002
p5031
aV2404:6800:4005:800::1003
p5032
aV2607:f8b0:400a:802::1003
p5033
aV2607:f8b0:4004:806::1003
p5034
aV2607:f8b0:400a:802::1002
p5035
aV2607:f8b0:400a:802::1002
p5036
aV2607:f8b0:400a:802::1003
p5037
aV2607:f8b0:400a:802::1003
p5038
aV2607:f8b0:400a:802::1003
p5039
aV2607:f8b0:400a:802::1003
p5040
aV2607:f8b0:400a:802::1005
p5041
aV2607:f8b0:400a:802::1003
p5042
aV2a00:1450:4007:80a::1002
p5043
aV2607:f8b0:400a:802::1005
p5044
aV2607:f8b0:400a:802::1005
p5045
aV2a00:1450:4013:c01::66
p5046
aV2607:f8b0:400a:802::1003
p5047
aV2a00:1450:4007:80a::1002
p5048
aV2607:f8b0:400a:802::1005
p5049
aV2607:f8b0:400a:802::1008
p5050
aV2607:f8b0:400a:802::1008
p5051
aV2607:f8b0:400a:802::1008
p5052
aV2607:f8b0:400a:802::1008
p5053
aV2a00:1450:4003:803::1000
p5054
aV2607:f8b0:4004:806::1002
p5055
aV2607:f8b0:400a:802::1008
p5056
aV2a00:1450:4001:c02::66
p5057
aV2a00:1450:4002:802::1005
p5058
aV2a00:1450:4002:803::1008
p5059
aV2607:f8b0:4004:800::1009
p5060
aV2607:f8b0:400a:802::1000
p5061
aV2a00:1450:4013:c00::65
p5062
aV2607:f8b0:400a:802::1007
p5063
aV2607:f8b0:400a:802::1007
p5064
aV2607:f8b0:400a:802::1007
p5065
aV2607:f8b0:400a:802::1000
p5066
aV2607:f8b0:400a:802::1007
p5067
aV2404:6800:4005:800::1001
p5068
aV2a00:1450:4013:c01::8a
p5069
aV2607:f8b0:400a:802::1007
p5070
aV2607:f8b0:400a:802::1007
p5071
aV2607:f8b0:400a:802::1007
p5072
aV2607:f8b0:400a:802::1006
p5073
aV2607:f8b0:4004:806::1002
p5074
aV2607:f8b0:400a:802::1006
p5075
aV2607:f8b0:400a:802::1006
p5076
aV2607:f8b0:400a:802::1006
p5077
aV2607:f8b0:400a:802::1006
p5078
aV2607:f8b0:400a:802::1006
p5079
aV2607:f8b0:400a:802::1008
p5080
aV2a00:1450:4013:c00::65
p5081
aV2607:f8b0:400a:802::1008
p5082
aV2a00:1450:4001:c02::66
p5083
aV2607:f8b0:400a:802::1008
p5084
aV2607:f8b0:4004:800::1006
p5085
aV2607:f8b0:400a:802::1002
p5086
aV2a00:1450:4007:80a::1003
p5087
aV2607:f8b0:400a:802::1008
p5088
aV2607:f8b0:400a:802::1002
p5089
aV2607:f8b0:400a:802::1002
p5090
aV2607:f8b0:400a:802::1008
p5091
aV2607:f8b0:400a:802::1002
p5092
aV2607:f8b0:400a:802::1002
p5093
aV2a00:1450:4002:803::100e
p5094
aV2a00:1450:4013:c01::71
p5095
aV2a00:1450:4003:803::1003
p5096
aV2607:f8b0:400a:802::1008
p5097
aV2a00:1450:400c:c00::8a
p5098
aV2a00:1450:400c:c00::8b
p5099
aV2607:f8b0:400a:802::1008
p5100
aV2607:f8b0:400a:802::1006
p5101
aV2607:f8b0:400a:802::1008
p5102
aV2607:f8b0:400a:802::1008
p5103
aV2607:f8b0:400a:802::1008
p5104
aV2a00:1450:400c:c00::8b
p5105
aV2a00:1450:4001:c02::65
p5106
aV2a00:1450:400c:c00::66
p5107
aV2a03:2880:20:3f07:face:b00c::1
p5108
aV2607:f8b0:400a:802::1001
p5109
aV2a00:1450:4001:c02::66
p5110
aV2607:f8b0:400a:802::1001
p5111
aV2607:f8b0:400a:802::1001
p5112
aV2607:f8b0:4001:c02::71
p5113
aV2a00:1450:4013:c01::8a
p5114
aV2607:f8b0:4000:800::1001
p5115
aV2a00:1450:4013:c01::8a
p5116
aV2607:f8b0:400a:802::1001
p5117
aV2607:f8b0:400a:802::1001
p5118
aV2607:f8b0:400a:802::1001
p5119
aV2607:f8b0:400a:802::1008
p5120
aV2a00:1450:4002:803::1000
p5121
aV2607:f8b0:400a:802::1008
p5122
aV2a00:1450:4002:803::1000
p5123
aV2607:f8b0:400a:802::1008
p5124
aV2a00:1450:4013:c00::65
p5125
aV2607:f8b0:400a:802::1008
p5126
aV2607:f8b0:400a:802::1008
p5127
aV2607:f8b0:400a:802::1008
p5128
aV2607:f8b0:400a:802::1003
p5129
aV2607:f8b0:400a:802::1008
p5130
aV2607:f8b0:400a:802::1009
p5131
aV2607:f8b0:400a:802::1009
p5132
aV2607:f8b0:400a:802::1009
p5133
aV2607:f8b0:4006:808::1007
p5134
aV2607:f8b0:400a:802::1009
p5135
aV2607:f8b0:400a:802::1000
p5136
aV2607:f8b0:400a:802::1000
p5137
aV2607:f8b0:400a:802::1009
p5138
aV2404:6800:4005:800::1002
p5139
aV2607:f8b0:400a:802::1000
p5140
aV2607:f8b0:400a:802::1009
p5141
aV2607:f8b0:400a:802::1009
p5142
aV2607:f8b0:400a:802::1003
p5143
aV2607:f8b0:400a:802::1003
p5144
aV2607:f8b0:4004:806::1004
p5145
aV2a00:1450:4003:803::1007
p5146
aV2607:f8b0:4004:806::1009
p5147
aV2607:f8b0:400a:802::1003
p5148
aV2607:f8b0:400a:802::1004
p5149
aV2a00:1450:4007:80a::1003
p5150
aV2607:f8b0:400a:802::1004
p5151
aV2607:f8b0:400a:802::1003
p5152
aV2607:f8b0:400a:802::1006
p5153
aV2a00:1450:400e:400::12
p5154
aV2a00:1450:400e:400::12
p5155
aV2a00:1450:400e:400::12
p5156
aV2a00:1450:400e:404::12
p5157
aV2a00:1450:400e:404::12
p5158
aV2a00:1450:400e:404::12
p5159
aV2a00:1450:400e:401::12
p5160
aV2a00:1450:400e:401::12
p5161
aV2a00:1450:400e:401::12
p5162
aV2a00:1450:400e:405::12
p5163
aV2a00:1450:400e:405::12
p5164
aV2a00:1450:400e:405::12
p5165
aV2a00:1450:400e:402::12
p5166
aV2a00:1450:400e:402::12
p5167
aV2a00:1450:400e:402::12
p5168
aV2a00:1450:400e:406::12
p5169
aV2a00:1450:400e:406::12
p5170
aV2a00:1450:400e:406::12
p5171
aV2a00:1450:400e:403::12
p5172
aV2a00:1450:400e:403::12
p5173
aV2a00:1450:400e:403::12
p5174
aV2a00:1450:400e:407::12
p5175
aV2a00:1450:400e:407::12
p5176
aV2607:f8b0:400a:802::1005
p5177
aV2a00:1450:400e:407::12
p5178
aV2607:f8b0:400a:802::1003
p5179
aV2607:f8b0:400a:802::1005
p5180
aV2607:f8b0:400a:802::1003
p5181
aV2607:f8b0:400a:802::1003
p5182
aV2a00:1450:400c:c00::8a
p5183
aV2607:f8b0:400a:802::1003
p5184
aV2607:f8b0:400a:802::1003
p5185
aV2a00:1450:4002:802::1006
p5186
aV2a00:1450:400c:c00::8a
p5187
aV2607:f8b0:400a:802::1005
p5188
aV2607:f8b0:400a:802::1008
p5189
aV2607:f8b0:400a:802::1008
p5190
aV2607:f8b0:400a:802::1000
p5191
aV2607:f8b0:400a:802::1008
p5192
aV2607:f8b0:400a:802::1008
p5193
aV2607:f8b0:400a:802::1008
p5194
aV2607:f8b0:400a:802::1008
p5195
aV2607:f8b0:400a:802::1000
p5196
aV2607:f8b0:400a:802::1008
p5197
aV2607:f8b0:4001:c02::66
p5198
aV2a00:1450:400c:c00::71
p5199
aV2607:f8b0:400a:802::1000
p5200
aV2607:f8b0:400a:802::1000
p5201
aV2607:f8b0:400a:802::1007
p5202
aV2607:f8b0:400a:802::1007
p5203
aV2607:f8b0:400a:802::1007
p5204
aV2607:f8b0:400a:802::1007
p5205
aV2607:f8b0:400a:802::1000
p5206
aV2607:f8b0:400a:802::1000
p5207
aV2404:6800:4005:800::1001
p5208
aV2607:f8b0:4001:c02::66
p5209
aV2607:f8b0:400a:802::1007
p5210
aV2a00:1450:4013:c00::65
p5211
aV2a00:1450:4013:c01::64
p5212
aV2607:f8b0:400a:802::1006
p5213
aV2607:f8b0:400a:802::1006
p5214
aV2607:f8b0:400a:802::1008
p5215
aV2607:f8b0:400a:802::1006
p5216
aV2607:f8b0:400a:802::1006
p5217
aV2a00:1450:400e:400::13
p5218
aV2a00:1450:400e:400::13
p5219
aV2a00:1450:400e:400::13
p5220
aV2a00:1450:400e:404::13
p5221
aV2a00:1450:400e:404::13
p5222
aV2a00:1450:400e:404::13
p5223
aV2a00:1450:400e:401::13
p5224
aV2a00:1450:400e:401::13
p5225
aV2a00:1450:400e:401::13
p5226
aV2a00:1450:400e:405::13
p5227
aV2a00:1450:400e:405::13
p5228
aV2a00:1450:400e:405::13
p5229
aV2a00:1450:400e:402::13
p5230
aV2a00:1450:400e:402::13
p5231
aV2a00:1450:400e:402::13
p5232
aV2a00:1450:400e:406::13
p5233
aV2a00:1450:400e:406::13
p5234
aV2a00:1450:400e:406::13
p5235
aV2a00:1450:400e:403::13
p5236
aV2a00:1450:400e:403::13
p5237
aV2a00:1450:400e:403::13
p5238
aV2a00:1450:400e:407::13
p5239
aV2a00:1450:400e:407::13
p5240
aV2a00:1450:400e:407::13
p5241
aV2607:f8b0:400a:802::1008
p5242
aV2607:f8b0:400a:802::1008
p5243
aV2a00:1450:4002:802::1005
p5244
aV2404:6800:4005:800::1007
p5245
aV2607:f8b0:400a:802::1008
p5246
aV2607:f8b0:400a:802::1006
p5247
aV2607:f8b0:4004:806::1000
p5248
aV2607:f8b0:400a:802::1006
p5249
aV2607:f8b0:400a:802::1001
p5250
aV2607:f8b0:400a:802::1001
p5251
aV2607:f8b0:400a:802::1001
p5252
aV2607:f8b0:4004:800::1002
p5253
aV2a00:1450:4001:c02::66
p5254
aV2a00:1450:4017:801::1003
p5255
aV2a00:1450:4007:80a::100e
p5256
aV2a00:1450:4002:802::1007
p5257
aV2607:f8b0:400a:802::1001
p5258
aV2607:f8b0:400a:802::1001
p5259
aV2607:f8b0:400a:802::1001
p5260
aV2607:f8b0:400a:802::1008
p5261
aV2607:f8b0:4000:800::1007
p5262
aV2a00:1450:4013:c01::66
p5263
aV2607:f8b0:400a:802::1008
p5264
aV2a00:1450:4007:80a::1003
p5265
aV2607:f8b0:400a:802::1008
p5266
aV2a00:1450:4017:801::1006
p5267
aV2607:f8b0:4004:806::1006
p5268
aV2607:f8b0:400a:802::1003
p5269
aV2607:f8b0:400a:802::1008
p5270
aV2607:f8b0:400a:802::1008
p5271
aV2607:f8b0:400a:802::1009
p5272
aV2607:f8b0:400a:802::1000
p5273
aV2607:f8b0:400a:802::1009
p5274
aV2a00:1450:4013:c00::66
p5275
aV2607:f8b0:400a:802::1009
p5276
aV2a00:1450:4001:c02::65
p5277
aV2a00:1450:4002:802::1003
p5278
aV2607:f8b0:4000:800::1001
p5279
aV2607:f8b0:400a:802::1000
p5280
aV2607:f8b0:400a:802::1000
p5281
aV2a00:1450:400e:400::14
p5282
aV2a00:1450:400e:400::14
p5283
aV2a00:1450:400e:400::14
p5284
aV2a00:1450:400e:404::14
p5285
aV2a00:1450:400e:404::14
p5286
aV2a00:1450:400e:404::14
p5287
aV2a00:1450:400e:401::14
p5288
aV2a00:1450:400e:401::14
p5289
aV2a00:1450:400e:401::14
p5290
aV2a00:1450:400e:405::14
p5291
aV2a00:1450:400e:405::14
p5292
aV2a00:1450:400e:405::14
p5293
aV2a00:1450:400e:402::14
p5294
aV2a00:1450:400e:402::14
p5295
aV2a00:1450:400e:402::14
p5296
aV2a00:1450:400e:406::14
p5297
aV2a00:1450:400e:406::14
p5298
aV2a00:1450:400e:406::14
p5299
aV2a00:1450:400e:403::14
p5300
aV2a00:1450:400e:403::14
p5301
aV2a00:1450:400e:403::14
p5302
aV2a00:1450:400e:407::14
p5303
aV2a00:1450:400e:407::14
p5304
aV2a00:1450:400e:407::14
p5305
aV2607:f8b0:400a:802::1001
p5306
aV2607:f8b0:400a:802::1001
p5307
aV2607:f8b0:400a:802::1006
p5308
aV2607:f8b0:400a:802::1003
p5309
aV2607:f8b0:400a:802::1002
p5310
aV2607:f8b0:400a:802::1002
p5311
aV2607:f8b0:400a:802::1002
p5312
aV2607:f8b0:400a:802::1002
p5313
aV2a00:1450:400c:c00::66
p5314
aV2a00:1450:4002:802::1007
p5315
aV2607:f8b0:400a:802::1002
p5316
aV2607:f8b0:4001:c02::8a
p5317
aV2607:f8b0:400a:802::1002
p5318
aV2607:f8b0:400a:802::1002
p5319
aV2607:f8b0:400a:802::1003
p5320
aV2607:f8b0:400a:802::1003
p5321
aV2607:f8b0:400a:802::1003
p5322
aV2607:f8b0:400a:802::1003
p5323
aV2607:f8b0:400a:802::1003
p5324
aV2607:f8b0:400a:802::1003
p5325
aV2607:f8b0:400a:802::1003
p5326
aV2607:f8b0:4004:806::1008
p5327
aV2607:f8b0:400a:802::1003
p5328
aV2607:f8b0:400a:802::1003
p5329
aV2a00:1450:4002:802::1006
p5330
aV2607:f8b0:4004:806::1008
p5331
aV2a00:1450:4002:802::1005
p5332
aV2607:f8b0:400a:802::1008
p5333
aV2607:f8b0:400a:802::1008
p5334
aV2607:f8b0:400a:802::1008
p5335
aV2607:f8b0:400a:802::1000
p5336
aV2607:f8b0:400a:802::1008
p5337
aV2607:f8b0:400a:802::1008
p5338
aV2a00:1450:4001:c02::65
p5339
aV2a00:1450:400c:c00::71
p5340
aV2a00:1450:4001:c02::66
p5341
aV2a00:1450:400c:c00::64
p5342
aV2607:f8b0:400a:802::1007
p5343
aV2607:f8b0:4006:808::1006
p5344
aV2607:f8b0:400a:802::1007
p5345
aV2a00:1450:400e:400::15
p5346
aV2a00:1450:400e:400::15
p5347
aV2a00:1450:400e:400::15
p5348
aV2a00:1450:400e:404::15
p5349
aV2a00:1450:400e:404::15
p5350
aV2a00:1450:400e:404::15
p5351
aV2a00:1450:400e:401::15
p5352
aV2a00:1450:400e:401::15
p5353
aV2a00:1450:400e:401::15
p5354
aV2a00:1450:400e:405::15
p5355
aV2a00:1450:400e:405::15
p5356
aV2a00:1450:400e:405::15
p5357
aV2a00:1450:400e:402::15
p5358
aV2a00:1450:400e:402::15
p5359
aV2a00:1450:400e:402::15
p5360
aV2a00:1450:400e:406::15
p5361
aV2a00:1450:400e:406::15
p5362
aV2a00:1450:400e:406::15
p5363
aV2a00:1450:400e:403::15
p5364
aV2a00:1450:400e:403::15
p5365
aV2a00:1450:400e:403::15
p5366
aV2a00:1450:400e:407::15
p5367
aV2a00:1450:400e:407::15
p5368
aV2a00:1450:400e:407::15
p5369
aV2607:f8b0:400a:802::1002
p5370
aV2607:f8b0:400a:802::1002
p5371
aV2607:f8b0:400a:802::1002
p5372
aV2607:f8b0:400a:802::1008
p5373
aV2607:f8b0:400a:802::1002
p5374
aV2a00:1450:4017:801::1009
p5375
aV2a00:1450:4003:803::1003
p5376
aV2607:f8b0:400a:802::1008
p5377
aV2607:f8b0:4004:806::1006
p5378
aV2607:f8b0:400a:802::1008
p5379
aV2a00:1450:4013:c01::8b
p5380
aV2607:f8b0:400a:802::1008
p5381
aV2607:f8b0:400a:802::1008
p5382
aV2607:f8b0:400a:802::1006
p5383
aV2607:f8b0:400a:802::1008
p5384
aV2607:f8b0:400a:802::1008
p5385
aV2607:f8b0:400a:802::1006
p5386
aV2a00:1450:400c:c00::8b
p5387
aV2607:f8b0:400a:802::1006
p5388
aV2a00:1450:4001:c02::8a
p5389
aV2607:f8b0:400a:802::1006
p5390
aV2607:f8b0:400a:802::1001
p5391
aV2a00:1450:4003:803::1005
p5392
aV2a00:1450:4002:802::1007
p5393
aV2a00:1450:4013:c00::8b
p5394
aV2607:f8b0:400a:802::1001
p5395
aV2607:f8b0:4006:808::1006
p5396
aV2607:f8b0:400a:802::1001
p5397
aV2607:f8b0:400a:802::1001
p5398
aV2607:f8b0:400a:802::1001
p5399
aV2607:f8b0:400a:802::1001
p5400
aV2607:f8b0:400a:802::1001
p5401
aV2607:f8b0:400a:802::1008
p5402
aV2607:f8b0:400a:802::1008
p5403
aV2a00:1450:4017:801::1000
p5404
aV2a00:1450:400c:c00::71
p5405
aV2607:f8b0:400a:802::1003
p5406
aV2a00:1450:4002:803::1000
p5407
aV2607:f8b0:4004:800::1008
p5408
aV2607:f8b0:400a:802::1008
p5409
aV2a00:1450:400e:400::16
p5410
aV2a00:1450:400e:400::16
p5411
aV2a00:1450:400e:400::16
p5412
aV2a00:1450:400e:404::16
p5413
aV2a00:1450:400e:404::16
p5414
aV2a00:1450:400e:404::16
p5415
aV2a00:1450:400e:401::16
p5416
aV2a00:1450:400e:401::16
p5417
aV2a00:1450:400e:401::16
p5418
aV2a00:1450:400e:405::16
p5419
aV2a00:1450:400e:405::16
p5420
aV2a00:1450:400e:405::16
p5421
aV2a00:1450:400e:402::16
p5422
aV2a00:1450:400e:402::16
p5423
aV2a00:1450:400e:402::16
p5424
aV2a00:1450:400e:406::16
p5425
aV2a00:1450:400e:406::16
p5426
aV2a00:1450:400e:406::16
p5427
aV2a00:1450:400e:403::16
p5428
aV2a00:1450:400e:403::16
p5429
aV2a00:1450:400e:403::16
p5430
aV2a00:1450:400e:407::16
p5431
aV2a00:1450:400e:407::16
p5432
aV2a00:1450:400e:407::16
p5433
aV2a00:1450:4001:808::1007
p5434
aV2a00:1450:4002:802::1001
p5435
aV2607:f8b0:400a:802::1001
p5436
aV2607:f8b0:400a:802::1001
p5437
aV2607:f8b0:400a:802::1001
p5438
aV2a00:1450:4001:c02::8a
p5439
aV2404:6800:4005:800::1003
p5440
aV2a00:1450:4001:c02::8a
p5441
aV2a00:1450:4001:c02::65
p5442
aV2607:f8b0:400a:802::1001
p5443
aV2a00:1450:4001:c02::65
p5444
aV2607:f8b0:400a:802::1001
p5445
aV2607:f8b0:4004:800::1002
p5446
aV2607:f8b0:400a:802::1001
p5447
aV2607:f8b0:400a:802::1006
p5448
aV2607:f8b0:400a:802::1002
p5449
aV2607:f8b0:400a:802::1002
p5450
aV2607:f8b0:400a:802::1002
p5451
aV2607:f8b0:400a:802::1002
p5452
aV2607:f8b0:4006:808::1008
p5453
aV2607:f8b0:400a:802::1003
p5454
aV2607:f8b0:400a:802::1002
p5455
aV2a00:1450:4017:801::100e
p5456
aV2607:f8b0:400a:802::1002
p5457
aV2607:f8b0:400a:802::1002
p5458
aV2607:f8b0:400a:802::1003
p5459
aV2607:f8b0:400a:802::1003
p5460
aV2607:f8b0:400a:802::1003
p5461
aV2607:f8b0:400a:802::1005
p5462
aV2607:f8b0:400a:802::1005
p5463
aV2a00:1450:4007:80a::1002
p5464
aV2607:f8b0:4000:800::1001
p5465
aV2607:f8b0:4004:806::1000
p5466
aV2404:6800:4006:806::1005
p5467
aV2607:f8b0:400a:802::1003
p5468
aV2607:f8b0:400a:802::1008
p5469
aV2607:f8b0:400a:802::1000
p5470
aV2607:f8b0:400a:802::1008
p5471
aV2607:f8b0:400a:802::1000
p5472
aV2a00:1450:4003:803::1003
p5473
aV2a00:1450:400e:400::17
p5474
aV2a00:1450:400e:400::17
p5475
aV2a00:1450:400e:400::17
p5476
aV2a00:1450:400e:404::17
p5477
aV2a00:1450:400e:404::17
p5478
aV2a00:1450:400e:404::17
p5479
aV2a00:1450:400e:401::17
p5480
aV2a00:1450:400e:401::17
p5481
aV2a00:1450:400e:401::17
p5482
aV2a00:1450:400e:405::17
p5483
aV2a00:1450:400e:405::17
p5484
aV2a00:1450:400e:405::17
p5485
aV2a00:1450:400e:402::17
p5486
aV2a00:1450:400e:402::17
p5487
aV2a00:1450:400e:402::17
p5488
aV2a00:1450:400e:406::17
p5489
aV2a00:1450:400e:406::17
p5490
aV2a00:1450:400e:406::17
p5491
aV2a00:1450:400e:403::17
p5492
aV2a00:1450:400e:403::17
p5493
aV2a00:1450:400e:403::17
p5494
aV2a00:1450:400e:407::17
p5495
aV2a00:1450:400e:407::17
p5496
aV2a00:1450:400e:407::17
p5497
aV2607:f8b0:400a:802::1006
p5498
aV2a00:1450:4003:803::1007
p5499
aV2607:f8b0:400a:802::1006
p5500
aV2a00:1450:4001:803::100e
p5501
aV2a00:1450:4013:c01::64
p5502
aV2607:f8b0:400a:802::1008
p5503
aV2a00:1450:4001:804::1005
p5504
aV2607:f8b0:400a:802::1002
p5505
aV2607:f8b0:400a:802::1002
p5506
aV2607:f8b0:400a:802::1002
p5507
aV2607:f8b0:400a:802::1002
p5508
aV2607:f8b0:400a:802::1002
p5509
aV2607:f8b0:400a:802::1002
p5510
aV2607:f8b0:4001:c02::65
p5511
aV2607:f8b0:400a:802::1008
p5512
aV2a00:1450:400c:c00::8b
p5513
aV2607:f8b0:400a:802::1008
p5514
aV2607:f8b0:4004:806::1006
p5515
aV2607:f8b0:400a:802::1008
p5516
aV2607:f8b0:400a:802::1006
p5517
aV2607:f8b0:400a:802::1008
p5518
aV2607:f8b0:400a:802::1006
p5519
aV2607:f8b0:400a:802::1008
p5520
aV2404:6800:4005:800::1007
p5521
aV2607:f8b0:400a:802::1006
p5522
aV2a00:1450:4003:803::1004
p5523
aV2607:f8b0:400a:802::1006
p5524
aV2a00:1450:4002:802::1008
p5525
aV2607:f8b0:400a:802::1006
p5526
aV2607:f8b0:4004:806::1000
p5527
aV2607:f8b0:400a:802::1006
p5528
aV2607:f8b0:400a:802::1004
p5529
aV2607:f8b0:400a:802::1006
p5530
aV2607:f8b0:400a:802::1006
p5531
aV2607:f8b0:400a:802::1001
p5532
aV2a00:1450:400c:c00::71
p5533
aV2a00:1450:400c:c00::8b
p5534
aV2607:f8b0:400a:802::1003
p5535
aV2a00:1450:4001:802::100e
p5536
aV2404:6800:4006:806::1003
p5537
aV2607:f8b0:400a:802::1001
p5538
aV2607:f8b0:400a:802::1001
p5539
aV2607:f8b0:400a:802::1001
p5540
aV2607:f8b0:400a:802::1001
p5541
aV2607:f8b0:400a:802::1001
p5542
aV2607:f8b0:4000:800::1005
p5543
aV2607:f8b0:4006:808::1006
p5544
aV2607:f8b0:400a:802::1008
p5545
aV2a00:1450:4001:c02::64
p5546
aV2607:f8b0:400a:802::1003
p5547
aV2a00:1450:4017:801::1006
p5548
aV2607:f8b0:4001:c02::64
p5549
aV2a00:1450:4001:c02::64
p5550
aV2607:f8b0:400a:802::1003
p5551
aV2607:f8b0:400a:802::1008
p5552
aV2607:f8b0:400a:802::1009
p5553
aV2607:f8b0:400a:802::1000
p5554
aV2607:f8b0:400a:802::1009
p5555
aV2607:f8b0:400a:802::1000
p5556
aV2607:f8b0:400a:802::1009
p5557
aV2607:f8b0:400a:802::1000
p5558
aV2404:6800:4005:800::1002
p5559
aV2607:f8b0:400a:802::1009
p5560
aV2a00:1450:4013:c00::66
p5561
aV2a00:1450:4007:80a::1005
p5562
aV2607:f8b0:400a:802::1000
p5563
aV2607:f8b0:400a:802::1009
p5564
aV2607:f8b0:400a:802::1003
p5565
aV2607:f8b0:400a:802::1003
p5566
aV2607:f8b0:400a:802::1004
p5567
aV2a00:1450:4007:80a::1003
p5568
aV2607:f8b0:400a:802::1003
p5569
aV2a00:1450:4001:c02::65
p5570
aV2404:6800:4005:800::1006
p5571
aV2607:f8b0:400a:802::1003
p5572
aV2404:6800:4006:806::1004
p5573
aV2a00:1450:4003:803::1007
p5574
aV2607:f8b0:400a:802::1004
p5575
aV2607:f8b0:400a:802::1001
p5576
aV2607:f8b0:400a:802::1006
p5577
aV2a00:1450:4001:c02::8b
p5578
aV2607:f8b0:400d:c04::a0
p5579
aV2607:f8b0:400a:802::1006
p5580
aV2607:f8b0:400a:802::1006
p5581
aV2a00:1450:4002:802::1005
p5582
aV2a00:1450:400c:c00::64
p5583
aV2a03:2880:10:af09:face:b00c::1
p5584
aV2607:f8b0:400a:802::1005
p5585
aV2607:f8b0:4001:c02::84
p5586
aV2a00:1450:4007:80a::1000
p5587
aV2607:f8b0:400a:802::100a
p5588
aV2607:f8b0:400a:802::1001
p5589
aV2607:f8b0:400a:802::100a
p5590
aV2607:f8b0:400a:802::100c
p5591
aV2001:4860:400b:c01::8d
p5592
aV2607:f8b0:400a:802::1008
p5593
aV2607:f8b0:400a:802::1008
p5594
aV2a00:1450:4017:801::100e
p5595
aV2607:f8b0:400a:802::1003
p5596
aV2a00:1450:4001:c02::84
p5597
aV2607:f8b0:400a:802::100a
p5598
aV2607:f8b0:400a:802::100c
p5599
aV2607:f8b0:400a:802::100a
p5600
aV2607:f8b0:400a:802::100b
p5601
aV2607:f8b0:400a:802::100c
p5602
aV2607:f8b0:400a:802::100a
p5603
aV2607:f8b0:400a:802::100a
p5604
aV2607:f8b0:400a:802::100a
p5605
aV2607:f8b0:400a:802::100c
p5606
aV2607:f8b0:400a:802::100c
p5607
aV2607:f8b0:400a:802::100a
p5608
aV2a00:1450:400c:c00::84
p5609
aV2a00:1450:4001:c02::a0
p5610
aV2607:f8b0:4003:c05::bf
p5611
aV2607:f8b0:400d:c00::bf
p5612
aV2001:4860:400b:c01::bf
p5613
aV2607:f8b0:400d:c04::79
p5614
aV2a03:2880:11:1f04:face:b00c::1
p5615
aV2607:f8b0:400a:802::1016
p5616
aV2607:f8b0:400a:802::100c
p5617
aV2001:4860:400b:c01::5e
p5618
aV2001:4860:400b:c01::5e
p5619
aV2001:4860:400b:c01::5e
p5620
aV2001:4860:400b:c01::5e
p5621
aV2a00:1450:400c:c03::5e
p5622
aV2607:f8b0:400d:c06::a0
p5623
aV2001:4860:400b:c01::5e
p5624
aV2a00:1450:400c:c00::5e
p5625
aV2001:4860:400b:c01::5e
p5626
aV2001:4860:400b:c01::5e
p5627
aV2a00:1450:4002:802::101f
p5628
aV2a00:1450:4013:c00::5e
p5629
aV2001:4860:400b:c01::5e
p5630
aV2001:4860:400b:c01::5e
p5631
aV2001:4860:400b:c01::63
p5632
aV2001:4860:400b:c01::5e
p5633
aV2001:4860:400b:c01::5e
p5634
aV2001:4860:400b:c01::5e
p5635
aV2001:4860:400b:c01::5e
p5636
aV2001:4860:400b:c01::5e
p5637
aV2607:f8b0:400c:c03::5e
p5638
aV2a00:1450:4013:c01::5e
p5639
aV2001:4860:400b:c01::5e
p5640
aV2001:4860:400b:c01::5e
p5641
aV2607:f8b0:4009:800::100f
p5642
aV2001:4860:400b:c01::5e
p5643
aV2a00:1450:4001:c02::5e
p5644
aV2001:4860:400b:c01::5e
p5645
aV2001:4860:400b:c01::5e
p5646
aV2001:4860:400b:c01::5e
p5647
aV2001:4860:400b:c01::5e
p5648
aV2001:4860:400b:c01::5e
p5649
aV2001:4860:400b:c01::5e
p5650
aV2a00:1450:400c:c00::5e
p5651
aV2001:4860:400b:c01::5e
p5652
aV2607:f8b0:4009:800::1018
p5653
aV2607:f8b0:4004:800::101f
p5654
aV2a00:1450:400c:c03::5e
p5655
aV2a00:1450:4002:802::1017
p5656
aV2a00:1450:4007:80a::1017
p5657
aV2a00:1450:4002:802::1018
p5658
aV2001:4860:400b:c01::5f
p5659
aV2001:4860:400b:c01::69
p5660
aV2607:f8b0:400a:802::100c
p5661
aV2001:4860:400b:c01::8d
p5662
aV2607:f8b0:400a:802::1013
p5663
aV2001:4860:400b:c01::52
p5664
aV2a00:1450:4002:802::100a
p5665
aV2001:4860:400b:c01::a0
p5666
aV2607:f8b0:400a:802::1017
p5667
aV2001:4860:400b:c01::a0
p5668
aV2607:f8b0:4004:806::100a
p5669
aV2001:4860:400b:c01::68
p5670
aV2607:f8b0:400d:c04::55
p5671
aV2001:4860:400b:c01::55
p5672
aa.