(lp0
(lp1
S'google.com'
p2
aS'accounts.l.google.com'
p3
aS'google-public-dns-a.google.com'
p4
aS'm.google.com'
p5
aS'google-public-dns-b.google.com'
p6
aS'wire.l.google.com'
p7
aS'accounts.google.com'
p8
aS'accounts.google.com.hk'
p9
aS'mobile.l.google.com'
p10
aS'm.google.com.hk'
p11
aS'services.google.com'
p12
aS'ipv6.google.com'
p13
aS'ipv6.google.com'
p14
aS'jmt0.google.com'
p15
aS'desktop.google.com.hk'
p16
aS'ipv6.google.co.jp'
p17
aS'goto.google.com'
p18
aS'ipv6.l.google.com'
p19
aS'ipv6.google.co.jp'
p20
aS'ipv6.google.com.hk'
p21
aS'www.google.com.hk'
p22
aS'ipv6.google.com.hk'
p23
aS'google.com.hk'
p24
aS'news.google.cn'
p25
aS'picasaweb.google.com.hk'
p26
aS'ipv6cn.l.google.com'
p27
aS'www.googlechinawebmaster.com'
p28
aS'www.google.cn'
p29
aS'id.google.com.hk'
p30
aS'google.cn'
p31
aS'g.cn'
p32
aS'ipv6.google.cn'
p33
aS'video.google.cn'
p34
aS'ipv6.google.cn'
p35
aS'music.googleusercontent.cn'
p36
aS'265.com'
p37
aS'www.google.co.jp'
p38
aS'm.google.cn'
p39
aS'picasaweb.google.com.tw'
p40
aS'www.265.com'
p41
aS'www.google.com.tw'
p42
aS'www.google.ae'
p43
aS'www.google.com.ar'
p44
aS'www.google.at'
p45
aS'www.google.com.au'
p46
aS'www.google.be'
p47
aS'www.google.com.br'
p48
aS'www.google.ca'
p49
aS'www.google.ch'
p50
aS'22-wave-opensocial.googleusercontent.com'
p51
aS'www.google.fr'
p52
aS'www.google.cn'
p53
aS'www.google.co.il'
p54
aS'www.google.co.kr'
p55
aS'www.google.com.gr'
p56
aS'www.google.fi'
p57
aS'www.google.co.jp'
p58
aS'www.google.de'
p59
aS'www.google.it'
p60
aS'www.google.co.in'
p61
aS'www.google.lv'
p62
aS'www.google.com.my'
p63
aS'www.google.co.nz'
p64
aS'www.google.com.ly'
p65
aS'www.google.lt'
p66
aS'www.google.nl'
p67
aS'www.google.com.ph'
p68
aS'www.google.com.pe'
p69
aS'www.google.pl'
p70
aS'www.google.com.pk'
p71
aS'www.google.ro'
p72
aS'www.google.co.uk'
p73
aS'www.google.pt'
p74
aS'www.google.com.ua'
p75
aS'www.google.com.sg'
p76
aS'www0.l.google.com'
p77
aS'www.google.com.vn'
p78
aS'www1.l.google.com'
p79
aS'www.google.com.tr'
p80
aS'www.google.com.ru'
p81
aS'www.google.co.za'
p82
aS'www.google.co.ve'
p83
aS'www.google.com'
p84
aS'www2.l.google.com'
p85
aS'encrypted.google.com'
p86
aS'www.l.google.com'
p87
aS'www3.l.google.com'
p88
aS'www4.l.google.com'
p89
aS'suggestqueries.google.com'
p90
aS'gxc.google.com'
p91
aS'suggestqueries.l.google.com'
p92
aS'gxc.google.com.hk'
p93
aS'investor.google.com'
p94
aS'clients1.google.com'
p95
aS'clients5.google.com'
p96
aS'clients4.google.com'
p97
aS'clients2.google.com'
p98
aS'clients6.google.com'
p99
aS'23-wave-opensocial.googleusercontent.com'
p100
aS'clients3.google.com'
p101
aS'encrypted-tbn0.google.com'
p102
aS'encrypted-tbn2.google.com'
p103
aS'clients1.google.com.tw'
p104
aS'clients1.google.com.hk'
p105
aS'clients.l.google.com'
p106
aS'linkhelp.clients.google.com'
p107
aS'encrypted-tbn1.google.com'
p108
aS'encrypted-tbn3.google.com'
p109
aS'support.google.com'
p110
aS'encrypted-tbn.l.google.com'
p111
aS'ghs.l.google.com'
p112
aS'mobile.google.com'
p113
aS'ghs46.google.com'
p114
aS'ghs.l.google.com'
p115
aS'ghs.google.com'
p116
aS'apps.google.com'
p117
aS'mobile-gtalk.l.google.com'
p118
aS'mobile.google.com.hk'
p119
aS'googlemashups.com'
p120
aS'ghs46.l.google.com'
p121
aS'productideas.appspot.com'
p122
aS'appengine.google.com'
p123
aS'appspot.l.google.com'
p124
aS'www.googlemashups.com'
p125
aS'storegadgetwizard.appspot.com'
p126
aS'codereview.appspot.com'
p127
aS'moderator.appspot.com'
p128
aS'haiticrisis.appspot.com'
p129
aS'gv-gadget.appspot.com'
p130
aS'guru.google.com'
p131
aS'i18napis.appspot.com'
p132
aS'project-slingshot-gp.appspot.com'
p133
aS'googcloudlabs.appspot.com'
p134
aS'googlesharedspaces.appspot.com'
p135
aS'r3269-dot-latest-dot-project-slingshot-gp.appspot.com'
p136
aS'evolutionofweb.appspot.com'
p137
aS'yt-debates.appspot.com'
p138
aS'newsfeed-dot-latest-dot-rovio-ad-engine.appspot.com'
p139
aS'guru.google.co.th'
p140
aS'answers.google.com'
p141
aS'wenda.google.com.hk'
p142
aS'blogsearch.google.com'
p143
aS'blogsearch.google.com.tw'
p144
aS'blogsearch.google.com.hk'
p145
aS'blogger.com'
p146
aS'buttons.blogger.com'
p147
aS'beta.blogger.com'
p148
aS'www.blogger.com'
p149
aS'blogsearch.google.cn'
p150
aS'24-wave-opensocial.googleusercontent.com'
p151
aS'draft.blogger.com'
p152
aS'bp2.blogger.com'
p153
aS'help.blogger.com'
p154
aS'buzz.blogger.com'
p155
aS'status.blogger.com'
p156
aS'photos1.blogger.com'
p157
aS'bp1.blogger.com'
p158
aS'bloggerphotos.l.google.com'
p159
aS'bp3.blogger.com'
p160
aS'bp0.blogger.com'
p161
aS'www1.blogblog.com'
p162
aS'www2.blogblog.com'
p163
aS'img.blogblog.com'
p164
aS'blogger.l.google.com'
p165
aS'img2.blogblog.com'
p166
aS'www.blogblog.com'
p167
aS'www2.blogger.com'
p168
aS'img1.blogblog.com'
p169
aS'blogger.google.com'
p170
aS'www.textcube.com'
p171
aS'blogsofnote.blogspot.com'
p172
aS'1.bp.blogspot.com'
p173
aS'knownissues.blogspot.com'
p174
aS'www.blogspot.com'
p175
aS'blogger.l.google.com'
p176
aS'blogspot.com'
p177
aS'2.bp.blogspot.com'
p178
aS'3.bp.blogspot.com'
p179
aS'4.bp.blogspot.com'
p180
aS'bloggertemplatespreview.blogspot.com'
p181
aS'adsense-zhs.blogspot.com'
p182
aS'adwordsapi.blogspot.com'
p183
aS'android-developers.blogspot.com'
p184
aS'apacdeveloper.blogspot.com'
p185
aS'chrome.blogspot.com'
p186
aS'booksearch.blogspot.com'
p187
aS'doubleclickpublishersapi.blogspot.com'
p188
aS'emeadev.blogspot.com'
p189
aS'gearsblog.blogspot.com'
p190
aS'google-opensource.blogspot.com'
p191
aS'google-code-featured.blogspot.com'
p192
aS'google-entertainment-it.blogspot.com'
p193
aS'googleappsdeveloper.blogspot.com'
p194
aS'googleajaxsearchapi.blogspot.com'
p195
aS'googleappengine.blogspot.com'
p196
aS'googleblog.blogspot.com'
p197
aS'googlecheckout.blogspot.com'
p198
aS'googlecheckoutapi.blogspot.com'
p199
aS'googlechinablog.blogspot.com'
p200
aS'25-wave-opensocial.googleusercontent.com'
p201
aS'googleresearch.blogspot.com'
p202
aS'googlemashupeditor.blogspot.com'
p203
aS'googlechromereleases.blogspot.com'
p204
aS'googleplusplatform.blogspot.com'
p205
aS'googlemobile.blogspot.com'
p206
aS'googlecustomsearch.blogspot.com'
p207
aS'googletalk.blogspot.com'
p208
aS'googleenterprise.blogspot.com'
p209
aS'googlecode.blogspot.com'
p210
aS'googlegeodevelopers.blogspot.com'
p211
aS'googlewebmastercentral.blogspot.com'
p212
aS'igoogledeveloper.blogspot.com'
p213
aS'youtube-global.blogspot.com'
p214
aS'gmailblog.blogspot.com'
p215
aS'googlewebtoolkit.blogspot.com'
p216
aS'googlewebmaster-cn.blogspot.com'
p217
aS'golangblog.blogspot.com'
p218
aS'webmproject.blogspot.com'
p219
aS'blogspot.l.google.com'
p220
aS'books.google.com'
p221
aS'books.google.cn'
p222
aS'bks2.books.google.com'
p223
aS'books.google.com.hk'
p224
aS'bks5.books.google.com'
p225
aS'bks4.books.google.com'
p226
aS'bks0.books.google.com'
p227
aS'bks1.books.google.com'
p228
aS'bks6.books.google.com'
p229
aS'bks3.books.google.com'
p230
aS'bks7.books.google.com'
p231
aS'bks8.books.google.com'
p232
aS'bks0.books.google.com.hk'
p233
aS'bks9.books.google.com'
p234
aS'bks1.books.google.com.hk'
p235
aS'bks3.books.google.com.hk'
p236
aS'bks4.books.google.com.hk'
p237
aS'bks10.books.google.com'
p238
aS'checkout.google.com'
p239
aS'bks5.books.google.com.hk'
p240
aS'checkout.l.google.com'
p241
aS'bks6.books.google.com.hk'
p242
aS'bks2.books.google.com.hk'
p243
aS'bks7.books.google.com.hk'
p244
aS'bks8.books.google.com.hk'
p245
aS'calendar.google.com'
p246
aS'bks9.books.google.com.hk'
p247
aS'bks10.books.google.com.hk'
p248
aS'buzz.google.com'
p249
aS'26-wave-opensocial.googleusercontent.com'
p250
aS'wallet.google.com'
p251
aS'browsersync.google.com'
p252
aS'browsersync.l.google.com'
p253
aS'toolbarqueries.google.com'
p254
aS'toolbarqueries.google.com.hk'
p255
aS'toolbarqueries.l.google.com'
p256
aS'chrome.angrybirds.com'
p257
aS'build.chromium.org'
p258
aS'codereview.chromium.org'
p259
aS'chrome.google.com'
p260
aS'chromium.org'
p261
aS'toolbarqueries.clients.google.com'
p262
aS'code.google.com'
p263
aS'www.chromium.org'
p264
aS'code.l.google.com'
p265
aS'goto.ext.google.com'
p266
aS'dev.chromium.org'
p267
aS'blog.chromium.org'
p268
aS'welcome-cros.appspot.com'
p269
aS'desktop.google.com'
p270
aS'desktop.l.google.com'
p271
aS'gmaps-samples-flash.googlecode.com'
p272
aS'earth-api-samples.googlecode.com'
p273
aS'www.googlesource.com'
p274
aS'google-code-feed-gadget.googlecode.com'
p275
aS'android.googlesource.com'
p276
aS'googleappengine.googlecode.com'
p277
aS'closure-library.googlecode.com'
p278
aS'googlecode.l.google.com'
p279
aS'chromium.googlecode.com'
p280
aS'directory.google.com'
p281
aS'docs.google.com'
p282
aS'dir.google.com'
p283
aS'docs0.google.com'
p284
aS'drive.google.com'
p285
aS'docs1.google.com'
p286
aS'docs2.google.com'
p287
aS'docs4.google.com'
p288
aS'docs3.google.com'
p289
aS'docs6.google.com'
p290
aS'docs5.google.com'
p291
aS'docs7.google.com'
p292
aS'docs8.google.com'
p293
aS'docs9.google.com'
p294
aS'0.docs.google.com'
p295
aS'2.docs.google.com'
p296
aS'1.docs.google.com'
p297
aS'3.docs.google.com'
p298
aS'4.docs.google.com'
p299
aS'5.docs.google.com'
p300
aS'27-wave-opensocial.googleusercontent.com'
p301
aS'15.docs.google.com'
p302
aS'12.docs.google.com'
p303
aS'14.docs.google.com'
p304
aS'10.docs.google.com'
p305
aS'11.docs.google.com'
p306
aS'6.docs.google.com'
p307
aS'13.docs.google.com'
p308
aS'8.docs.google.com'
p309
aS'9.docs.google.com'
p310
aS'7.docs.google.com'
p311
aS'2.drive.google.com'
p312
aS'6.drive.google.com'
p313
aS'7.drive.google.com'
p314
aS'16.docs.google.com'
p315
aS'1.drive.google.com'
p316
aS'3.drive.google.com'
p317
aS'0.drive.google.com'
p318
aS'4.drive.google.com'
p319
aS'5.drive.google.com'
p320
aS'8.drive.google.com'
p321
aS'9.drive.google.com'
p322
aS'11.drive.google.com'
p323
aS'12.drive.google.com'
p324
aS'13.drive.google.com'
p325
aS'10.drive.google.com'
p326
aS'15.drive.google.com'
p327
aS'14.drive.google.com'
p328
aS'browserchannel-docs.l.google.com'
p329
aS'16.drive.google.com'
p330
aS'spreadsheet.google.com'
p331
aS'spreadsheets.google.com'
p332
aS'spreadsheets0.google.com'
p333
aS'spreadsheets1.google.com'
p334
aS'spreadsheets2.google.com'
p335
aS'spreadsheets3.google.com'
p336
aS'spreadsheets7.google.com'
p337
aS'writely-com.l.google.com'
p338
aS'spreadsheets5.google.com'
p339
aS'spreadsheets4.google.com'
p340
aS'spreadsheets6.google.com'
p341
aS'spreadsheets8.google.com'
p342
aS'spreadsheets.l.google.com'
p343
aS'spreadsheets9.google.com'
p344
aS'spreadsheets-china.l.google.com'
p345
aS'writely.google.com'
p346
aS'writely-china.l.google.com'
p347
aS'writely.l.google.com'
p348
aS'28-wave-opensocial.googleusercontent.com'
p349
aS'upload.docs.google.com'
p350
aS'dl.google.com'
p351
aS'geoauth.google.com'
p352
aS'chatenabled.mail.google.com'
p353
aS'dl-ssl.google.com'
p354
aS'talk.gmail.com'
p355
aS'earth.google.com'
p356
aS'auth.keyhole.com'
p357
aS'googlemail.l.google.com'
p358
aS'fusion.google.com'
p359
aS'mail.google.com'
p360
aS'finance.google.com'
p361
aS'dl.l.google.com'
p362
aS'filetransferenabled.mail.google.com'
p363
aS'gmail.google.com'
p364
aS'gmail.com'
p365
aS'gmail-pop.l.google.com'
p366
aS'm.gmail.com'
p367
aS'smtp1.google.com'
p368
aS'smtp2.google.com'
p369
aS'smtp3.google.com'
p370
aS'www.gmail.com'
p371
aS'smtp-out.google.com'
p372
aS'smtp-out3.google.com'
p373
aS'b.googlemail.l.google.com'
p374
aS'pop.gmail.com'
p375
aS'm.googlemail.com'
p376
aS'pop.googlemail.com'
p377
aS'googlemail-pop.l.google.com'
p378
aS'smtp.gmail.com'
p379
aS'gmail-smtp-msa.l.google.com'
p380
aS'googlemail-smtp.l.google.com'
p381
aS'groups.google.cn'
p382
aS'smtp.googlemail.com'
p383
aS'imap.gmail.com'
p384
aS'gmail-smtp-in.l.google.com'
p385
aS'gmail-imap.l.google.com'
p386
aS'gmr-smtp-in.l.google.com'
p387
aS'gmail-smtp.l.google.com'
p388
aS'imap.googlemail.com'
p389
aS'groups.google.com'
p390
aS'googlemail-imap.l.google.com'
p391
aS'groups-beta.google.com'
p392
aS'groups.google.com.hk'
p393
aS'productforums.google.com'
p394
aS'blob-s-docs.googlegroups.com'
p395
aS'images.google.com'
p396
aS'health.google.com'
p397
aS'groups.l.google.com'
p398
aS'images.google.com.hk'
p399
aS'images.l.google.com'
p400
aS'29-wave-opensocial.googleusercontent.com'
p401
aS'tbn4.google.com'
p402
aS'tbn5.google.com'
p403
aS'tbn6.google.com'
p404
aS'tbn0.google.com'
p405
aS'labs.google.cn'
p406
aS'tbn1.google.com'
p407
aS'tbn3.google.com'
p408
aS'www.googlelabs.com'
p409
aS'labs.google.com'
p410
aS'knol.google.com'
p411
aS'bodybrowser.googlelabs.com'
p412
aS'browsersize.googlelabs.com'
p413
aS'tbn2.google.com'
p414
aS'guru.googlelabs.com'
p415
aS'image-swirl.googlelabs.com'
p416
aS'followfinder.googlelabs.com'
p417
aS'juliamap.googlelabs.com'
p418
aS'earthengine.googlelabs.com'
p419
aS'citytours.googlelabs.com'
p420
aS'fastflip.googlelabs.com'
p421
aS'correlate.googlelabs.com'
p422
aS'listen.googlelabs.com'
p423
aS'datawiki.googlelabs.com'
p424
aS'newstimeline.googlelabs.com'
p425
aS'relatedlinks.googlelabs.com'
p426
aS'storegadget.googlelabs.com'
p427
aS'livingstories.googlelabs.com'
p428
aS'ngrams.googlelabs.com'
p429
aS'pagespeed.googlelabs.com'
p430
aS'scribe.googlelabs.com'
p431
aS'similar-images.googlelabs.com'
p432
aS'swiffy.googlelabs.com'
p433
aS'scriptconv.googlelabs.com'
p434
aS'tables.googlelabs.com'
p435
aS'maps.google.com'
p436
aS'maps.google.com.hk'
p437
aS'mars.google.com'
p438
aS'maps.google.com.tw'
p439
aS'maps-api-ssl.google.com'
p440
aS'local.google.com'
p441
aS'ditu.google.com'
p442
aS'map.google.com'
p443
aS'maps.l.google.com'
p444
aS'kh.google.com'
p445
aS'kh.l.google.com'
p446
aS'khmdb.google.com'
p447
aS'khm0.google.com'
p448
aS'khm.google.com'
p449
aS'khm.l.google.com'
p450
aS'30-wave-opensocial.googleusercontent.com'
p451
aS'cbk0.google.com'
p452
aS'cbk1.google.com'
p453
aS'khm3.google.com'
p454
aS'khms1.google.com'
p455
aS'khm2.google.com'
p456
aS'khms.google.com'
p457
aS'khms0.google.com'
p458
aS'cbk3.google.com'
p459
aS'khms2.google.com'
p460
aS'khm1.google.com'
p461
aS'cbk2.google.com'
p462
aS'mw2.google.com'
p463
aS'khms.l.google.com'
p464
aS'mw1.google.com'
p465
aS'khms3.google.com'
p466
aS'cbks2.google.com'
p467
aS'cbks0.google.com'
p468
aS'cbks3.google.com'
p469
aS'cbks1.google.com'
p470
aS'mt.google.com'
p471
aS'mt.l.google.com'
p472
aS'mt1.google.com'
p473
aS'mt0.google.com'
p474
aS'id.google.com'
p475
aS'csi.l.google.com'
p476
aS'gg.google.com'
p477
aS'mt3.google.com'
p478
aS'mt2.google.com'
p479
aS'id.google.cn'
p480
aS'gg.google.cn'
p481
aS'id.l.google.com'
p482
aS'mt.google.cn'
p483
aS'mt0.google.cn'
p484
aS'ditu.google.cn'
p485
aS'mt3.google.cn'
p486
aS'mts.google.com'
p487
aS'mt1.google.cn'
p488
aS'mts0.google.com'
p489
aS'mts1.google.com'
p490
aS'mt2.google.cn'
p491
aS'mts2.google.com'
p492
aS'mts3.google.com'
p493
aS'mobilemaps.clients.google.com'
p494
aS'maps.gstatic.cn'
p495
aS't.doc-0-0-sj.sj.googleusercontent.com'
p496
aS'music.google.com'
p497
aS'music-streaming.l.google.com'
p498
aS'31-wave-opensocial.googleusercontent.com'
p499
aS'mts.l.google.com'
p500
aS'music.googleusercontent.com'
p501
aS'uploadsj.clients.google.com'
p502
aS'nt0.ggpht.com'
p503
aS'news.google.com.hk'
p504
aS'nt4.ggpht.com'
p505
aS'nt5.ggpht.com'
p506
aS'news.google.com'
p507
aS'news.l.google.com'
p508
aS'large-uploads.l.google.com'
p509
aS'nt2.ggpht.com'
p510
aS'nt3.ggpht.com'
p511
aS'nt1.ggpht.com'
p512
aS'news.google.com.tw'
p513
aS'www.orkut.com'
p514
aS'img2.orkut.com'
p515
aS'orkut-opensocial.l.google.com'
p516
aS'orkut-fe.l.google.com'
p517
aS'img1.orkut.com'
p518
aS'www.orkut.gmodules.com'
p519
aS'img5.orkut.com'
p520
aS'img4.orkut.com'
p521
aS'img3.orkut.com'
p522
aS'img6.orkut.com'
p523
aS'img8.orkut.com'
p524
aS'static1.orkut.com'
p525
aS'img7.orkut.com'
p526
aS'img9.orkut.com'
p527
aS'promote.orkut.com'
p528
aS'static2.orkut.com'
p529
aS'orkut-images.l.google.com'
p530
aS'static4.orkut.com'
p531
aS'orkut-static.l.google.com'
p532
aS'static3.orkut.com'
p533
aS'orkut-promote.l.google.com'
p534
aS'help.orkut.com'
p535
aS'en.blog.orkut.com'
p536
aS'officialorkutblog.blogspot.com'
p537
aS'pack.google.com'
p538
aS'cache.l.google.com'
p539
aS'cache.pack.google.com'
p540
aS'blog.orkut.com'
p541
aS'pack.google.cn'
p542
aS'photos.google.com'
p543
aS'picasa.google.com'
p544
aS'lh5.ggpht.com'
p545
aS'picasaweb.l.google.com'
p546
aS'picasaweb.google.com'
p547
aS'lh6.ggpht.com'
p548
aS'lh4.ggpht.com'
p549
aS'32-wave-opensocial.googleusercontent.com'
p550
aS'lh3.ggpht.com'
p551
aS'lh5.google.com'
p552
aS'plus.google.com.hk'
p553
aS'lh2.l.google.com'
p554
aS'photos-ugc.l.google.com'
p555
aS'plus.url.google.com.hk'
p556
aS'lh3.google.com'
p557
aS'lh2.google.com'
p558
aS'lh4.google.com'
p559
aS'lh6.google.com'
p560
aS'plusone.google.com'
p561
aS'plus.google.com'
p562
aS'profiles.google.com'
p563
aS'developers.google.com'
p564
aS'plus.url.google.com'
p565
aS'reader.google.com'
p566
aS'scholar.google.com'
p567
aS'scholar.google.com.hk'
p568
aS'scholar.google.com.tw'
p569
aS'scholar.l.google.com'
p570
aS'sb-ssl.google.com'
p571
aS'sb-ssl.l.google.com'
p572
aS'sb.google.com'
p573
aS'sketchup.google.com'
p574
aS'safebrowsing.google.com'
p575
aS'sketchup.l.google.com'
p576
aS'www.googlestore.com'
p577
aS'sb.l.google.com'
p578
aS'default.talk.google.com'
p579
aS'safebrowsing-cache.google.com'
p580
aS'rtmp0.google.com'
p581
aS'users.talk.google.com'
p582
aS'safebrowsing.clients.google.com'
p583
aS'safebrowsing.cache.l.google.com'
p584
aS'sandbox.google.com'
p585
aS'scholar.google.cn'
p586
aS'sites.google.com'
p587
aS'talk.google.com'
p588
aS'gsamplemaps.googlepages.com'
p589
aS'talkgadget.google.com'
p590
aS'mobile-gtalk.l.google.com'
p591
aS'talk.l.google.com'
p592
aS'mtalk.google.com'
p593
aS'tools.google.com'
p594
aS'toolbar.google.com'
p595
aS'toolbar.google.com.hk'
p596
aS'translate.google.com'
p597
aS'tools.l.google.com'
p598
aS'translate.google.com.hk'
p599
aS'translate.google.com.tw'
p600
aS'33-wave-opensocial.googleusercontent.com'
p601
aS'translate.google.cn'
p602
aS'video.google.com.tw'
p603
aS'0.gvt0.com'
p604
aS'video.google.com.hk'
p605
aS'trends.google.com'
p606
aS'2.gvt0.com'
p607
aS'vp.video.google.com'
p608
aS'1.gvt0.com'
p609
aS'vp.video.l.google.com'
p610
aS'video.l.google.com'
p611
aS'qwqy.vp.video.l.google.com'
p612
aS'video.google.com'
p613
aS'3.gvt0.com'
p614
aS'nz.vp.video.l.google.com'
p615
aS'nztdug.vp.video.l.google.com'
p616
aS'pr.vp.video.l.google.com'
p617
aS'ug.vp.video.l.google.com'
p618
aS'vp01.video.l.google.com'
p619
aS'vp02.video.l.google.com'
p620
aS'vp03.video.l.google.com'
p621
aS'vp04.video.l.google.com'
p622
aS'vp05.video.l.google.com'
p623
aS'vp06.video.l.google.com'
p624
aS'vp07.video.l.google.com'
p625
aS'vp08.video.l.google.com'
p626
aS'vp09.video.l.google.com'
p627
aS'vp10.video.l.google.com'
p628
aS'vp11.video.l.google.com'
p629
aS'vp12.video.l.google.com'
p630
aS'vp13.video.l.google.com'
p631
aS'vp14.video.l.google.com'
p632
aS'vp15.video.l.google.com'
p633
aS'vp16.video.l.google.com'
p634
aS'vp17.video.l.google.com'
p635
aS'vp18.video.l.google.com'
p636
aS'vp19.video.l.google.com'
p637
aS'vp20.video.l.google.com'
p638
aS'4.gvt0.com'
p639
aS'upload.video.google.com'
p640
aS'v1.lscache4.googlevideo.com'
p641
aS'video-stats.video.google.com'
p642
aS'sslvideo-upload.l.google.com'
p643
aS'5.gvt0.com'
p644
aS'v1.lscache5.googlevideo.com'
p645
aS'v1.lscache3.googlevideo.com'
p646
aS'v1.lscache2.googlevideo.com'
p647
aS'v1.lscache1.googlevideo.com'
p648
aS'v1.lscache6.googlevideo.com'
p649
aS'v1.lscache7.googlevideo.com'
p650
aS'34-wave-opensocial.googleusercontent.com'
p651
aS'v2.lscache2.googlevideo.com'
p652
aS'v1.lscache8.googlevideo.com'
p653
aS'v2.lscache1.googlevideo.com'
p654
aS'v2.lscache3.googlevideo.com'
p655
aS'v2.lscache7.googlevideo.com'
p656
aS'v2.lscache8.googlevideo.com'
p657
aS'v2.lscache4.googlevideo.com'
p658
aS'v2.lscache5.googlevideo.com'
p659
aS'v2.lscache6.googlevideo.com'
p660
aS'v3.lscache1.googlevideo.com'
p661
aS'v3.lscache2.googlevideo.com'
p662
aS'v3.lscache4.googlevideo.com'
p663
aS'v3.lscache6.googlevideo.com'
p664
aS'v3.lscache5.googlevideo.com'
p665
aS'v3.lscache8.googlevideo.com'
p666
aS'v3.lscache3.googlevideo.com'
p667
aS'v4.lscache2.googlevideo.com'
p668
aS'v3.lscache7.googlevideo.com'
p669
aS'v4.lscache3.googlevideo.com'
p670
aS'v4.lscache1.googlevideo.com'
p671
aS'v4.lscache5.googlevideo.com'
p672
aS'v5.lscache1.googlevideo.com'
p673
aS'v4.lscache8.googlevideo.com'
p674
aS'v4.lscache6.googlevideo.com'
p675
aS'v4.lscache4.googlevideo.com'
p676
aS'v5.lscache4.googlevideo.com'
p677
aS'v4.lscache7.googlevideo.com'
p678
aS'v5.lscache3.googlevideo.com'
p679
aS'v5.lscache2.googlevideo.com'
p680
aS'v5.lscache5.googlevideo.com'
p681
aS'v5.lscache7.googlevideo.com'
p682
aS'v5.lscache6.googlevideo.com'
p683
aS'v6.lscache2.googlevideo.com'
p684
aS'v5.lscache8.googlevideo.com'
p685
aS'v6.lscache3.googlevideo.com'
p686
aS'v6.lscache1.googlevideo.com'
p687
aS'v6.lscache5.googlevideo.com'
p688
aS'v6.lscache4.googlevideo.com'
p689
aS'v6.lscache7.googlevideo.com'
p690
aS'v6.lscache6.googlevideo.com'
p691
aS'v7.lscache1.googlevideo.com'
p692
aS'v6.lscache8.googlevideo.com'
p693
aS'v7.lscache4.googlevideo.com'
p694
aS'v7.lscache5.googlevideo.com'
p695
aS'v7.lscache3.googlevideo.com'
p696
aS'v7.lscache2.googlevideo.com'
p697
aS'v7.lscache8.googlevideo.com'
p698
aS'35-wave-opensocial.googleusercontent.com'
p699
aS'v7.lscache6.googlevideo.com'
p700
aS'v7.lscache7.googlevideo.com'
p701
aS'v8.lscache6.googlevideo.com'
p702
aS'v8.lscache2.googlevideo.com'
p703
aS'v8.lscache5.googlevideo.com'
p704
aS'v8.lscache1.googlevideo.com'
p705
aS'v8.lscache3.googlevideo.com'
p706
aS'v8.lscache8.googlevideo.com'
p707
aS'v9.lscache1.googlevideo.com'
p708
aS'v9.lscache2.googlevideo.com'
p709
aS'v8.lscache7.googlevideo.com'
p710
aS'v8.lscache4.googlevideo.com'
p711
aS'v9.lscache4.googlevideo.com'
p712
aS'v9.lscache3.googlevideo.com'
p713
aS'v10.lscache2.googlevideo.com'
p714
aS'v10.lscache1.googlevideo.com'
p715
aS'v9.lscache8.googlevideo.com'
p716
aS'v10.lscache4.googlevideo.com'
p717
aS'v10.lscache3.googlevideo.com'
p718
aS'v9.lscache6.googlevideo.com'
p719
aS'v9.lscache5.googlevideo.com'
p720
aS'v9.lscache7.googlevideo.com'
p721
aS'v10.lscache7.googlevideo.com'
p722
aS'v10.lscache6.googlevideo.com'
p723
aS'v10.lscache8.googlevideo.com'
p724
aS'v10.lscache5.googlevideo.com'
p725
aS'v11.lscache1.googlevideo.com'
p726
aS'v11.lscache3.googlevideo.com'
p727
aS'v11.lscache4.googlevideo.com'
p728
aS'v11.lscache2.googlevideo.com'
p729
aS'v11.lscache5.googlevideo.com'
p730
aS'v11.lscache6.googlevideo.com'
p731
aS'v11.lscache7.googlevideo.com'
p732
aS'v12.lscache2.googlevideo.com'
p733
aS'v12.lscache1.googlevideo.com'
p734
aS'v11.lscache8.googlevideo.com'
p735
aS'v12.lscache3.googlevideo.com'
p736
aS'v12.lscache6.googlevideo.com'
p737
aS'v12.lscache4.googlevideo.com'
p738
aS'v12.lscache5.googlevideo.com'
p739
aS'v12.lscache7.googlevideo.com'
p740
aS'v12.lscache8.googlevideo.com'
p741
aS'v13.lscache1.googlevideo.com'
p742
aS'v13.lscache2.googlevideo.com'
p743
aS'v13.lscache5.googlevideo.com'
p744
aS'v13.lscache3.googlevideo.com'
p745
aS'v13.lscache7.googlevideo.com'
p746
aS'v14.lscache1.googlevideo.com'
p747
aS'v13.lscache4.googlevideo.com'
p748
aS'v13.lscache6.googlevideo.com'
p749
aS'v13.lscache8.googlevideo.com'
p750
aS'36-wave-opensocial.googleusercontent.com'
p751
aS'v14.lscache2.googlevideo.com'
p752
aS'v14.lscache5.googlevideo.com'
p753
aS'v14.lscache7.googlevideo.com'
p754
aS'v14.lscache4.googlevideo.com'
p755
aS'v14.lscache6.googlevideo.com'
p756
aS'v14.lscache8.googlevideo.com'
p757
aS'v15.lscache1.googlevideo.com'
p758
aS'v14.lscache3.googlevideo.com'
p759
aS'v15.lscache3.googlevideo.com'
p760
aS'v15.lscache2.googlevideo.com'
p761
aS'v15.lscache5.googlevideo.com'
p762
aS'v15.lscache7.googlevideo.com'
p763
aS'v15.lscache4.googlevideo.com'
p764
aS'v16.lscache1.googlevideo.com'
p765
aS'v16.lscache4.googlevideo.com'
p766
aS'v16.lscache2.googlevideo.com'
p767
aS'v15.lscache6.googlevideo.com'
p768
aS'v16.lscache3.googlevideo.com'
p769
aS'v15.lscache8.googlevideo.com'
p770
aS'v16.lscache5.googlevideo.com'
p771
aS'v16.lscache7.googlevideo.com'
p772
aS'v16.lscache6.googlevideo.com'
p773
aS'v17.lscache1.googlevideo.com'
p774
aS'v16.lscache8.googlevideo.com'
p775
aS'v17.lscache3.googlevideo.com'
p776
aS'v17.lscache4.googlevideo.com'
p777
aS'v17.lscache2.googlevideo.com'
p778
aS'v17.lscache6.googlevideo.com'
p779
aS'v17.lscache5.googlevideo.com'
p780
aS'v17.lscache7.googlevideo.com'
p781
aS'v17.lscache8.googlevideo.com'
p782
aS'v18.lscache3.googlevideo.com'
p783
aS'v18.lscache2.googlevideo.com'
p784
aS'v18.lscache1.googlevideo.com'
p785
aS'v18.lscache4.googlevideo.com'
p786
aS'v18.lscache6.googlevideo.com'
p787
aS'v18.lscache7.googlevideo.com'
p788
aS'v18.lscache5.googlevideo.com'
p789
aS'v18.lscache8.googlevideo.com'
p790
aS'v19.lscache1.googlevideo.com'
p791
aS'v19.lscache4.googlevideo.com'
p792
aS'v19.lscache7.googlevideo.com'
p793
aS'v19.lscache2.googlevideo.com'
p794
aS'v19.lscache8.googlevideo.com'
p795
aS'v19.lscache3.googlevideo.com'
p796
aS'v19.lscache6.googlevideo.com'
p797
aS'v19.lscache5.googlevideo.com'
p798
aS'v20.lscache1.googlevideo.com'
p799
aS'v20.lscache2.googlevideo.com'
p800
aS'37-wave-opensocial.googleusercontent.com'
p801
aS'v20.lscache3.googlevideo.com'
p802
aS'v20.lscache5.googlevideo.com'
p803
aS'v20.lscache4.googlevideo.com'
p804
aS'v20.lscache8.googlevideo.com'
p805
aS'v20.lscache7.googlevideo.com'
p806
aS'v21.lscache3.googlevideo.com'
p807
aS'v21.lscache1.googlevideo.com'
p808
aS'v20.lscache6.googlevideo.com'
p809
aS'v21.lscache2.googlevideo.com'
p810
aS'v21.lscache4.googlevideo.com'
p811
aS'v21.lscache7.googlevideo.com'
p812
aS'v22.lscache1.googlevideo.com'
p813
aS'v21.lscache5.googlevideo.com'
p814
aS'v22.lscache4.googlevideo.com'
p815
aS'v22.lscache2.googlevideo.com'
p816
aS'v21.lscache6.googlevideo.com'
p817
aS'v22.lscache5.googlevideo.com'
p818
aS'v21.lscache8.googlevideo.com'
p819
aS'v22.lscache6.googlevideo.com'
p820
aS'v22.lscache3.googlevideo.com'
p821
aS'v23.lscache1.googlevideo.com'
p822
aS'v22.lscache8.googlevideo.com'
p823
aS'v23.lscache2.googlevideo.com'
p824
aS'v23.lscache3.googlevideo.com'
p825
aS'v23.lscache4.googlevideo.com'
p826
aS'v22.lscache7.googlevideo.com'
p827
aS'v23.lscache6.googlevideo.com'
p828
aS'v23.lscache5.googlevideo.com'
p829
aS'v23.lscache8.googlevideo.com'
p830
aS'v23.lscache7.googlevideo.com'
p831
aS'v24.lscache4.googlevideo.com'
p832
aS'v24.lscache2.googlevideo.com'
p833
aS'v24.lscache1.googlevideo.com'
p834
aS'v24.lscache3.googlevideo.com'
p835
aS'v24.lscache5.googlevideo.com'
p836
aS'v24.lscache6.googlevideo.com'
p837
aS'v1.cache1.googlevideo.com'
p838
aS'v1.cache2.googlevideo.com'
p839
aS'v24.lscache7.googlevideo.com'
p840
aS'v24.lscache8.googlevideo.com'
p841
aS'v1.cache6.googlevideo.com'
p842
aS'v1.cache8.googlevideo.com'
p843
aS'v1.cache3.googlevideo.com'
p844
aS'v1.cache4.googlevideo.com'
p845
aS'v2.cache1.googlevideo.com'
p846
aS'v1.cache7.googlevideo.com'
p847
aS'v1.cache5.googlevideo.com'
p848
aS'v2.cache2.googlevideo.com'
p849
aS'38-wave-opensocial.googleusercontent.com'
p850
aS'v2.cache3.googlevideo.com'
p851
aS'v3.cache2.googlevideo.com'
p852
aS'v2.cache5.googlevideo.com'
p853
aS'v2.cache7.googlevideo.com'
p854
aS'v2.cache6.googlevideo.com'
p855
aS'v3.cache1.googlevideo.com'
p856
aS'v2.cache4.googlevideo.com'
p857
aS'v3.cache4.googlevideo.com'
p858
aS'v2.cache8.googlevideo.com'
p859
aS'v3.cache3.googlevideo.com'
p860
aS'v3.cache5.googlevideo.com'
p861
aS'v4.cache1.googlevideo.com'
p862
aS'v3.cache7.googlevideo.com'
p863
aS'v3.cache6.googlevideo.com'
p864
aS'v4.cache3.googlevideo.com'
p865
aS'v3.cache8.googlevideo.com'
p866
aS'v4.cache2.googlevideo.com'
p867
aS'v4.cache4.googlevideo.com'
p868
aS'v4.cache5.googlevideo.com'
p869
aS'v4.cache6.googlevideo.com'
p870
aS'v4.cache7.googlevideo.com'
p871
aS'v4.cache8.googlevideo.com'
p872
aS'v5.cache6.googlevideo.com'
p873
aS'v5.cache1.googlevideo.com'
p874
aS'v5.cache2.googlevideo.com'
p875
aS'v5.cache3.googlevideo.com'
p876
aS'v5.cache4.googlevideo.com'
p877
aS'v5.cache5.googlevideo.com'
p878
aS'v5.cache7.googlevideo.com'
p879
aS'v5.cache8.googlevideo.com'
p880
aS'v6.cache1.googlevideo.com'
p881
aS'v6.cache6.googlevideo.com'
p882
aS'v6.cache2.googlevideo.com'
p883
aS'v6.cache7.googlevideo.com'
p884
aS'v6.cache3.googlevideo.com'
p885
aS'v6.cache4.googlevideo.com'
p886
aS'v7.cache1.googlevideo.com'
p887
aS'v6.cache5.googlevideo.com'
p888
aS'v6.cache8.googlevideo.com'
p889
aS'v7.cache2.googlevideo.com'
p890
aS'v7.cache3.googlevideo.com'
p891
aS'v7.cache5.googlevideo.com'
p892
aS'v7.cache4.googlevideo.com'
p893
aS'v7.cache7.googlevideo.com'
p894
aS'v8.cache2.googlevideo.com'
p895
aS'v7.cache8.googlevideo.com'
p896
aS'v7.cache6.googlevideo.com'
p897
aS'39-wave-opensocial.googleusercontent.com'
p898
aS'v8.cache1.googlevideo.com'
p899
aS'v8.cache3.googlevideo.com'
p900
aS'v8.cache4.googlevideo.com'
p901
aS'v9.cache1.googlevideo.com'
p902
aS'v9.cache2.googlevideo.com'
p903
aS'v9.cache3.googlevideo.com'
p904
aS'v9.cache4.googlevideo.com'
p905
aS'v9.cache5.googlevideo.com'
p906
aS'v9.cache6.googlevideo.com'
p907
aS'v9.cache7.googlevideo.com'
p908
aS'v9.cache8.googlevideo.com'
p909
aS'v10.cache1.googlevideo.com'
p910
aS'v10.cache2.googlevideo.com'
p911
aS'v10.cache3.googlevideo.com'
p912
aS'v10.cache4.googlevideo.com'
p913
aS'v10.cache5.googlevideo.com'
p914
aS'v10.cache6.googlevideo.com'
p915
aS'v10.cache7.googlevideo.com'
p916
aS'v10.cache8.googlevideo.com'
p917
aS'v11.cache1.googlevideo.com'
p918
aS'v11.cache2.googlevideo.com'
p919
aS'v11.cache3.googlevideo.com'
p920
aS'v11.cache4.googlevideo.com'
p921
aS'v11.cache5.googlevideo.com'
p922
aS'v11.cache6.googlevideo.com'
p923
aS'v11.cache7.googlevideo.com'
p924
aS'v11.cache8.googlevideo.com'
p925
aS'v12.cache1.googlevideo.com'
p926
aS'v12.cache2.googlevideo.com'
p927
aS'v12.cache3.googlevideo.com'
p928
aS'v12.cache4.googlevideo.com'
p929
aS'v12.cache5.googlevideo.com'
p930
aS'v12.cache6.googlevideo.com'
p931
aS'v12.cache7.googlevideo.com'
p932
aS'v12.cache8.googlevideo.com'
p933
aS'v13.cache1.googlevideo.com'
p934
aS'v13.cache2.googlevideo.com'
p935
aS'v13.cache3.googlevideo.com'
p936
aS'v13.cache4.googlevideo.com'
p937
aS'v13.cache5.googlevideo.com'
p938
aS'v13.cache6.googlevideo.com'
p939
aS'v13.cache7.googlevideo.com'
p940
aS'v13.cache8.googlevideo.com'
p941
aS'v14.cache1.googlevideo.com'
p942
aS'v14.cache2.googlevideo.com'
p943
aS'v14.cache3.googlevideo.com'
p944
aS'v14.cache4.googlevideo.com'
p945
aS'v14.cache5.googlevideo.com'
p946
aS'v8.cache6.googlevideo.com'
p947
aS'v8.cache8.googlevideo.com'
p948
aS'v8.cache5.googlevideo.com'
p949
aS'v8.cache7.googlevideo.com'
p950
aS'40-wave-opensocial.googleusercontent.com'
p951
aS'v14.cache6.googlevideo.com'
p952
aS'v14.cache7.googlevideo.com'
p953
aS'v14.cache8.googlevideo.com'
p954
aS'v15.cache1.googlevideo.com'
p955
aS'v15.cache2.googlevideo.com'
p956
aS'v15.cache3.googlevideo.com'
p957
aS'v15.cache4.googlevideo.com'
p958
aS'v15.cache5.googlevideo.com'
p959
aS'v15.cache6.googlevideo.com'
p960
aS'v15.cache7.googlevideo.com'
p961
aS'v15.cache8.googlevideo.com'
p962
aS'v16.cache1.googlevideo.com'
p963
aS'v16.cache2.googlevideo.com'
p964
aS'v16.cache3.googlevideo.com'
p965
aS'v16.cache4.googlevideo.com'
p966
aS'v16.cache5.googlevideo.com'
p967
aS'v16.cache6.googlevideo.com'
p968
aS'v16.cache7.googlevideo.com'
p969
aS'v16.cache8.googlevideo.com'
p970
aS'v17.cache1.googlevideo.com'
p971
aS'v17.cache2.googlevideo.com'
p972
aS'v17.cache3.googlevideo.com'
p973
aS'v17.cache4.googlevideo.com'
p974
aS'v17.cache5.googlevideo.com'
p975
aS'v17.cache6.googlevideo.com'
p976
aS'v17.cache7.googlevideo.com'
p977
aS'v17.cache8.googlevideo.com'
p978
aS'v18.cache1.googlevideo.com'
p979
aS'v18.cache2.googlevideo.com'
p980
aS'v18.cache3.googlevideo.com'
p981
aS'v18.cache4.googlevideo.com'
p982
aS'v18.cache5.googlevideo.com'
p983
aS'v18.cache6.googlevideo.com'
p984
aS'v18.cache7.googlevideo.com'
p985
aS'v18.cache8.googlevideo.com'
p986
aS'v19.cache1.googlevideo.com'
p987
aS'v19.cache2.googlevideo.com'
p988
aS'v19.cache3.googlevideo.com'
p989
aS'v19.cache4.googlevideo.com'
p990
aS'v19.cache5.googlevideo.com'
p991
aS'v19.cache6.googlevideo.com'
p992
aS'v19.cache7.googlevideo.com'
p993
aS'v19.cache8.googlevideo.com'
p994
aS'v20.cache1.googlevideo.com'
p995
aS'v20.cache2.googlevideo.com'
p996
aS'v20.cache3.googlevideo.com'
p997
aS'v20.cache4.googlevideo.com'
p998
aS'v20.cache5.googlevideo.com'
p999
aS'v20.cache6.googlevideo.com'
p1000
aS'v20.cache7.googlevideo.com'
p1001
aS'v20.cache8.googlevideo.com'
p1002
aS'v21.cache1.googlevideo.com'
p1003
aS'v21.cache2.googlevideo.com'
p1004
aS'v21.cache3.googlevideo.com'
p1005
aS'v21.cache4.googlevideo.com'
p1006
aS'v21.cache5.googlevideo.com'
p1007
aS'v21.cache6.googlevideo.com'
p1008
aS'v21.cache7.googlevideo.com'
p1009
aS'v21.cache8.googlevideo.com'
p1010
aS'v22.cache1.googlevideo.com'
p1011
aS'v22.cache2.googlevideo.com'
p1012
aS'v22.cache3.googlevideo.com'
p1013
aS'v22.cache4.googlevideo.com'
p1014
aS'v22.cache5.googlevideo.com'
p1015
aS'v22.cache6.googlevideo.com'
p1016
aS'v22.cache7.googlevideo.com'
p1017
aS'v22.cache8.googlevideo.com'
p1018
aS'v23.cache1.googlevideo.com'
p1019
aS'v23.cache2.googlevideo.com'
p1020
aS'v23.cache3.googlevideo.com'
p1021
aS'v23.cache4.googlevideo.com'
p1022
aS'v23.cache5.googlevideo.com'
p1023
aS'v23.cache6.googlevideo.com'
p1024
aS'v23.cache7.googlevideo.com'
p1025
aS'v23.cache8.googlevideo.com'
p1026
aS'v24.cache1.googlevideo.com'
p1027
aS'v24.cache2.googlevideo.com'
p1028
aS'v24.cache3.googlevideo.com'
p1029
aS'v24.cache4.googlevideo.com'
p1030
aS'v24.cache5.googlevideo.com'
p1031
aS'v24.cache6.googlevideo.com'
p1032
aS'v24.cache7.googlevideo.com'
p1033
aS'v24.cache8.googlevideo.com'
p1034
aS'v1.nonxt1.googlevideo.com'
p1035
aS'v1.nonxt5.googlevideo.com'
p1036
aS'v2.nonxt1.googlevideo.com'
p1037
aS'v1.nonxt6.googlevideo.com'
p1038
aS'v1.nonxt7.googlevideo.com'
p1039
aS'v2.nonxt2.googlevideo.com'
p1040
aS'v1.nonxt4.googlevideo.com'
p1041
aS'v1.nonxt3.googlevideo.com'
p1042
aS'v1.nonxt8.googlevideo.com'
p1043
aS'v1.nonxt2.googlevideo.com'
p1044
aS'v2.nonxt5.googlevideo.com'
p1045
aS'v2.nonxt4.googlevideo.com'
p1046
aS'v2.nonxt7.googlevideo.com'
p1047
aS'v2.nonxt6.googlevideo.com'
p1048
aS'v2.nonxt3.googlevideo.com'
p1049
aS'v3.nonxt1.googlevideo.com'
p1050
aS'v3.nonxt7.googlevideo.com'
p1051
aS'v2.nonxt8.googlevideo.com'
p1052
aS'v3.nonxt4.googlevideo.com'
p1053
aS'v3.nonxt6.googlevideo.com'
p1054
aS'v3.nonxt3.googlevideo.com'
p1055
aS'v3.nonxt5.googlevideo.com'
p1056
aS'v4.nonxt1.googlevideo.com'
p1057
aS'v3.nonxt2.googlevideo.com'
p1058
aS'v3.nonxt8.googlevideo.com'
p1059
aS'v4.nonxt2.googlevideo.com'
p1060
aS'v4.nonxt3.googlevideo.com'
p1061
aS'v4.nonxt5.googlevideo.com'
p1062
aS'v4.nonxt4.googlevideo.com'
p1063
aS'v4.nonxt6.googlevideo.com'
p1064
aS'v5.nonxt3.googlevideo.com'
p1065
aS'v5.nonxt1.googlevideo.com'
p1066
aS'v4.nonxt8.googlevideo.com'
p1067
aS'v4.nonxt7.googlevideo.com'
p1068
aS'v5.nonxt2.googlevideo.com'
p1069
aS'v5.nonxt4.googlevideo.com'
p1070
aS'v5.nonxt6.googlevideo.com'
p1071
aS'v5.nonxt8.googlevideo.com'
p1072
aS'v5.nonxt7.googlevideo.com'
p1073
aS'v6.nonxt1.googlevideo.com'
p1074
aS'v6.nonxt2.googlevideo.com'
p1075
aS'v5.nonxt5.googlevideo.com'
p1076
aS'v6.nonxt3.googlevideo.com'
p1077
aS'v6.nonxt4.googlevideo.com'
p1078
aS'v6.nonxt5.googlevideo.com'
p1079
aS'v6.nonxt6.googlevideo.com'
p1080
aS'v6.nonxt8.googlevideo.com'
p1081
aS'v6.nonxt7.googlevideo.com'
p1082
aS'v7.nonxt5.googlevideo.com'
p1083
aS'v7.nonxt2.googlevideo.com'
p1084
aS'v7.nonxt1.googlevideo.com'
p1085
aS'v7.nonxt7.googlevideo.com'
p1086
aS'v7.nonxt4.googlevideo.com'
p1087
aS'v7.nonxt3.googlevideo.com'
p1088
aS'v7.nonxt6.googlevideo.com'
p1089
aS'v8.nonxt2.googlevideo.com'
p1090
aS'v7.nonxt8.googlevideo.com'
p1091
aS'v8.nonxt1.googlevideo.com'
p1092
aS'v8.nonxt5.googlevideo.com'
p1093
aS'v8.nonxt3.googlevideo.com'
p1094
aS'v8.nonxt6.googlevideo.com'
p1095
aS'v8.nonxt4.googlevideo.com'
p1096
aS'v8.nonxt7.googlevideo.com'
p1097
aS'v8.nonxt8.googlevideo.com'
p1098
aS'v9.nonxt4.googlevideo.com'
p1099
aS'v10.nonxt1.googlevideo.com'
p1100
aS'v9.nonxt5.googlevideo.com'
p1101
aS'v9.nonxt1.googlevideo.com'
p1102
aS'v9.nonxt6.googlevideo.com'
p1103
aS'v9.nonxt2.googlevideo.com'
p1104
aS'v9.nonxt3.googlevideo.com'
p1105
aS'v10.nonxt2.googlevideo.com'
p1106
aS'v9.nonxt8.googlevideo.com'
p1107
aS'v9.nonxt7.googlevideo.com'
p1108
aS'v10.nonxt3.googlevideo.com'
p1109
aS'v10.nonxt4.googlevideo.com'
p1110
aS'v10.nonxt8.googlevideo.com'
p1111
aS'v10.nonxt5.googlevideo.com'
p1112
aS'v10.nonxt6.googlevideo.com'
p1113
aS'v10.nonxt7.googlevideo.com'
p1114
aS'v11.nonxt2.googlevideo.com'
p1115
aS'v11.nonxt1.googlevideo.com'
p1116
aS'v11.nonxt4.googlevideo.com'
p1117
aS'v11.nonxt3.googlevideo.com'
p1118
aS'v11.nonxt6.googlevideo.com'
p1119
aS'v11.nonxt5.googlevideo.com'
p1120
aS'v11.nonxt8.googlevideo.com'
p1121
aS'v11.nonxt7.googlevideo.com'
p1122
aS'v12.nonxt4.googlevideo.com'
p1123
aS'v12.nonxt3.googlevideo.com'
p1124
aS'v12.nonxt1.googlevideo.com'
p1125
aS'v12.nonxt2.googlevideo.com'
p1126
aS'v12.nonxt6.googlevideo.com'
p1127
aS'v12.nonxt5.googlevideo.com'
p1128
aS'v12.nonxt7.googlevideo.com'
p1129
aS'v12.nonxt8.googlevideo.com'
p1130
aS'v13.nonxt2.googlevideo.com'
p1131
aS'v13.nonxt1.googlevideo.com'
p1132
aS'v13.nonxt8.googlevideo.com'
p1133
aS'v13.nonxt5.googlevideo.com'
p1134
aS'v13.nonxt3.googlevideo.com'
p1135
aS'v13.nonxt4.googlevideo.com'
p1136
aS'v13.nonxt7.googlevideo.com'
p1137
aS'v13.nonxt6.googlevideo.com'
p1138
aS'v14.nonxt2.googlevideo.com'
p1139
aS'v14.nonxt3.googlevideo.com'
p1140
aS'v14.nonxt5.googlevideo.com'
p1141
aS'v14.nonxt1.googlevideo.com'
p1142
aS'v14.nonxt6.googlevideo.com'
p1143
aS'v14.nonxt7.googlevideo.com'
p1144
aS'v14.nonxt8.googlevideo.com'
p1145
aS'v15.nonxt1.googlevideo.com'
p1146
aS'v14.nonxt4.googlevideo.com'
p1147
aS'v15.nonxt2.googlevideo.com'
p1148
aS'v15.nonxt6.googlevideo.com'
p1149
aS'v16.nonxt2.googlevideo.com'
p1150
aS'v15.nonxt3.googlevideo.com'
p1151
aS'v15.nonxt7.googlevideo.com'
p1152
aS'v15.nonxt8.googlevideo.com'
p1153
aS'v16.nonxt3.googlevideo.com'
p1154
aS'v15.nonxt4.googlevideo.com'
p1155
aS'v15.nonxt5.googlevideo.com'
p1156
aS'v16.nonxt1.googlevideo.com'
p1157
aS'v16.nonxt4.googlevideo.com'
p1158
aS'v16.nonxt5.googlevideo.com'
p1159
aS'v16.nonxt6.googlevideo.com'
p1160
aS'v17.nonxt4.googlevideo.com'
p1161
aS'v17.nonxt2.googlevideo.com'
p1162
aS'v16.nonxt8.googlevideo.com'
p1163
aS'v17.nonxt5.googlevideo.com'
p1164
aS'v17.nonxt3.googlevideo.com'
p1165
aS'v17.nonxt1.googlevideo.com'
p1166
aS'v16.nonxt7.googlevideo.com'
p1167
aS'v17.nonxt6.googlevideo.com'
p1168
aS'v18.nonxt4.googlevideo.com'
p1169
aS'v17.nonxt8.googlevideo.com'
p1170
aS'v18.nonxt3.googlevideo.com'
p1171
aS'v17.nonxt7.googlevideo.com'
p1172
aS'v18.nonxt6.googlevideo.com'
p1173
aS'v18.nonxt5.googlevideo.com'
p1174
aS'v18.nonxt1.googlevideo.com'
p1175
aS'v18.nonxt2.googlevideo.com'
p1176
aS'v18.nonxt7.googlevideo.com'
p1177
aS'v18.nonxt8.googlevideo.com'
p1178
aS'v19.nonxt1.googlevideo.com'
p1179
aS'v19.nonxt5.googlevideo.com'
p1180
aS'v19.nonxt4.googlevideo.com'
p1181
aS'v19.nonxt3.googlevideo.com'
p1182
aS'v19.nonxt2.googlevideo.com'
p1183
aS'v19.nonxt7.googlevideo.com'
p1184
aS'v19.nonxt6.googlevideo.com'
p1185
aS'v19.nonxt8.googlevideo.com'
p1186
aS'v20.nonxt1.googlevideo.com'
p1187
aS'v20.nonxt6.googlevideo.com'
p1188
aS'v20.nonxt4.googlevideo.com'
p1189
aS'v20.nonxt2.googlevideo.com'
p1190
aS'v20.nonxt3.googlevideo.com'
p1191
aS'v20.nonxt7.googlevideo.com'
p1192
aS'v20.nonxt5.googlevideo.com'
p1193
aS'v21.nonxt1.googlevideo.com'
p1194
aS'v21.nonxt2.googlevideo.com'
p1195
aS'v20.nonxt8.googlevideo.com'
p1196
aS'v21.nonxt3.googlevideo.com'
p1197
aS'v22.nonxt1.googlevideo.com'
p1198
aS'v22.nonxt2.googlevideo.com'
p1199
aS'v22.nonxt4.googlevideo.com'
p1200
aS'v21.nonxt6.googlevideo.com'
p1201
aS'v21.nonxt5.googlevideo.com'
p1202
aS'v22.nonxt3.googlevideo.com'
p1203
aS'v21.nonxt8.googlevideo.com'
p1204
aS'v21.nonxt4.googlevideo.com'
p1205
aS'v21.nonxt7.googlevideo.com'
p1206
aS'v22.nonxt5.googlevideo.com'
p1207
aS'v22.nonxt6.googlevideo.com'
p1208
aS'v23.nonxt3.googlevideo.com'
p1209
aS'v23.nonxt2.googlevideo.com'
p1210
aS'v23.nonxt1.googlevideo.com'
p1211
aS'v22.nonxt7.googlevideo.com'
p1212
aS'v22.nonxt8.googlevideo.com'
p1213
aS'v23.nonxt4.googlevideo.com'
p1214
aS'v23.nonxt5.googlevideo.com'
p1215
aS'v23.nonxt6.googlevideo.com'
p1216
aS'v23.nonxt7.googlevideo.com'
p1217
aS'v23.nonxt8.googlevideo.com'
p1218
aS'v24.nonxt1.googlevideo.com'
p1219
aS'v24.nonxt2.googlevideo.com'
p1220
aS'v24.nonxt3.googlevideo.com'
p1221
aS'v24.nonxt5.googlevideo.com'
p1222
aS'v24.nonxt4.googlevideo.com'
p1223
aS'v24.nonxt6.googlevideo.com'
p1224
aS'v24.nonxt7.googlevideo.com'
p1225
aS'v24.nonxt8.googlevideo.com'
p1226
aS'tc.v1.cache1.googlevideo.com'
p1227
aS'tc.v1.cache5.googlevideo.com'
p1228
aS'tc.v1.cache2.googlevideo.com'
p1229
aS'tc.v1.cache4.googlevideo.com'
p1230
aS'tc.v1.cache3.googlevideo.com'
p1231
aS'tc.v2.cache1.googlevideo.com'
p1232
aS'tc.v1.cache6.googlevideo.com'
p1233
aS'tc.v1.cache7.googlevideo.com'
p1234
aS'tc.v1.cache8.googlevideo.com'
p1235
aS'tc.v2.cache3.googlevideo.com'
p1236
aS'tc.v2.cache2.googlevideo.com'
p1237
aS'tc.v2.cache4.googlevideo.com'
p1238
aS'tc.v2.cache8.googlevideo.com'
p1239
aS'tc.v2.cache5.googlevideo.com'
p1240
aS'tc.v2.cache7.googlevideo.com'
p1241
aS'tc.v2.cache6.googlevideo.com'
p1242
aS'tc.v3.cache1.googlevideo.com'
p1243
aS'tc.v3.cache2.googlevideo.com'
p1244
aS'tc.v3.cache3.googlevideo.com'
p1245
aS'tc.v4.cache2.googlevideo.com'
p1246
aS'tc.v3.cache6.googlevideo.com'
p1247
aS'tc.v3.cache8.googlevideo.com'
p1248
aS'tc.v4.cache3.googlevideo.com'
p1249
aS'tc.v4.cache5.googlevideo.com'
p1250
aS'tc.v3.cache4.googlevideo.com'
p1251
aS'tc.v3.cache7.googlevideo.com'
p1252
aS'tc.v4.cache4.googlevideo.com'
p1253
aS'tc.v3.cache5.googlevideo.com'
p1254
aS'tc.v4.cache1.googlevideo.com'
p1255
aS'tc.v4.cache6.googlevideo.com'
p1256
aS'tc.v4.cache7.googlevideo.com'
p1257
aS'tc.v5.cache1.googlevideo.com'
p1258
aS'tc.v5.cache3.googlevideo.com'
p1259
aS'tc.v5.cache4.googlevideo.com'
p1260
aS'tc.v5.cache6.googlevideo.com'
p1261
aS'tc.v4.cache8.googlevideo.com'
p1262
aS'tc.v5.cache5.googlevideo.com'
p1263
aS'tc.v5.cache2.googlevideo.com'
p1264
aS'tc.v5.cache7.googlevideo.com'
p1265
aS'tc.v5.cache8.googlevideo.com'
p1266
aS'tc.v6.cache1.googlevideo.com'
p1267
aS'tc.v6.cache2.googlevideo.com'
p1268
aS'tc.v6.cache6.googlevideo.com'
p1269
aS'tc.v6.cache8.googlevideo.com'
p1270
aS'tc.v6.cache4.googlevideo.com'
p1271
aS'tc.v6.cache3.googlevideo.com'
p1272
aS'tc.v6.cache5.googlevideo.com'
p1273
aS'tc.v6.cache7.googlevideo.com'
p1274
aS'tc.v7.cache1.googlevideo.com'
p1275
aS'tc.v7.cache4.googlevideo.com'
p1276
aS'tc.v7.cache5.googlevideo.com'
p1277
aS'tc.v7.cache3.googlevideo.com'
p1278
aS'tc.v7.cache2.googlevideo.com'
p1279
aS'tc.v7.cache8.googlevideo.com'
p1280
aS'tc.v8.cache1.googlevideo.com'
p1281
aS'tc.v7.cache6.googlevideo.com'
p1282
aS'tc.v7.cache7.googlevideo.com'
p1283
aS'tc.v8.cache3.googlevideo.com'
p1284
aS'tc.v8.cache2.googlevideo.com'
p1285
aS'tc.v8.cache4.googlevideo.com'
p1286
aS'tc.v9.cache1.googlevideo.com'
p1287
aS'tc.v8.cache5.googlevideo.com'
p1288
aS'tc.v8.cache6.googlevideo.com'
p1289
aS'tc.v8.cache8.googlevideo.com'
p1290
aS'tc.v8.cache7.googlevideo.com'
p1291
aS'tc.v9.cache2.googlevideo.com'
p1292
aS'tc.v9.cache3.googlevideo.com'
p1293
aS'tc.v9.cache4.googlevideo.com'
p1294
aS'tc.v10.cache1.googlevideo.com'
p1295
aS'tc.v9.cache5.googlevideo.com'
p1296
aS'tc.v10.cache2.googlevideo.com'
p1297
aS'tc.v9.cache7.googlevideo.com'
p1298
aS'tc.v10.cache5.googlevideo.com'
p1299
aS'tc.v9.cache6.googlevideo.com'
p1300
aS'tc.v10.cache3.googlevideo.com'
p1301
aS'tc.v9.cache8.googlevideo.com'
p1302
aS'tc.v10.cache4.googlevideo.com'
p1303
aS'tc.v10.cache6.googlevideo.com'
p1304
aS'tc.v11.cache4.googlevideo.com'
p1305
aS'tc.v11.cache1.googlevideo.com'
p1306
aS'tc.v11.cache6.googlevideo.com'
p1307
aS'tc.v10.cache7.googlevideo.com'
p1308
aS'tc.v11.cache5.googlevideo.com'
p1309
aS'tc.v10.cache8.googlevideo.com'
p1310
aS'tc.v11.cache3.googlevideo.com'
p1311
aS'tc.v11.cache2.googlevideo.com'
p1312
aS'tc.v11.cache7.googlevideo.com'
p1313
aS'tc.v11.cache8.googlevideo.com'
p1314
aS'tc.v12.cache1.googlevideo.com'
p1315
aS'tc.v12.cache2.googlevideo.com'
p1316
aS'tc.v12.cache3.googlevideo.com'
p1317
aS'tc.v12.cache6.googlevideo.com'
p1318
aS'tc.v12.cache5.googlevideo.com'
p1319
aS'tc.v12.cache8.googlevideo.com'
p1320
aS'tc.v12.cache7.googlevideo.com'
p1321
aS'tc.v12.cache4.googlevideo.com'
p1322
aS'tc.v13.cache2.googlevideo.com'
p1323
aS'tc.v13.cache1.googlevideo.com'
p1324
aS'tc.v13.cache5.googlevideo.com'
p1325
aS'tc.v13.cache3.googlevideo.com'
p1326
aS'tc.v13.cache4.googlevideo.com'
p1327
aS'tc.v13.cache6.googlevideo.com'
p1328
aS'tc.v13.cache7.googlevideo.com'
p1329
aS'tc.v14.cache1.googlevideo.com'
p1330
aS'tc.v14.cache2.googlevideo.com'
p1331
aS'tc.v13.cache8.googlevideo.com'
p1332
aS'tc.v14.cache3.googlevideo.com'
p1333
aS'tc.v14.cache4.googlevideo.com'
p1334
aS'tc.v14.cache5.googlevideo.com'
p1335
aS'tc.v15.cache1.googlevideo.com'
p1336
aS'tc.v14.cache6.googlevideo.com'
p1337
aS'tc.v14.cache7.googlevideo.com'
p1338
aS'tc.v14.cache8.googlevideo.com'
p1339
aS'tc.v15.cache5.googlevideo.com'
p1340
aS'tc.v15.cache3.googlevideo.com'
p1341
aS'tc.v15.cache2.googlevideo.com'
p1342
aS'tc.v15.cache4.googlevideo.com'
p1343
aS'tc.v16.cache6.googlevideo.com'
p1344
aS'tc.v15.cache8.googlevideo.com'
p1345
aS'tc.v16.cache2.googlevideo.com'
p1346
aS'tc.v15.cache6.googlevideo.com'
p1347
aS'tc.v16.cache3.googlevideo.com'
p1348
aS'tc.v15.cache7.googlevideo.com'
p1349
aS'tc.v16.cache4.googlevideo.com'
p1350
aS'tc.v16.cache5.googlevideo.com'
p1351
aS'tc.v16.cache1.googlevideo.com'
p1352
aS'tc.v16.cache7.googlevideo.com'
p1353
aS'tc.v16.cache8.googlevideo.com'
p1354
aS'tc.v17.cache1.googlevideo.com'
p1355
aS'tc.v17.cache3.googlevideo.com'
p1356
aS'tc.v17.cache2.googlevideo.com'
p1357
aS'tc.v17.cache8.googlevideo.com'
p1358
aS'tc.v17.cache5.googlevideo.com'
p1359
aS'tc.v17.cache6.googlevideo.com'
p1360
aS'tc.v17.cache7.googlevideo.com'
p1361
aS'tc.v18.cache1.googlevideo.com'
p1362
aS'tc.v17.cache4.googlevideo.com'
p1363
aS'tc.v18.cache2.googlevideo.com'
p1364
aS'tc.v18.cache4.googlevideo.com'
p1365
aS'tc.v18.cache7.googlevideo.com'
p1366
aS'tc.v18.cache6.googlevideo.com'
p1367
aS'tc.v18.cache3.googlevideo.com'
p1368
aS'tc.v18.cache8.googlevideo.com'
p1369
aS'tc.v19.cache1.googlevideo.com'
p1370
aS'tc.v18.cache5.googlevideo.com'
p1371
aS'tc.v19.cache2.googlevideo.com'
p1372
aS'tc.v19.cache3.googlevideo.com'
p1373
aS'tc.v19.cache7.googlevideo.com'
p1374
aS'tc.v19.cache4.googlevideo.com'
p1375
aS'tc.v19.cache8.googlevideo.com'
p1376
aS'tc.v19.cache5.googlevideo.com'
p1377
aS'tc.v20.cache3.googlevideo.com'
p1378
aS'tc.v19.cache6.googlevideo.com'
p1379
aS'tc.v20.cache2.googlevideo.com'
p1380
aS'tc.v20.cache1.googlevideo.com'
p1381
aS'tc.v20.cache4.googlevideo.com'
p1382
aS'tc.v20.cache5.googlevideo.com'
p1383
aS'tc.v20.cache6.googlevideo.com'
p1384
aS'tc.v20.cache7.googlevideo.com'
p1385
aS'tc.v21.cache1.googlevideo.com'
p1386
aS'tc.v20.cache8.googlevideo.com'
p1387
aS'tc.v21.cache3.googlevideo.com'
p1388
aS'tc.v21.cache2.googlevideo.com'
p1389
aS'tc.v21.cache4.googlevideo.com'
p1390
aS'tc.v21.cache5.googlevideo.com'
p1391
aS'tc.v21.cache6.googlevideo.com'
p1392
aS'tc.v22.cache2.googlevideo.com'
p1393
aS'tc.v22.cache1.googlevideo.com'
p1394
aS'tc.v22.cache5.googlevideo.com'
p1395
aS'tc.v22.cache7.googlevideo.com'
p1396
aS'tc.v21.cache8.googlevideo.com'
p1397
aS'tc.v22.cache6.googlevideo.com'
p1398
aS'tc.v22.cache3.googlevideo.com'
p1399
aS'tc.v22.cache4.googlevideo.com'
p1400
aS'tc.v22.cache8.googlevideo.com'
p1401
aS'tc.v21.cache7.googlevideo.com'
p1402
aS'tc.v23.cache2.googlevideo.com'
p1403
aS'tc.v23.cache1.googlevideo.com'
p1404
aS'tc.v23.cache7.googlevideo.com'
p1405
aS'tc.v23.cache3.googlevideo.com'
p1406
aS'tc.v23.cache4.googlevideo.com'
p1407
aS'tc.v23.cache5.googlevideo.com'
p1408
aS'tc.v23.cache6.googlevideo.com'
p1409
aS'tc.v23.cache8.googlevideo.com'
p1410
aS'tc.v24.cache1.googlevideo.com'
p1411
aS'tc.v24.cache2.googlevideo.com'
p1412
aS'tc.v24.cache3.googlevideo.com'
p1413
aS'tc.v24.cache4.googlevideo.com'
p1414
aS'r1.tpe05s04.googlevideo.com'
p1415
aS'tc.v24.cache6.googlevideo.com'
p1416
aS'tc.v24.cache5.googlevideo.com'
p1417
aS'r1.tpe05s03.googlevideo.com'
p1418
aS'r2.tpe05s03.googlevideo.com'
p1419
aS'tc.v24.cache7.googlevideo.com'
p1420
aS'tc.v24.cache8.googlevideo.com'
p1421
aS'r2.tpe05s04.googlevideo.com'
p1422
aS'r3.tpe05s04.googlevideo.com'
p1423
aS'r3.tpe05s03.googlevideo.com'
p1424
aS'r4.tpe05s03.googlevideo.com'
p1425
aS'r4.tpe05s04.googlevideo.com'
p1426
aS'r5.tpe05s03.googlevideo.com'
p1427
aS'r5.tpe05s04.googlevideo.com'
p1428
aS'r6.tpe05s03.googlevideo.com'
p1429
aS'r6.tpe05s04.googlevideo.com'
p1430
aS'r7.tpe05s03.googlevideo.com'
p1431
aS'r7.tpe05s04.googlevideo.com'
p1432
aS'r8.tpe05s04.googlevideo.com'
p1433
aS'r10.tpe05s03.googlevideo.com'
p1434
aS'r11.tpe05s03.googlevideo.com'
p1435
aS'r8.tpe05s03.googlevideo.com'
p1436
aS'r11.tpe05s04.googlevideo.com'
p1437
aS'r9.tpe05s03.googlevideo.com'
p1438
aS'r9.tpe05s04.googlevideo.com'
p1439
aS'r10.tpe05s04.googlevideo.com'
p1440
aS'r12.tpe05s03.googlevideo.com'
p1441
aS'r12.tpe05s04.googlevideo.com'
p1442
aS'r13.tpe05s04.googlevideo.com'
p1443
aS'r13.tpe05s03.googlevideo.com'
p1444
aS'r15.tpe05s03.googlevideo.com'
p1445
aS'r16.tpe05s03.googlevideo.com'
p1446
aS'r16.tpe05s04.googlevideo.com'
p1447
aS'r14.tpe05s03.googlevideo.com'
p1448
aS'r14.tpe05s04.googlevideo.com'
p1449
aS'r17.tpe05s03.googlevideo.com'
p1450
aS'r15.tpe05s04.googlevideo.com'
p1451
aS'r18.tpe05s04.googlevideo.com'
p1452
aS'r17.tpe05s04.googlevideo.com'
p1453
aS'r18.tpe05s03.googlevideo.com'
p1454
aS'r19.tpe05s03.googlevideo.com'
p1455
aS'r20.tpe05s03.googlevideo.com'
p1456
aS'r19.tpe05s04.googlevideo.com'
p1457
aS'r20.tpe05s04.googlevideo.com'
p1458
aS'r1.hkg03s07.googlevideo.com'
p1459
aS'r1.hkg03s06.googlevideo.com'
p1460
aS'r1.hkg03s05.googlevideo.com'
p1461
aS'r2.hkg03s07.googlevideo.com'
p1462
aS'r1.hkg03s08.googlevideo.com'
p1463
aS'r2.hkg03s05.googlevideo.com'
p1464
aS'r3.hkg03s08.googlevideo.com'
p1465
aS'r2.hkg03s08.googlevideo.com'
p1466
aS'r2.hkg03s06.googlevideo.com'
p1467
aS'r3.hkg03s05.googlevideo.com'
p1468
aS'r3.hkg03s07.googlevideo.com'
p1469
aS'r3.hkg03s06.googlevideo.com'
p1470
aS'r4.hkg03s05.googlevideo.com'
p1471
aS'r4.hkg03s08.googlevideo.com'
p1472
aS'r4.hkg03s07.googlevideo.com'
p1473
aS'r5.hkg03s08.googlevideo.com'
p1474
aS'r5.hkg03s06.googlevideo.com'
p1475
aS'r4.hkg03s06.googlevideo.com'
p1476
aS'r5.hkg03s05.googlevideo.com'
p1477
aS'r5.hkg03s07.googlevideo.com'
p1478
aS'r6.hkg03s05.googlevideo.com'
p1479
aS'r6.hkg03s06.googlevideo.com'
p1480
aS'r6.hkg03s07.googlevideo.com'
p1481
aS'r6.hkg03s08.googlevideo.com'
p1482
aS'r7.hkg03s05.googlevideo.com'
p1483
aS'r7.hkg03s08.googlevideo.com'
p1484
aS'r7.hkg03s06.googlevideo.com'
p1485
aS'r8.hkg03s06.googlevideo.com'
p1486
aS'r8.hkg03s08.googlevideo.com'
p1487
aS'r8.hkg03s05.googlevideo.com'
p1488
aS'r7.hkg03s07.googlevideo.com'
p1489
aS'r8.hkg03s07.googlevideo.com'
p1490
aS'r9.hkg03s07.googlevideo.com'
p1491
aS'r9.hkg03s05.googlevideo.com'
p1492
aS'r10.hkg03s08.googlevideo.com'
p1493
aS'r9.hkg03s06.googlevideo.com'
p1494
aS'r9.hkg03s08.googlevideo.com'
p1495
aS'r11.hkg03s06.googlevideo.com'
p1496
aS'r10.hkg03s05.googlevideo.com'
p1497
aS'r11.hkg03s05.googlevideo.com'
p1498
aS'r10.hkg03s06.googlevideo.com'
p1499
aS'r10.hkg03s07.googlevideo.com'
p1500
aS'r11.hkg03s07.googlevideo.com'
p1501
aS'r11.hkg03s08.googlevideo.com'
p1502
aS'r12.hkg03s05.googlevideo.com'
p1503
aS'r13.hkg03s06.googlevideo.com'
p1504
aS'r12.hkg03s06.googlevideo.com'
p1505
aS'r12.hkg03s07.googlevideo.com'
p1506
aS'r13.hkg03s05.googlevideo.com'
p1507
aS'r12.hkg03s08.googlevideo.com'
p1508
aS'r13.hkg03s07.googlevideo.com'
p1509
aS'r13.hkg03s08.googlevideo.com'
p1510
aS'r14.hkg03s07.googlevideo.com'
p1511
aS'r15.hkg03s07.googlevideo.com'
p1512
aS'r14.hkg03s05.googlevideo.com'
p1513
aS'r14.hkg03s08.googlevideo.com'
p1514
aS'r14.hkg03s06.googlevideo.com'
p1515
aS'r15.hkg03s06.googlevideo.com'
p1516
aS'r15.hkg03s05.googlevideo.com'
p1517
aS'r16.hkg03s06.googlevideo.com'
p1518
aS'r15.hkg03s08.googlevideo.com'
p1519
aS'r16.hkg03s05.googlevideo.com'
p1520
aS'r16.hkg03s08.googlevideo.com'
p1521
aS'r17.hkg03s07.googlevideo.com'
p1522
aS'r16.hkg03s07.googlevideo.com'
p1523
aS'r17.hkg03s06.googlevideo.com'
p1524
aS'r17.hkg03s05.googlevideo.com'
p1525
aS'r17.hkg03s08.googlevideo.com'
p1526
aS'r18.hkg03s05.googlevideo.com'
p1527
aS'r18.hkg03s07.googlevideo.com'
p1528
aS'r18.hkg03s08.googlevideo.com'
p1529
aS'r18.hkg03s06.googlevideo.com'
p1530
aS'r1.hkg05s01.googlevideo.com'
p1531
aS'r19.hkg03s05.googlevideo.com'
p1532
aS'r19.hkg03s07.googlevideo.com'
p1533
aS'r19.hkg03s06.googlevideo.com'
p1534
aS'r20.hkg03s06.googlevideo.com'
p1535
aS'r20.hkg03s08.googlevideo.com'
p1536
aS'r20.hkg03s05.googlevideo.com'
p1537
aS'r19.hkg03s08.googlevideo.com'
p1538
aS'r20.hkg03s07.googlevideo.com'
p1539
aS'r1.hkg05s02.googlevideo.com'
p1540
aS'r1.hkg05s03.googlevideo.com'
p1541
aS'r1.hkg05s04.googlevideo.com'
p1542
aS'r2.hkg05s01.googlevideo.com'
p1543
aS'r2.hkg05s02.googlevideo.com'
p1544
aS'r2.hkg05s03.googlevideo.com'
p1545
aS'r2.hkg05s04.googlevideo.com'
p1546
aS'r3.hkg05s01.googlevideo.com'
p1547
aS'r3.hkg05s02.googlevideo.com'
p1548
aS'r3.hkg05s03.googlevideo.com'
p1549
aS'r3.hkg05s04.googlevideo.com'
p1550
aS'r4.hkg05s01.googlevideo.com'
p1551
aS'r4.hkg05s02.googlevideo.com'
p1552
aS'r4.hkg05s03.googlevideo.com'
p1553
aS'r4.hkg05s04.googlevideo.com'
p1554
aS'r5.hkg05s01.googlevideo.com'
p1555
aS'r5.hkg05s02.googlevideo.com'
p1556
aS'r5.hkg05s03.googlevideo.com'
p1557
aS'r5.hkg05s04.googlevideo.com'
p1558
aS'r6.hkg05s01.googlevideo.com'
p1559
aS'r6.hkg05s02.googlevideo.com'
p1560
aS'r6.hkg05s03.googlevideo.com'
p1561
aS'r6.hkg05s04.googlevideo.com'
p1562
aS'r7.hkg05s01.googlevideo.com'
p1563
aS'r7.hkg05s02.googlevideo.com'
p1564
aS'r7.hkg05s03.googlevideo.com'
p1565
aS'r7.hkg05s04.googlevideo.com'
p1566
aS'r8.hkg05s01.googlevideo.com'
p1567
aS'r8.hkg05s02.googlevideo.com'
p1568
aS'r8.hkg05s03.googlevideo.com'
p1569
aS'r8.hkg05s04.googlevideo.com'
p1570
aS'r9.hkg05s01.googlevideo.com'
p1571
aS'r9.hkg05s02.googlevideo.com'
p1572
aS'r9.hkg05s03.googlevideo.com'
p1573
aS'r9.hkg05s04.googlevideo.com'
p1574
aS'r10.hkg05s01.googlevideo.com'
p1575
aS'r10.hkg05s02.googlevideo.com'
p1576
aS'r10.hkg05s03.googlevideo.com'
p1577
aS'r10.hkg05s04.googlevideo.com'
p1578
aS'r11.hkg05s01.googlevideo.com'
p1579
aS'r11.hkg05s02.googlevideo.com'
p1580
aS'r11.hkg05s03.googlevideo.com'
p1581
aS'r11.hkg05s04.googlevideo.com'
p1582
aS'r12.hkg05s01.googlevideo.com'
p1583
aS'r12.hkg05s02.googlevideo.com'
p1584
aS'r12.hkg05s03.googlevideo.com'
p1585
aS'r12.hkg05s04.googlevideo.com'
p1586
aS'r13.hkg05s01.googlevideo.com'
p1587
aS'r13.hkg05s02.googlevideo.com'
p1588
aS'r13.hkg05s03.googlevideo.com'
p1589
aS'r13.hkg05s04.googlevideo.com'
p1590
aS'r14.hkg05s01.googlevideo.com'
p1591
aS'r14.hkg05s02.googlevideo.com'
p1592
aS'r14.hkg05s03.googlevideo.com'
p1593
aS'r14.hkg05s04.googlevideo.com'
p1594
aS'r15.hkg05s01.googlevideo.com'
p1595
aS'r15.hkg05s02.googlevideo.com'
p1596
aS'r15.hkg05s03.googlevideo.com'
p1597
aS'r15.hkg05s04.googlevideo.com'
p1598
aS'r16.hkg05s01.googlevideo.com'
p1599
aS'r16.hkg05s02.googlevideo.com'
p1600
aS'r16.hkg05s03.googlevideo.com'
p1601
aS'r16.hkg05s04.googlevideo.com'
p1602
aS'r17.hkg05s01.googlevideo.com'
p1603
aS'r17.hkg05s02.googlevideo.com'
p1604
aS'r17.hkg05s03.googlevideo.com'
p1605
aS'r17.hkg05s04.googlevideo.com'
p1606
aS'r18.hkg05s01.googlevideo.com'
p1607
aS'r18.hkg05s02.googlevideo.com'
p1608
aS'r18.hkg05s03.googlevideo.com'
p1609
aS'r18.hkg05s04.googlevideo.com'
p1610
aS'r19.hkg05s01.googlevideo.com'
p1611
aS'r19.hkg05s02.googlevideo.com'
p1612
aS'r19.hkg05s03.googlevideo.com'
p1613
aS'r19.hkg05s04.googlevideo.com'
p1614
aS'r20.hkg05s01.googlevideo.com'
p1615
aS'r20.hkg05s02.googlevideo.com'
p1616
aS'r20.hkg05s03.googlevideo.com'
p1617
aS'r20.hkg05s04.googlevideo.com'
p1618
aS'r1.maa03s08.googlevideo.com'
p1619
aS'r2.maa03s08.googlevideo.com'
p1620
aS'r5.maa03s08.googlevideo.com'
p1621
aS'r3.maa03s08.googlevideo.com'
p1622
aS'r4.maa03s09.googlevideo.com'
p1623
aS'r3.maa03s09.googlevideo.com'
p1624
aS'r5.maa03s09.googlevideo.com'
p1625
aS'r4.maa03s08.googlevideo.com'
p1626
aS'r1.maa03s09.googlevideo.com'
p1627
aS'r2.maa03s09.googlevideo.com'
p1628
aS'r6.maa03s08.googlevideo.com'
p1629
aS'r6.maa03s09.googlevideo.com'
p1630
aS'r7.maa03s08.googlevideo.com'
p1631
aS'r7.maa03s09.googlevideo.com'
p1632
aS'r8.maa03s08.googlevideo.com'
p1633
aS'r9.maa03s08.googlevideo.com'
p1634
aS'r9.maa03s09.googlevideo.com'
p1635
aS'r10.maa03s08.googlevideo.com'
p1636
aS'r8.maa03s09.googlevideo.com'
p1637
aS'r13.maa03s09.googlevideo.com'
p1638
aS'r12.maa03s09.googlevideo.com'
p1639
aS'r11.maa03s08.googlevideo.com'
p1640
aS'r14.maa03s08.googlevideo.com'
p1641
aS'r10.maa03s09.googlevideo.com'
p1642
aS'r15.maa03s08.googlevideo.com'
p1643
aS'r13.maa03s08.googlevideo.com'
p1644
aS'r11.maa03s09.googlevideo.com'
p1645
aS'r12.maa03s08.googlevideo.com'
p1646
aS'r14.maa03s09.googlevideo.com'
p1647
aS'r16.maa03s09.googlevideo.com'
p1648
aS'r16.maa03s08.googlevideo.com'
p1649
aS'r19.maa03s08.googlevideo.com'
p1650
aS'r20.maa03s08.googlevideo.com'
p1651
aS'r15.maa03s09.googlevideo.com'
p1652
aS'r19.maa03s09.googlevideo.com'
p1653
aS'r18.maa03s09.googlevideo.com'
p1654
aS'r17.maa03s09.googlevideo.com'
p1655
aS'wave0.google.com'
p1656
aS'r17.maa03s08.googlevideo.com'
p1657
aS'r18.maa03s08.googlevideo.com'
p1658
aS'wifi.google.com'
p1659
aS'wifi.l.google.com'
p1660
aS'1.gvt0.cn'
p1661
aS'r20.maa03s09.googlevideo.com'
p1662
aS'wave1.google.com'
p1663
aS'0.gvt0.cn'
p1664
aS'2.gvt0.cn'
p1665
aS'wave.google.com'
p1666
aS'www.gvt0.cn'
p1667
aS'googlewave.com'
p1668
aS'3.gvt0.cn'
p1669
aS'gmodules.com'
p1670
aS'www.gmodules.com'
p1671
aS'www.ig.gmodules.com'
p1672
aS'ig.gmodules.com'
p1673
aS'p.gmodules.com'
p1674
aS'ads.gmodules.com'
p1675
aS'2.ig.gmodules.com'
p1676
aS'4.ig.gmodules.com'
p1677
aS'1.ig.gmodules.com'
p1678
aS'3.ig.gmodules.com'
p1679
aS'5.ig.gmodules.com'
p1680
aS'maps.gmodules.com'
p1681
aS'img0.gmodules.com'
p1682
aS'6.ig.gmodules.com'
p1683
aS'img2.gmodules.com'
p1684
aS'img1.gmodules.com'
p1685
aS'img3.gmodules.com'
p1686
aS'skins.gmodules.com'
p1687
aS'gadgets.l.google.com'
p1688
aS'www.gstatic.com'
p1689
aS'partnerpage.google.com'
p1690
aS'friendconnect.gmodules.com'
p1691
aS'0.blogger.gmodules.com'
p1692
aS'maps.gstatic.com'
p1693
aS'ssl.gstatic.com'
p1694
aS'csi.gstatic.com'
p1695
aS't0.gstatic.com'
p1696
aS't1.gstatic.com'
p1697
aS't3.gstatic.com'
p1698
aS'g0.gstatic.com'
p1699
aS't2.gstatic.com'
p1700
aS'g3.gstatic.com'
p1701
aS'g2.gstatic.com'
p1702
aS'g1.gstatic.com'
p1703
aS'mt0.gstatic.com'
p1704
aS'mt2.gstatic.com'
p1705
aS'mt1.gstatic.com'
p1706
aS'mt4.gstatic.com'
p1707
aS'mt3.gstatic.com'
p1708
aS'mt7.gstatic.com'
p1709
aS'mt5.gstatic.com'
p1710
aS'www.gstatic.cn'
p1711
aS'mt6.gstatic.com'
p1712
aS'www.googleapis.com'
p1713
aS'googleapis-ajax.google.com'
p1714
aS'googleapis-ajax.l.google.com'
p1715
aS'apis.google.com'
p1716
aS'chart.apis.google.com'
p1717
aS'googleapis.l.google.com'
p1718
aS'chart.googleapis.com'
p1719
aS'fonts.googleapis.com'
p1720
aS'ajax.googleapis.com'
p1721
aS'mt0.googleapis.com'
p1722
aS'maps.googleapis.com'
p1723
aS'mt2.googleapis.com'
p1724
aS'redirector-bigcache.googleapis.com'
p1725
aS'translate.googleapis.com'
p1726
aS'mt3.googleapis.com'
p1727
aS'mt1.googleapis.com'
p1728
aS'v1.lscache1.c.bigcache.googleapis.com'
p1729
aS'v1.lscache2.c.bigcache.googleapis.com'
p1730
aS'redirector.c.youtube.com'
p1731
aS'v1.lscache3.c.bigcache.googleapis.com'
p1732
aS'v1.lscache4.c.bigcache.googleapis.com'
p1733
aS'v1.lscache5.c.bigcache.googleapis.com'
p1734
aS'v1.lscache6.c.bigcache.googleapis.com'
p1735
aS'v2.lscache1.c.bigcache.googleapis.com'
p1736
aS'v2.lscache4.c.bigcache.googleapis.com'
p1737
aS'v2.lscache6.c.bigcache.googleapis.com'
p1738
aS'v2.lscache8.c.bigcache.googleapis.com'
p1739
aS'v1.lscache7.c.bigcache.googleapis.com'
p1740
aS'v1.lscache8.c.bigcache.googleapis.com'
p1741
aS'v2.lscache2.c.bigcache.googleapis.com'
p1742
aS'v2.lscache3.c.bigcache.googleapis.com'
p1743
aS'v2.lscache7.c.bigcache.googleapis.com'
p1744
aS'v2.lscache5.c.bigcache.googleapis.com'
p1745
aS'v3.lscache1.c.bigcache.googleapis.com'
p1746
aS'v3.lscache2.c.bigcache.googleapis.com'
p1747
aS'v3.lscache8.c.bigcache.googleapis.com'
p1748
aS'v3.lscache4.c.bigcache.googleapis.com'
p1749
aS'v3.lscache5.c.bigcache.googleapis.com'
p1750
aS'v3.lscache3.c.bigcache.googleapis.com'
p1751
aS'v3.lscache6.c.bigcache.googleapis.com'
p1752
aS'v4.lscache1.c.bigcache.googleapis.com'
p1753
aS'v3.lscache7.c.bigcache.googleapis.com'
p1754
aS'v4.lscache2.c.bigcache.googleapis.com'
p1755
aS'v4.lscache5.c.bigcache.googleapis.com'
p1756
aS'v4.lscache4.c.bigcache.googleapis.com'
p1757
aS'v4.lscache6.c.bigcache.googleapis.com'
p1758
aS'v5.lscache1.c.bigcache.googleapis.com'
p1759
aS'v4.lscache3.c.bigcache.googleapis.com'
p1760
aS'v5.lscache4.c.bigcache.googleapis.com'
p1761
aS'v4.lscache8.c.bigcache.googleapis.com'
p1762
aS'v4.lscache7.c.bigcache.googleapis.com'
p1763
aS'v5.lscache2.c.bigcache.googleapis.com'
p1764
aS'v5.lscache3.c.bigcache.googleapis.com'
p1765
aS'v6.lscache1.c.bigcache.googleapis.com'
p1766
aS'v5.lscache5.c.bigcache.googleapis.com'
p1767
aS'v5.lscache6.c.bigcache.googleapis.com'
p1768
aS'v5.lscache7.c.bigcache.googleapis.com'
p1769
aS'v6.lscache3.c.bigcache.googleapis.com'
p1770
aS'v5.lscache8.c.bigcache.googleapis.com'
p1771
aS'v6.lscache5.c.bigcache.googleapis.com'
p1772
aS'v6.lscache2.c.bigcache.googleapis.com'
p1773
aS'v6.lscache4.c.bigcache.googleapis.com'
p1774
aS'v6.lscache6.c.bigcache.googleapis.com'
p1775
aS'v6.lscache7.c.bigcache.googleapis.com'
p1776
aS'v6.lscache8.c.bigcache.googleapis.com'
p1777
aS'v7.lscache2.c.bigcache.googleapis.com'
p1778
aS'v7.lscache3.c.bigcache.googleapis.com'
p1779
aS'v7.lscache1.c.bigcache.googleapis.com'
p1780
aS'v7.lscache4.c.bigcache.googleapis.com'
p1781
aS'v7.lscache5.c.bigcache.googleapis.com'
p1782
aS'v7.lscache6.c.bigcache.googleapis.com'
p1783
aS'v7.lscache7.c.bigcache.googleapis.com'
p1784
aS'v7.lscache8.c.bigcache.googleapis.com'
p1785
aS'v8.lscache1.c.bigcache.googleapis.com'
p1786
aS'v8.lscache5.c.bigcache.googleapis.com'
p1787
aS'v8.lscache4.c.bigcache.googleapis.com'
p1788
aS'v8.lscache3.c.bigcache.googleapis.com'
p1789
aS'v8.lscache8.c.bigcache.googleapis.com'
p1790
aS'v9.lscache1.c.bigcache.googleapis.com'
p1791
aS'v8.lscache2.c.bigcache.googleapis.com'
p1792
aS'v8.lscache6.c.bigcache.googleapis.com'
p1793
aS'v8.lscache7.c.bigcache.googleapis.com'
p1794
aS'v9.lscache5.c.bigcache.googleapis.com'
p1795
aS'v9.lscache4.c.bigcache.googleapis.com'
p1796
aS'v9.lscache2.c.bigcache.googleapis.com'
p1797
aS'v9.lscache6.c.bigcache.googleapis.com'
p1798
aS'v9.lscache8.c.bigcache.googleapis.com'
p1799
aS'v9.lscache3.c.bigcache.googleapis.com'
p1800
aS'v9.lscache7.c.bigcache.googleapis.com'
p1801
aS'v10.lscache1.c.bigcache.googleapis.com'
p1802
aS'v10.lscache3.c.bigcache.googleapis.com'
p1803
aS'v10.lscache2.c.bigcache.googleapis.com'
p1804
aS'v10.lscache6.c.bigcache.googleapis.com'
p1805
aS'v10.lscache5.c.bigcache.googleapis.com'
p1806
aS'v10.lscache4.c.bigcache.googleapis.com'
p1807
aS'v10.lscache8.c.bigcache.googleapis.com'
p1808
aS'v10.lscache7.c.bigcache.googleapis.com'
p1809
aS'v11.lscache2.c.bigcache.googleapis.com'
p1810
aS'v11.lscache3.c.bigcache.googleapis.com'
p1811
aS'v11.lscache4.c.bigcache.googleapis.com'
p1812
aS'v11.lscache1.c.bigcache.googleapis.com'
p1813
aS'v11.lscache5.c.bigcache.googleapis.com'
p1814
aS'v11.lscache6.c.bigcache.googleapis.com'
p1815
aS'v11.lscache8.c.bigcache.googleapis.com'
p1816
aS'v12.lscache1.c.bigcache.googleapis.com'
p1817
aS'v11.lscache7.c.bigcache.googleapis.com'
p1818
aS'v12.lscache6.c.bigcache.googleapis.com'
p1819
aS'v12.lscache5.c.bigcache.googleapis.com'
p1820
aS'v12.lscache2.c.bigcache.googleapis.com'
p1821
aS'v12.lscache7.c.bigcache.googleapis.com'
p1822
aS'v12.lscache3.c.bigcache.googleapis.com'
p1823
aS'v12.lscache4.c.bigcache.googleapis.com'
p1824
aS'v12.lscache8.c.bigcache.googleapis.com'
p1825
aS'v13.lscache1.c.bigcache.googleapis.com'
p1826
aS'v13.lscache2.c.bigcache.googleapis.com'
p1827
aS'v13.lscache3.c.bigcache.googleapis.com'
p1828
aS'v13.lscache5.c.bigcache.googleapis.com'
p1829
aS'v13.lscache6.c.bigcache.googleapis.com'
p1830
aS'v13.lscache7.c.bigcache.googleapis.com'
p1831
aS'v13.lscache8.c.bigcache.googleapis.com'
p1832
aS'v13.lscache4.c.bigcache.googleapis.com'
p1833
aS'v14.lscache3.c.bigcache.googleapis.com'
p1834
aS'v14.lscache1.c.bigcache.googleapis.com'
p1835
aS'v14.lscache5.c.bigcache.googleapis.com'
p1836
aS'v14.lscache4.c.bigcache.googleapis.com'
p1837
aS'v15.lscache1.c.bigcache.googleapis.com'
p1838
aS'v15.lscache2.c.bigcache.googleapis.com'
p1839
aS'v14.lscache7.c.bigcache.googleapis.com'
p1840
aS'v14.lscache2.c.bigcache.googleapis.com'
p1841
aS'v14.lscache6.c.bigcache.googleapis.com'
p1842
aS'v14.lscache8.c.bigcache.googleapis.com'
p1843
aS'v15.lscache4.c.bigcache.googleapis.com'
p1844
aS'v16.lscache2.c.bigcache.googleapis.com'
p1845
aS'v15.lscache8.c.bigcache.googleapis.com'
p1846
aS'v15.lscache6.c.bigcache.googleapis.com'
p1847
aS'v15.lscache5.c.bigcache.googleapis.com'
p1848
aS'v15.lscache3.c.bigcache.googleapis.com'
p1849
aS'v15.lscache7.c.bigcache.googleapis.com'
p1850
aS'v16.lscache1.c.bigcache.googleapis.com'
p1851
aS'v16.lscache4.c.bigcache.googleapis.com'
p1852
aS'v16.lscache3.c.bigcache.googleapis.com'
p1853
aS'v16.lscache5.c.bigcache.googleapis.com'
p1854
aS'v17.lscache1.c.bigcache.googleapis.com'
p1855
aS'v17.lscache3.c.bigcache.googleapis.com'
p1856
aS'v17.lscache4.c.bigcache.googleapis.com'
p1857
aS'v17.lscache2.c.bigcache.googleapis.com'
p1858
aS'v16.lscache7.c.bigcache.googleapis.com'
p1859
aS'v16.lscache6.c.bigcache.googleapis.com'
p1860
aS'v17.lscache5.c.bigcache.googleapis.com'
p1861
aS'v16.lscache8.c.bigcache.googleapis.com'
p1862
aS'v17.lscache6.c.bigcache.googleapis.com'
p1863
aS'v17.lscache7.c.bigcache.googleapis.com'
p1864
aS'v18.lscache3.c.bigcache.googleapis.com'
p1865
aS'v18.lscache4.c.bigcache.googleapis.com'
p1866
aS'v18.lscache5.c.bigcache.googleapis.com'
p1867
aS'v18.lscache6.c.bigcache.googleapis.com'
p1868
aS'v17.lscache8.c.bigcache.googleapis.com'
p1869
aS'v18.lscache1.c.bigcache.googleapis.com'
p1870
aS'v18.lscache2.c.bigcache.googleapis.com'
p1871
aS'v18.lscache7.c.bigcache.googleapis.com'
p1872
aS'v18.lscache8.c.bigcache.googleapis.com'
p1873
aS'v19.lscache1.c.bigcache.googleapis.com'
p1874
aS'v19.lscache3.c.bigcache.googleapis.com'
p1875
aS'v19.lscache2.c.bigcache.googleapis.com'
p1876
aS'v19.lscache4.c.bigcache.googleapis.com'
p1877
aS'v19.lscache5.c.bigcache.googleapis.com'
p1878
aS'v19.lscache7.c.bigcache.googleapis.com'
p1879
aS'v19.lscache6.c.bigcache.googleapis.com'
p1880
aS'v19.lscache8.c.bigcache.googleapis.com'
p1881
aS'v20.lscache1.c.bigcache.googleapis.com'
p1882
aS'v20.lscache3.c.bigcache.googleapis.com'
p1883
aS'v20.lscache2.c.bigcache.googleapis.com'
p1884
aS'v20.lscache4.c.bigcache.googleapis.com'
p1885
aS'v21.lscache3.c.bigcache.googleapis.com'
p1886
aS'v20.lscache6.c.bigcache.googleapis.com'
p1887
aS'v20.lscache8.c.bigcache.googleapis.com'
p1888
aS'v21.lscache2.c.bigcache.googleapis.com'
p1889
aS'v20.lscache5.c.bigcache.googleapis.com'
p1890
aS'v21.lscache1.c.bigcache.googleapis.com'
p1891
aS'v20.lscache7.c.bigcache.googleapis.com'
p1892
aS'v21.lscache4.c.bigcache.googleapis.com'
p1893
aS'v21.lscache5.c.bigcache.googleapis.com'
p1894
aS'v21.lscache6.c.bigcache.googleapis.com'
p1895
aS'v22.lscache2.c.bigcache.googleapis.com'
p1896
aS'v21.lscache7.c.bigcache.googleapis.com'
p1897
aS'v22.lscache1.c.bigcache.googleapis.com'
p1898
aS'v22.lscache3.c.bigcache.googleapis.com'
p1899
aS'v21.lscache8.c.bigcache.googleapis.com'
p1900
aS'v22.lscache5.c.bigcache.googleapis.com'
p1901
aS'v22.lscache4.c.bigcache.googleapis.com'
p1902
aS'v22.lscache8.c.bigcache.googleapis.com'
p1903
aS'v23.lscache1.c.bigcache.googleapis.com'
p1904
aS'v22.lscache6.c.bigcache.googleapis.com'
p1905
aS'v22.lscache7.c.bigcache.googleapis.com'
p1906
aS'v23.lscache4.c.bigcache.googleapis.com'
p1907
aS'v23.lscache6.c.bigcache.googleapis.com'
p1908
aS'v23.lscache2.c.bigcache.googleapis.com'
p1909
aS'v23.lscache3.c.bigcache.googleapis.com'
p1910
aS'v23.lscache5.c.bigcache.googleapis.com'
p1911
aS'v23.lscache7.c.bigcache.googleapis.com'
p1912
aS'v24.lscache2.c.bigcache.googleapis.com'
p1913
aS'v23.lscache8.c.bigcache.googleapis.com'
p1914
aS'v24.lscache3.c.bigcache.googleapis.com'
p1915
aS'v24.lscache4.c.bigcache.googleapis.com'
p1916
aS'v24.lscache6.c.bigcache.googleapis.com'
p1917
aS'v24.lscache1.c.bigcache.googleapis.com'
p1918
aS'v24.lscache7.c.bigcache.googleapis.com'
p1919
aS'v24.lscache8.c.bigcache.googleapis.com'
p1920
aS'v24.lscache5.c.bigcache.googleapis.com'
p1921
aS'v1.cache1.c.bigcache.googleapis.com'
p1922
aS'v1.cache2.c.bigcache.googleapis.com'
p1923
aS'v1.cache4.c.bigcache.googleapis.com'
p1924
aS'v1.cache3.c.bigcache.googleapis.com'
p1925
aS'v1.cache5.c.bigcache.googleapis.com'
p1926
aS'v1.cache6.c.bigcache.googleapis.com'
p1927
aS'v1.cache7.c.bigcache.googleapis.com'
p1928
aS'v1.cache8.c.bigcache.googleapis.com'
p1929
aS'v2.cache1.c.bigcache.googleapis.com'
p1930
aS'v2.cache2.c.bigcache.googleapis.com'
p1931
aS'v2.cache6.c.bigcache.googleapis.com'
p1932
aS'v2.cache8.c.bigcache.googleapis.com'
p1933
aS'v2.cache4.c.bigcache.googleapis.com'
p1934
aS'v2.cache3.c.bigcache.googleapis.com'
p1935
aS'v2.cache5.c.bigcache.googleapis.com'
p1936
aS'v3.cache1.c.bigcache.googleapis.com'
p1937
aS'v3.cache2.c.bigcache.googleapis.com'
p1938
aS'v2.cache7.c.bigcache.googleapis.com'
p1939
aS'v3.cache3.c.bigcache.googleapis.com'
p1940
aS'v3.cache4.c.bigcache.googleapis.com'
p1941
aS'v4.cache1.c.bigcache.googleapis.com'
p1942
aS'v4.cache4.c.bigcache.googleapis.com'
p1943
aS'v3.cache6.c.bigcache.googleapis.com'
p1944
aS'v4.cache3.c.bigcache.googleapis.com'
p1945
aS'v4.cache6.c.bigcache.googleapis.com'
p1946
aS'v4.cache5.c.bigcache.googleapis.com'
p1947
aS'v4.cache2.c.bigcache.googleapis.com'
p1948
aS'v3.cache5.c.bigcache.googleapis.com'
p1949
aS'v3.cache8.c.bigcache.googleapis.com'
p1950
aS'v3.cache7.c.bigcache.googleapis.com'
p1951
aS'v4.cache7.c.bigcache.googleapis.com'
p1952
aS'v4.cache8.c.bigcache.googleapis.com'
p1953
aS'v5.cache4.c.bigcache.googleapis.com'
p1954
aS'v5.cache3.c.bigcache.googleapis.com'
p1955
aS'v5.cache5.c.bigcache.googleapis.com'
p1956
aS'v5.cache2.c.bigcache.googleapis.com'
p1957
aS'v5.cache1.c.bigcache.googleapis.com'
p1958
aS'v5.cache8.c.bigcache.googleapis.com'
p1959
aS'v5.cache6.c.bigcache.googleapis.com'
p1960
aS'v5.cache7.c.bigcache.googleapis.com'
p1961
aS'v6.cache1.c.bigcache.googleapis.com'
p1962
aS'v6.cache4.c.bigcache.googleapis.com'
p1963
aS'v6.cache5.c.bigcache.googleapis.com'
p1964
aS'v6.cache6.c.bigcache.googleapis.com'
p1965
aS'v6.cache7.c.bigcache.googleapis.com'
p1966
aS'v6.cache2.c.bigcache.googleapis.com'
p1967
aS'v6.cache3.c.bigcache.googleapis.com'
p1968
aS'v7.cache1.c.bigcache.googleapis.com'
p1969
aS'v7.cache2.c.bigcache.googleapis.com'
p1970
aS'v6.cache8.c.bigcache.googleapis.com'
p1971
aS'v7.cache3.c.bigcache.googleapis.com'
p1972
aS'v7.cache4.c.bigcache.googleapis.com'
p1973
aS'v7.cache5.c.bigcache.googleapis.com'
p1974
aS'v7.cache6.c.bigcache.googleapis.com'
p1975
aS'v7.cache7.c.bigcache.googleapis.com'
p1976
aS'v7.cache8.c.bigcache.googleapis.com'
p1977
aS'v8.cache1.c.bigcache.googleapis.com'
p1978
aS'v8.cache2.c.bigcache.googleapis.com'
p1979
aS'v8.cache3.c.bigcache.googleapis.com'
p1980
aS'v9.cache1.c.bigcache.googleapis.com'
p1981
aS'v9.cache2.c.bigcache.googleapis.com'
p1982
aS'v9.cache3.c.bigcache.googleapis.com'
p1983
aS'v9.cache4.c.bigcache.googleapis.com'
p1984
aS'v9.cache5.c.bigcache.googleapis.com'
p1985
aS'v9.cache6.c.bigcache.googleapis.com'
p1986
aS'v9.cache7.c.bigcache.googleapis.com'
p1987
aS'v9.cache8.c.bigcache.googleapis.com'
p1988
aS'v10.cache1.c.bigcache.googleapis.com'
p1989
aS'v10.cache2.c.bigcache.googleapis.com'
p1990
aS'v10.cache3.c.bigcache.googleapis.com'
p1991
aS'v10.cache4.c.bigcache.googleapis.com'
p1992
aS'v10.cache5.c.bigcache.googleapis.com'
p1993
aS'v10.cache6.c.bigcache.googleapis.com'
p1994
aS'v10.cache7.c.bigcache.googleapis.com'
p1995
aS'v10.cache8.c.bigcache.googleapis.com'
p1996
aS'v11.cache1.c.bigcache.googleapis.com'
p1997
aS'v11.cache2.c.bigcache.googleapis.com'
p1998
aS'v11.cache3.c.bigcache.googleapis.com'
p1999
aS'v11.cache4.c.bigcache.googleapis.com'
p2000
aS'v11.cache5.c.bigcache.googleapis.com'
p2001
aS'v11.cache6.c.bigcache.googleapis.com'
p2002
aS'v11.cache7.c.bigcache.googleapis.com'
p2003
aS'v11.cache8.c.bigcache.googleapis.com'
p2004
aS'v12.cache1.c.bigcache.googleapis.com'
p2005
aS'v12.cache2.c.bigcache.googleapis.com'
p2006
aS'v12.cache3.c.bigcache.googleapis.com'
p2007
aS'v12.cache4.c.bigcache.googleapis.com'
p2008
aS'v12.cache5.c.bigcache.googleapis.com'
p2009
aS'v12.cache6.c.bigcache.googleapis.com'
p2010
aS'v12.cache7.c.bigcache.googleapis.com'
p2011
aS'v12.cache8.c.bigcache.googleapis.com'
p2012
aS'v13.cache1.c.bigcache.googleapis.com'
p2013
aS'v13.cache2.c.bigcache.googleapis.com'
p2014
aS'v13.cache3.c.bigcache.googleapis.com'
p2015
aS'v13.cache4.c.bigcache.googleapis.com'
p2016
aS'v13.cache5.c.bigcache.googleapis.com'
p2017
aS'v13.cache6.c.bigcache.googleapis.com'
p2018
aS'v13.cache7.c.bigcache.googleapis.com'
p2019
aS'v13.cache8.c.bigcache.googleapis.com'
p2020
aS'v14.cache1.c.bigcache.googleapis.com'
p2021
aS'v14.cache2.c.bigcache.googleapis.com'
p2022
aS'v14.cache3.c.bigcache.googleapis.com'
p2023
aS'v14.cache4.c.bigcache.googleapis.com'
p2024
aS'v8.cache4.c.bigcache.googleapis.com'
p2025
aS'v8.cache5.c.bigcache.googleapis.com'
p2026
aS'v8.cache7.c.bigcache.googleapis.com'
p2027
aS'v8.cache8.c.bigcache.googleapis.com'
p2028
aS'v8.cache6.c.bigcache.googleapis.com'
p2029
aS'v14.cache5.c.bigcache.googleapis.com'
p2030
aS'v14.cache6.c.bigcache.googleapis.com'
p2031
aS'v14.cache7.c.bigcache.googleapis.com'
p2032
aS'v14.cache8.c.bigcache.googleapis.com'
p2033
aS'v15.cache1.c.bigcache.googleapis.com'
p2034
aS'v15.cache2.c.bigcache.googleapis.com'
p2035
aS'v15.cache3.c.bigcache.googleapis.com'
p2036
aS'v15.cache4.c.bigcache.googleapis.com'
p2037
aS'v15.cache5.c.bigcache.googleapis.com'
p2038
aS'v15.cache6.c.bigcache.googleapis.com'
p2039
aS'v15.cache7.c.bigcache.googleapis.com'
p2040
aS'v15.cache8.c.bigcache.googleapis.com'
p2041
aS'v16.cache1.c.bigcache.googleapis.com'
p2042
aS'v16.cache2.c.bigcache.googleapis.com'
p2043
aS'v16.cache3.c.bigcache.googleapis.com'
p2044
aS'v16.cache4.c.bigcache.googleapis.com'
p2045
aS'v16.cache5.c.bigcache.googleapis.com'
p2046
aS'v16.cache6.c.bigcache.googleapis.com'
p2047
aS'v16.cache7.c.bigcache.googleapis.com'
p2048
aS'v16.cache8.c.bigcache.googleapis.com'
p2049
aS'v17.cache1.c.bigcache.googleapis.com'
p2050
aS'v17.cache2.c.bigcache.googleapis.com'
p2051
aS'v17.cache3.c.bigcache.googleapis.com'
p2052
aS'v17.cache4.c.bigcache.googleapis.com'
p2053
aS'v17.cache6.c.bigcache.googleapis.com'
p2054
aS'v17.cache7.c.bigcache.googleapis.com'
p2055
aS'v17.cache5.c.bigcache.googleapis.com'
p2056
aS'v17.cache8.c.bigcache.googleapis.com'
p2057
aS'v18.cache1.c.bigcache.googleapis.com'
p2058
aS'v18.cache2.c.bigcache.googleapis.com'
p2059
aS'v18.cache3.c.bigcache.googleapis.com'
p2060
aS'v18.cache4.c.bigcache.googleapis.com'
p2061
aS'v18.cache5.c.bigcache.googleapis.com'
p2062
aS'v18.cache6.c.bigcache.googleapis.com'
p2063
aS'v18.cache7.c.bigcache.googleapis.com'
p2064
aS'v18.cache8.c.bigcache.googleapis.com'
p2065
aS'v19.cache1.c.bigcache.googleapis.com'
p2066
aS'v19.cache2.c.bigcache.googleapis.com'
p2067
aS'v19.cache3.c.bigcache.googleapis.com'
p2068
aS'v19.cache4.c.bigcache.googleapis.com'
p2069
aS'v19.cache5.c.bigcache.googleapis.com'
p2070
aS'v19.cache6.c.bigcache.googleapis.com'
p2071
aS'v19.cache7.c.bigcache.googleapis.com'
p2072
aS'v19.cache8.c.bigcache.googleapis.com'
p2073
aS'v20.cache1.c.bigcache.googleapis.com'
p2074
aS'v20.cache2.c.bigcache.googleapis.com'
p2075
aS'v20.cache3.c.bigcache.googleapis.com'
p2076
aS'v20.cache4.c.bigcache.googleapis.com'
p2077
aS'v20.cache5.c.bigcache.googleapis.com'
p2078
aS'v20.cache6.c.bigcache.googleapis.com'
p2079
aS'v20.cache7.c.bigcache.googleapis.com'
p2080
aS'v20.cache8.c.bigcache.googleapis.com'
p2081
aS'v21.cache1.c.bigcache.googleapis.com'
p2082
aS'v21.cache2.c.bigcache.googleapis.com'
p2083
aS'v21.cache3.c.bigcache.googleapis.com'
p2084
aS'v21.cache4.c.bigcache.googleapis.com'
p2085
aS'v21.cache5.c.bigcache.googleapis.com'
p2086
aS'v21.cache6.c.bigcache.googleapis.com'
p2087
aS'v21.cache7.c.bigcache.googleapis.com'
p2088
aS'v21.cache8.c.bigcache.googleapis.com'
p2089
aS'v22.cache1.c.bigcache.googleapis.com'
p2090
aS'v22.cache2.c.bigcache.googleapis.com'
p2091
aS'v22.cache3.c.bigcache.googleapis.com'
p2092
aS'v22.cache4.c.bigcache.googleapis.com'
p2093
aS'v22.cache5.c.bigcache.googleapis.com'
p2094
aS'v22.cache6.c.bigcache.googleapis.com'
p2095
aS'v22.cache7.c.bigcache.googleapis.com'
p2096
aS'v22.cache8.c.bigcache.googleapis.com'
p2097
aS'v23.cache1.c.bigcache.googleapis.com'
p2098
aS'v23.cache2.c.bigcache.googleapis.com'
p2099
aS'v23.cache3.c.bigcache.googleapis.com'
p2100
aS'v23.cache4.c.bigcache.googleapis.com'
p2101
aS'v23.cache5.c.bigcache.googleapis.com'
p2102
aS'v23.cache6.c.bigcache.googleapis.com'
p2103
aS'v23.cache7.c.bigcache.googleapis.com'
p2104
aS'v23.cache8.c.bigcache.googleapis.com'
p2105
aS'v24.cache1.c.bigcache.googleapis.com'
p2106
aS'v24.cache2.c.bigcache.googleapis.com'
p2107
aS'v24.cache3.c.bigcache.googleapis.com'
p2108
aS'v24.cache4.c.bigcache.googleapis.com'
p2109
aS'v24.cache5.c.bigcache.googleapis.com'
p2110
aS'v24.cache6.c.bigcache.googleapis.com'
p2111
aS'v24.cache7.c.bigcache.googleapis.com'
p2112
aS'v24.cache8.c.bigcache.googleapis.com'
p2113
aS'r1.hkg03s05.c.bigcache.googleapis.com'
p2114
aS'r2.hkg03s06.c.bigcache.googleapis.com'
p2115
aS'r3.hkg03s06.c.bigcache.googleapis.com'
p2116
aS'r3.hkg03s05.c.bigcache.googleapis.com'
p2117
aS'r2.hkg03s07.c.bigcache.googleapis.com'
p2118
aS'r2.hkg03s08.c.bigcache.googleapis.com'
p2119
aS'r1.hkg03s06.c.bigcache.googleapis.com'
p2120
aS'r1.hkg03s07.c.bigcache.googleapis.com'
p2121
aS'r1.hkg03s08.c.bigcache.googleapis.com'
p2122
aS'r2.hkg03s05.c.bigcache.googleapis.com'
p2123
aS'r4.hkg03s05.c.bigcache.googleapis.com'
p2124
aS'r4.hkg03s06.c.bigcache.googleapis.com'
p2125
aS'r3.hkg03s07.c.bigcache.googleapis.com'
p2126
aS'r3.hkg03s08.c.bigcache.googleapis.com'
p2127
aS'r4.hkg03s07.c.bigcache.googleapis.com'
p2128
aS'r5.hkg03s06.c.bigcache.googleapis.com'
p2129
aS'r6.hkg03s05.c.bigcache.googleapis.com'
p2130
aS'r5.hkg03s07.c.bigcache.googleapis.com'
p2131
aS'r5.hkg03s08.c.bigcache.googleapis.com'
p2132
aS'r5.hkg03s05.c.bigcache.googleapis.com'
p2133
aS'r4.hkg03s08.c.bigcache.googleapis.com'
p2134
aS'r6.hkg03s07.c.bigcache.googleapis.com'
p2135
aS'r6.hkg03s06.c.bigcache.googleapis.com'
p2136
aS'r6.hkg03s08.c.bigcache.googleapis.com'
p2137
aS'r7.hkg03s05.c.bigcache.googleapis.com'
p2138
aS'r8.hkg03s05.c.bigcache.googleapis.com'
p2139
aS'r8.hkg03s07.c.bigcache.googleapis.com'
p2140
aS'r9.hkg03s06.c.bigcache.googleapis.com'
p2141
aS'r7.hkg03s06.c.bigcache.googleapis.com'
p2142
aS'r9.hkg03s05.c.bigcache.googleapis.com'
p2143
aS'r7.hkg03s07.c.bigcache.googleapis.com'
p2144
aS'r8.hkg03s06.c.bigcache.googleapis.com'
p2145
aS'r8.hkg03s08.c.bigcache.googleapis.com'
p2146
aS'r7.hkg03s08.c.bigcache.googleapis.com'
p2147
aS'r10.hkg03s05.c.bigcache.googleapis.com'
p2148
aS'r10.hkg03s08.c.bigcache.googleapis.com'
p2149
aS'r11.hkg03s05.c.bigcache.googleapis.com'
p2150
aS'r9.hkg03s07.c.bigcache.googleapis.com'
p2151
aS'r9.hkg03s08.c.bigcache.googleapis.com'
p2152
aS'r10.hkg03s06.c.bigcache.googleapis.com'
p2153
aS'r10.hkg03s07.c.bigcache.googleapis.com'
p2154
aS'r11.hkg03s06.c.bigcache.googleapis.com'
p2155
aS'r11.hkg03s07.c.bigcache.googleapis.com'
p2156
aS'r11.hkg03s08.c.bigcache.googleapis.com'
p2157
aS'r12.hkg03s05.c.bigcache.googleapis.com'
p2158
aS'r12.hkg03s06.c.bigcache.googleapis.com'
p2159
aS'r12.hkg03s07.c.bigcache.googleapis.com'
p2160
aS'r12.hkg03s08.c.bigcache.googleapis.com'
p2161
aS'r13.hkg03s05.c.bigcache.googleapis.com'
p2162
aS'r13.hkg03s06.c.bigcache.googleapis.com'
p2163
aS'r13.hkg03s07.c.bigcache.googleapis.com'
p2164
aS'r13.hkg03s08.c.bigcache.googleapis.com'
p2165
aS'r14.hkg03s05.c.bigcache.googleapis.com'
p2166
aS'r14.hkg03s06.c.bigcache.googleapis.com'
p2167
aS'r14.hkg03s07.c.bigcache.googleapis.com'
p2168
aS'r15.hkg03s05.c.bigcache.googleapis.com'
p2169
aS'r14.hkg03s08.c.bigcache.googleapis.com'
p2170
aS'r15.hkg03s08.c.bigcache.googleapis.com'
p2171
aS'r15.hkg03s06.c.bigcache.googleapis.com'
p2172
aS'r16.hkg03s06.c.bigcache.googleapis.com'
p2173
aS'r15.hkg03s07.c.bigcache.googleapis.com'
p2174
aS'r16.hkg03s07.c.bigcache.googleapis.com'
p2175
aS'r16.hkg03s05.c.bigcache.googleapis.com'
p2176
aS'r17.hkg03s05.c.bigcache.googleapis.com'
p2177
aS'r16.hkg03s08.c.bigcache.googleapis.com'
p2178
aS'r17.hkg03s07.c.bigcache.googleapis.com'
p2179
aS'r17.hkg03s06.c.bigcache.googleapis.com'
p2180
aS'r17.hkg03s08.c.bigcache.googleapis.com'
p2181
aS'r18.hkg03s07.c.bigcache.googleapis.com'
p2182
aS'r18.hkg03s05.c.bigcache.googleapis.com'
p2183
aS'r18.hkg03s08.c.bigcache.googleapis.com'
p2184
aS'r18.hkg03s06.c.bigcache.googleapis.com'
p2185
aS'r1.hkg05s01.c.bigcache.googleapis.com'
p2186
aS'r1.hkg05s02.c.bigcache.googleapis.com'
p2187
aS'r19.hkg03s05.c.bigcache.googleapis.com'
p2188
aS'r1.hkg05s03.c.bigcache.googleapis.com'
p2189
aS'r1.hkg05s04.c.bigcache.googleapis.com'
p2190
aS'r2.hkg05s01.c.bigcache.googleapis.com'
p2191
aS'r2.hkg05s02.c.bigcache.googleapis.com'
p2192
aS'r2.hkg05s03.c.bigcache.googleapis.com'
p2193
aS'r2.hkg05s04.c.bigcache.googleapis.com'
p2194
aS'r3.hkg05s01.c.bigcache.googleapis.com'
p2195
aS'r3.hkg05s02.c.bigcache.googleapis.com'
p2196
aS'r3.hkg05s03.c.bigcache.googleapis.com'
p2197
aS'r3.hkg05s04.c.bigcache.googleapis.com'
p2198
aS'r4.hkg05s01.c.bigcache.googleapis.com'
p2199
aS'r4.hkg05s02.c.bigcache.googleapis.com'
p2200
aS'r4.hkg05s03.c.bigcache.googleapis.com'
p2201
aS'r4.hkg05s04.c.bigcache.googleapis.com'
p2202
aS'r5.hkg05s01.c.bigcache.googleapis.com'
p2203
aS'r5.hkg05s02.c.bigcache.googleapis.com'
p2204
aS'r5.hkg05s03.c.bigcache.googleapis.com'
p2205
aS'r5.hkg05s04.c.bigcache.googleapis.com'
p2206
aS'r6.hkg05s01.c.bigcache.googleapis.com'
p2207
aS'r6.hkg05s02.c.bigcache.googleapis.com'
p2208
aS'r6.hkg05s03.c.bigcache.googleapis.com'
p2209
aS'r6.hkg05s04.c.bigcache.googleapis.com'
p2210
aS'r7.hkg05s01.c.bigcache.googleapis.com'
p2211
aS'r7.hkg05s02.c.bigcache.googleapis.com'
p2212
aS'r7.hkg05s03.c.bigcache.googleapis.com'
p2213
aS'r7.hkg05s04.c.bigcache.googleapis.com'
p2214
aS'r8.hkg05s01.c.bigcache.googleapis.com'
p2215
aS'r8.hkg05s02.c.bigcache.googleapis.com'
p2216
aS'r8.hkg05s03.c.bigcache.googleapis.com'
p2217
aS'r8.hkg05s04.c.bigcache.googleapis.com'
p2218
aS'r19.hkg03s06.c.bigcache.googleapis.com'
p2219
aS'r20.hkg03s05.c.bigcache.googleapis.com'
p2220
aS'r19.hkg03s08.c.bigcache.googleapis.com'
p2221
aS'r19.hkg03s07.c.bigcache.googleapis.com'
p2222
aS'r20.hkg03s08.c.bigcache.googleapis.com'
p2223
aS'r20.hkg03s07.c.bigcache.googleapis.com'
p2224
aS'r20.hkg03s06.c.bigcache.googleapis.com'
p2225
aS'r9.hkg05s01.c.bigcache.googleapis.com'
p2226
aS'r9.hkg05s02.c.bigcache.googleapis.com'
p2227
aS'r9.hkg05s03.c.bigcache.googleapis.com'
p2228
aS'r9.hkg05s04.c.bigcache.googleapis.com'
p2229
aS'r10.hkg05s01.c.bigcache.googleapis.com'
p2230
aS'r10.hkg05s02.c.bigcache.googleapis.com'
p2231
aS'r10.hkg05s03.c.bigcache.googleapis.com'
p2232
aS'r10.hkg05s04.c.bigcache.googleapis.com'
p2233
aS'r11.hkg05s01.c.bigcache.googleapis.com'
p2234
aS'r11.hkg05s02.c.bigcache.googleapis.com'
p2235
aS'r11.hkg05s03.c.bigcache.googleapis.com'
p2236
aS'r11.hkg05s04.c.bigcache.googleapis.com'
p2237
aS'r12.hkg05s01.c.bigcache.googleapis.com'
p2238
aS'r12.hkg05s02.c.bigcache.googleapis.com'
p2239
aS'r12.hkg05s03.c.bigcache.googleapis.com'
p2240
aS'r12.hkg05s04.c.bigcache.googleapis.com'
p2241
aS'r13.hkg05s01.c.bigcache.googleapis.com'
p2242
aS'r13.hkg05s02.c.bigcache.googleapis.com'
p2243
aS'r13.hkg05s03.c.bigcache.googleapis.com'
p2244
aS'r13.hkg05s04.c.bigcache.googleapis.com'
p2245
aS'r14.hkg05s01.c.bigcache.googleapis.com'
p2246
aS'r14.hkg05s02.c.bigcache.googleapis.com'
p2247
aS'r14.hkg05s03.c.bigcache.googleapis.com'
p2248
aS'r14.hkg05s04.c.bigcache.googleapis.com'
p2249
aS'r15.hkg05s01.c.bigcache.googleapis.com'
p2250
aS'r15.hkg05s02.c.bigcache.googleapis.com'
p2251
aS'r15.hkg05s03.c.bigcache.googleapis.com'
p2252
aS'r15.hkg05s04.c.bigcache.googleapis.com'
p2253
aS'r16.hkg05s01.c.bigcache.googleapis.com'
p2254
aS'r16.hkg05s02.c.bigcache.googleapis.com'
p2255
aS'r16.hkg05s03.c.bigcache.googleapis.com'
p2256
aS'r16.hkg05s04.c.bigcache.googleapis.com'
p2257
aS'r17.hkg05s01.c.bigcache.googleapis.com'
p2258
aS'r17.hkg05s02.c.bigcache.googleapis.com'
p2259
aS'r17.hkg05s03.c.bigcache.googleapis.com'
p2260
aS'r17.hkg05s04.c.bigcache.googleapis.com'
p2261
aS'r18.hkg05s01.c.bigcache.googleapis.com'
p2262
aS'r18.hkg05s02.c.bigcache.googleapis.com'
p2263
aS'r18.hkg05s03.c.bigcache.googleapis.com'
p2264
aS'r18.hkg05s04.c.bigcache.googleapis.com'
p2265
aS'r19.hkg05s01.c.bigcache.googleapis.com'
p2266
aS'r19.hkg05s02.c.bigcache.googleapis.com'
p2267
aS'r19.hkg05s03.c.bigcache.googleapis.com'
p2268
aS'r19.hkg05s04.c.bigcache.googleapis.com'
p2269
aS'r20.hkg05s01.c.bigcache.googleapis.com'
p2270
aS'r20.hkg05s02.c.bigcache.googleapis.com'
p2271
aS'r20.hkg05s03.c.bigcache.googleapis.com'
p2272
aS'r20.hkg05s04.c.bigcache.googleapis.com'
p2273
aS'commondatastorage.googleapis.com'
p2274
aS'chromium-browser-symbols.commondatastorage.googleapis.com'
p2275
aS'googlehosted.l.googleusercontent.com'
p2276
aS'c.commondatastorage.googleapis.com'
p2277
aS'bucket.commondatastorage.googleapis.com'
p2278
aS'storage.l.googleusercontent.com'
p2279
aS'googlehosted.l.google.com'
p2280
aS'base.googlehosted.com'
p2281
aS'www.googlehosted.com'
p2282
aS'base0.googlehosted.com'
p2283
aS'base1.googlehosted.com'
p2284
aS'androidmarket.googleusercontent.com'
p2285
aS'base3.googlehosted.com'
p2286
aS'base4.googlehosted.com'
p2287
aS'base5.googlehosted.com'
p2288
aS'base2.googlehosted.com'
p2289
aS'www.googleusercontent.com'
p2290
aS'blogger.googleusercontent.com'
p2291
aS'www-blogger-opensocial.googleusercontent.com'
p2292
aS'clients2.googleusercontent.com'
p2293
aS'clients1.googleusercontent.com'
p2294
aS'doc-00-1k-docs.googleusercontent.com'
p2295
aS'doc-00-1o-docs.googleusercontent.com'
p2296
aS'doc-04-1o-docs.googleusercontent.com'
p2297
aS'doc-08-1o-docs.googleusercontent.com'
p2298
aS'doc-0c-1o-docs.googleusercontent.com'
p2299
aS'doc-0g-1o-docs.googleusercontent.com'
p2300
aS'doc-0k-1o-docs.googleusercontent.com'
p2301
aS'doc-0o-1o-docs.googleusercontent.com'
p2302
aS'doc-0s-1o-docs.googleusercontent.com'
p2303
aS'doc-10-1o-docs.googleusercontent.com'
p2304
aS'doc-14-1o-docs.googleusercontent.com'
p2305
aS'doc-0k-38-docs.googleusercontent.com'
p2306
aS'doc-04-6c-docs.googleusercontent.com'
p2307
aS'doc-08-6c-docs.googleusercontent.com'
p2308
aS'doc-00-6c-docs.googleusercontent.com'
p2309
aS'doc-0c-6c-docs.googleusercontent.com'
p2310
aS'doc-0o-6c-docs.googleusercontent.com'
p2311
aS'doc-10-2c-docs.googleusercontent.com'
p2312
aS'doc-0g-6c-docs.googleusercontent.com'
p2313
aS'doc-0k-6c-docs.googleusercontent.com'
p2314
aS'doc-0s-6c-docs.googleusercontent.com'
p2315
aS'doc-10-6c-docs.googleusercontent.com'
p2316
aS'doc-14-6c-docs.googleusercontent.com'
p2317
aS'doc-0o-74-docs.googleusercontent.com'
p2318
aS'doc-14-74-docs.googleusercontent.com'
p2319
aS'doc-00-7o-docs.googleusercontent.com'
p2320
aS'doc-04-7o-docs.googleusercontent.com'
p2321
aS'doc-08-7o-docs.googleusercontent.com'
p2322
aS'doc-0c-7o-docs.googleusercontent.com'
p2323
aS'doc-0k-7o-docs.googleusercontent.com'
p2324
aS'doc-00-8k-docs.googleusercontent.com'
p2325
aS'doc-08-8k-docs.googleusercontent.com'
p2326
aS'doc-0c-8k-docs.googleusercontent.com'
p2327
aS'doc-0o-7o-docs.googleusercontent.com'
p2328
aS'doc-0g-7o-docs.googleusercontent.com'
p2329
aS'doc-04-8k-docs.googleusercontent.com'
p2330
aS'doc-10-7o-docs.googleusercontent.com'
p2331
aS'doc-0s-7o-docs.googleusercontent.com'
p2332
aS'doc-14-7o-docs.googleusercontent.com'
p2333
aS'doc-0g-8k-docs.googleusercontent.com'
p2334
aS'doc-0s-8k-docs.googleusercontent.com'
p2335
aS'doc-10-8k-docs.googleusercontent.com'
p2336
aS'doc-0k-8k-docs.googleusercontent.com'
p2337
aS'doc-00-9k-docs.googleusercontent.com'
p2338
aS'doc-04-9k-docs.googleusercontent.com'
p2339
aS'doc-0o-8k-docs.googleusercontent.com'
p2340
aS'doc-0c-9k-docs.googleusercontent.com'
p2341
aS'doc-14-8k-docs.googleusercontent.com'
p2342
aS'doc-08-9k-docs.googleusercontent.com'
p2343
aS'doc-0g-9k-docs.googleusercontent.com'
p2344
aS'doc-0k-9k-docs.googleusercontent.com'
p2345
aS'doc-0o-9k-docs.googleusercontent.com'
p2346
aS'doc-0s-9k-docs.googleusercontent.com'
p2347
aS'doc-14-9k-docs.googleusercontent.com'
p2348
aS'doc-10-9k-docs.googleusercontent.com'
p2349
aS'doc-00-as-docs.googleusercontent.com'
p2350
aS'doc-04-as-docs.googleusercontent.com'
p2351
aS'doc-0c-as-docs.googleusercontent.com'
p2352
aS'doc-08-as-docs.googleusercontent.com'
p2353
aS'doc-0g-as-docs.googleusercontent.com'
p2354
aS'doc-0o-as-docs.googleusercontent.com'
p2355
aS'doc-0k-as-docs.googleusercontent.com'
p2356
aS'doc-10-as-docs.googleusercontent.com'
p2357
aS'doc-14-as-docs.googleusercontent.com'
p2358
aS'doc-04-2g-3dwarehouse.googleusercontent.com'
p2359
aS'doc-0s-as-docs.googleusercontent.com'
p2360
aS'doc-08-2g-3dwarehouse.googleusercontent.com'
p2361
aS'doc-00-2g-3dwarehouse.googleusercontent.com'
p2362
aS'doc-0c-2g-3dwarehouse.googleusercontent.com'
p2363
aS'doc-0g-2g-3dwarehouse.googleusercontent.com'
p2364
aS'doc-0o-2g-3dwarehouse.googleusercontent.com'
p2365
aS'doc-0k-2g-3dwarehouse.googleusercontent.com'
p2366
aS'doc-10-2g-3dwarehouse.googleusercontent.com'
p2367
aS'doc-0s-2g-3dwarehouse.googleusercontent.com'
p2368
aS'doc-14-2g-3dwarehouse.googleusercontent.com'
p2369
aS'feedback.googleusercontent.com'
p2370
aS'mail-attachment.googleusercontent.com'
p2371
aS'lh0.googleusercontent.com'
p2372
aS'reader.googleusercontent.com'
p2373
aS'lh5.googleusercontent.com'
p2374
aS'lh4.googleusercontent.com'
p2375
aS'lh1.googleusercontent.com'
p2376
aS'static.googleusercontent.com'
p2377
aS'lh6.googleusercontent.com'
p2378
aS'lh3.googleusercontent.com'
p2379
aS'music-onebox.googleusercontent.com'
p2380
aS'lh2.googleusercontent.com'
p2381
aS'oauth.googleusercontent.com'
p2382
aS'translate.googleusercontent.com'
p2383
aS's2.googleusercontent.com'
p2384
aS'wave.googleusercontent.com'
p2385
aS'themes.googleusercontent.com'
p2386
aS'webcache.googleusercontent.com'
p2387
aS'www-opensocial.googleusercontent.com'
p2388
aS'ytimg.googleusercontent.com'
p2389
aS'code-opensocial.googleusercontent.com'
p2390
aS'images-docs-opensocial.googleusercontent.com'
p2391
aS'spreadsheets-opensocial.googleusercontent.com'
p2392
aS'www-gm-opensocial.googleusercontent.com'
p2393
aS'4lam9a1ki27mb9p1h5q3furvvf58ss02-a-gm-opensocial.googleusercontent.com'
p2394
aS'nl3atn8402ncgahndqn8rb6qi2ld2g5a-a-gm-opensocial.googleusercontent.com'
p2395
aS'www-opensocial-sandbox.googleusercontent.com'
p2396
aS'www-fc-opensocial.googleusercontent.com'
p2397
aS'8fkcem1ves287v3g5lu9gep1j91p3kk1-a-fc-opensocial.googleusercontent.com'
p2398
aS'images0-focus-opensocial.googleusercontent.com'
p2399
aS'images1-focus-opensocial.googleusercontent.com'
p2400
aS'www-focus-opensocial.googleusercontent.com'
p2401
aS'r1rk9np7bpcsfoeekl0khkd2juj27q3o-a-fc-opensocial.googleusercontent.com'
p2402
aS'images2-focus-opensocial.googleusercontent.com'
p2403
aS'images3-focus-opensocial.googleusercontent.com'
p2404
aS'images4-focus-opensocial.googleusercontent.com'
p2405
aS'images5-focus-opensocial.googleusercontent.com'
p2406
aS'images6-focus-opensocial.googleusercontent.com'
p2407
aS'images8-focus-opensocial.googleusercontent.com'
p2408
aS'images9-focus-opensocial.googleusercontent.com'
p2409
aS'www-focus-opensocial.googleusercontent.com'
p2410
aS'0-focus-opensocial.googleusercontent.com'
p2411
aS'images7-focus-opensocial.googleusercontent.com'
p2412
aS'1-focus-opensocial.googleusercontent.com'
p2413
aS'2-focus-opensocial.googleusercontent.com'
p2414
aS'3-focus-opensocial.googleusercontent.com'
p2415
aS'www-fusiontables-opensocial.googleusercontent.com'
p2416
aS'www-kix-opensocial.googleusercontent.com'
p2417
aS'images-lso-opensocial.googleusercontent.com'
p2418
aS'www-onepick-opensocial.googleusercontent.com'
p2419
aS'images-onepick-opensocial.googleusercontent.com'
p2420
aS'www-open-opensocial.googleusercontent.com'
p2421
aS'2-open-opensocial.googleusercontent.com'
p2422
aS'1-open-opensocial.googleusercontent.com'
p2423
aS'3-open-opensocial.googleusercontent.com'
p2424
aS'4fjvqid3r3oq66t548clrdj52df15coc-a-oz-opensocial.googleusercontent.com'
p2425
aS'0-open-opensocial.googleusercontent.com'
p2426
aS'53rd6p0catml6vat6qra84rs0del836d-a-oz-opensocial.googleusercontent.com'
p2427
aS'59cbv4l9s05pbaks9v77vc3mengeqors-a-oz-opensocial.googleusercontent.com'
p2428
aS'8kubpeu8314p2efdd7jlv09an9i2ljdo-a-oz-opensocial.googleusercontent.com'
p2429
aS'images-oz-opensocial.googleusercontent.com'
p2430
aS'www-oz-opensocial.googleusercontent.com'
p2431
aS'i8brh95qor6r54nkl52hidj2ggcs4jgm-a-oz-opensocial.googleusercontent.com'
p2432
aS'ob7f2qc0i50kbjnc81vkhgmb5hsv7a8l-a-oz-opensocial.googleusercontent.com'
p2433
aS'k6v18tjr24doa89b55o3na41kn4v73eb-a-oz-opensocial.googleusercontent.com'
p2434
aS'adstvca8k2ooaknjjmv89j22n9t676ve-a-oz-opensocial.googleusercontent.com'
p2435
aS'debh8vg7vd93bco3prdajidmm7dhql3f-a-oz-opensocial.googleusercontent.com'
p2436
aS'hsco54a20sh11q9jkmb51ad2n3hmkmrg-a-oz-opensocial.googleusercontent.com'
p2437
aS'r70rmsn4s0rhk6cehcbbcbfbs31pu0va-a-oz-opensocial.googleusercontent.com'
p2438
aS'bt26mravu2qpe56n8gnmjnpv2inl84bf-a-oz-opensocial.googleusercontent.com'
p2439
aS'rbjhe237k979f79d87gmenp3gejfonu9-a-oz-opensocial.googleusercontent.com'
p2440
aS'qhie5b8u979rnch1q0hqbrmbkn9estf7-a-oz-opensocial.googleusercontent.com'
p2441
aS'u807isd5egseeabjccgcns005p2miucq-a-oz-opensocial.googleusercontent.com'
p2442
aS'upt14k1i2veesusrda9nfotcrbp9d7p5-a-oz-opensocial.googleusercontent.com'
p2443
aS'4098j3r7bdqqvlggmhbnlu6u5i8d08jq-a-oz-opensocial.googleusercontent.com'
p2444
aS'images-pos-opensocial.googleusercontent.com'
p2445
aS'www-trixcopysheet-opensocial.googleusercontent.com'
p2446
aS'1-wave-opensocial.googleusercontent.com'
p2447
aS'www-wave-opensocial.googleusercontent.com'
p2448
aS'wave-opensocial.googleusercontent.com'
p2449
aS'0-wave-opensocial.googleusercontent.com'
p2450
aS'2-wave-opensocial.googleusercontent.com'
p2451
aS'3-wave-opensocial.googleusercontent.com'
p2452
aS'4-wave-opensocial.googleusercontent.com'
p2453
aS'5-wave-opensocial.googleusercontent.com'
p2454
aS'8-wave-opensocial.googleusercontent.com'
p2455
aS'7-wave-opensocial.googleusercontent.com'
p2456
aS'9-wave-opensocial.googleusercontent.com'
p2457
aS'12-wave-opensocial.googleusercontent.com'
p2458
aS'6-wave-opensocial.googleusercontent.com'
p2459
aS'10-wave-opensocial.googleusercontent.com'
p2460
aS'11-wave-opensocial.googleusercontent.com'
p2461
aS'13-wave-opensocial.googleusercontent.com'
p2462
aS'15-wave-opensocial.googleusercontent.com'
p2463
aS'14-wave-opensocial.googleusercontent.com'
p2464
aS'16-wave-opensocial.googleusercontent.com'
p2465
aS'17-wave-opensocial.googleusercontent.com'
p2466
aS'18-wave-opensocial.googleusercontent.com'
p2467
aS'19-wave-opensocial.googleusercontent.com'
p2468
aS'20-wave-opensocial.googleusercontent.com'
p2469
aS'21-wave-opensocial.googleusercontent.com'
p2470
aa(lp2471
V2607:f8b0:400a:801::1001
p2472
aV2607:f8b0:400e:c01::54
p2473
aV2001:4860:4860::8888
p2474
aV2001:4860:400b:c01::c1
p2475
aV2001:4860:4860::8844
p2476
aS''
p2477
aV2607:f8b0:400e:c01::54
p2478
aV2001:4860:400b:c01::5e
p2479
aV2607:f8b0:4001:c02::c1
p2480
aV2607:f8b0:4001:c02::c1
p2481
aV2607:f8b0:400a:801::1002
p2482
aV2a00:1450:4001:c02::65
p2483
aV2a00:1450:4001:c02::65
p2484
aV2a00:1450:4002:803::1000
p2485
ag2477
aV2607:f8b0:4004:800::1002
p2486
aV2607:f8b0:4009:800::1007
p2487
aV2a00:1450:4005:808::1004
p2488
aV2404:6800:4006:804::1003
p2489
aV2607:f8b0:400a:801::1001
p2490
aV2607:f8b0:4010:801::100f
p2491
aV2a00:1450:4005:808::1005
p2492
aV2607:f8b0:400a:801::100f
p2493
aV2607:f8b0:4001:c05::a0
p2494
aV2a00:1450:4009:804::1003
p2495
ag2477
aV2a00:1450:4001:c02::63
p2496
aV2607:f8b0:400d:c03::a0
p2497
aV2a00:1450:4013:c00::5e
p2498
aV2a00:1450:400c:c01::a0
p2499
aV2001:4860:400b:c01::a0
p2500
aV2001:4860:400b:c01::71
p2501
aV2a00:1450:4001:c02::a0
p2502
aV2607:f8b0:400a:801::1009
p2503
aV2a00:1450:4013:c01::84
p2504
aV2a00:1450:4013:c00::a0
p2505
aV2607:f8b0:400a:801::1017
p2506
aV2607:f8b0:400e:c01::a0
p2507
aV2607:f8b0:400a:800::1000
p2508
aV2a00:1450:4001:c02::a0
p2509
aV2607:f8b0:400a:801::101f
p2510
aV2404:6800:4005:800::1018
p2511
aV2607:f8b0:4004:800::100f
p2512
aV2a00:1450:4001:c02::5e
p2513
aV2607:f8b0:400c:c03::5e
p2514
aV2607:f8b0:400a:801::100f
p2515
aV2607:f8b0:400a:801::101f
p2516
aV2a00:1450:400c:c01::5e
p2517
aV2a00:1450:400c:c01::5e
p2518
aV2a00:1450:4009:804::100c
p2519
aV2607:f8b0:400a:801::1017
p2520
aV2001:4860:400b:c01::a0
p2521
aV2607:f8b0:4009:800::1018
p2522
aV2607:f8b0:400a:801::1017
p2523
aV2607:f8b0:4009:800::1017
p2524
aV2607:f8b0:400a:801::1018
p2525
aV2a00:1450:400c:c01::5e
p2526
aV2a00:1450:4013:c00::5e
p2527
aV2607:f8b0:400a:801::1017
p2528
aV2607:f8b0:400a:801::1017
p2529
aV2a00:1450:4005:808::101f
p2530
aV2a00:1450:4001:c02::5e
p2531
aV2a00:1450:4005:808::1018
p2532
aV2607:f8b0:4004:800::1017
p2533
aV2607:f8b0:4004:800::100f
p2534
aV2607:f8b0:4009:800::100f
p2535
aV2607:f8b0:4004:800::101f
p2536
aV2607:f8b0:4004:800::1017
p2537
aV2001:4860:400b:c01::5e
p2538
aV2607:f8b0:400a:801::1017
p2539
aV2607:f8b0:400a:801::1018
p2540
aV2607:f8b0:4009:806::1017
p2541
aV2607:f8b0:400a:801::1017
p2542
aV2607:f8b0:4009:800::101f
p2543
aV2a00:1450:4001:809::1018
p2544
ag2477
aV2607:f8b0:4009:800::1017
p2545
ag2477
aV2607:f8b0:4009:806::1017
p2546
aV2607:f8b0:4009:806::100f
p2547
aV2607:f8b0:400a:801::1018
p2548
aV2001:4860:400b:c01::5e
p2549
aV2001:4860:400b:c01::69
p2550
aV2a00:1450:4013:c01::68
p2551
aV2607:f8b0:400a:800::1004
p2552
aV2a00:1450:4013:c01::6a
p2553
aV2607:f8b0:400a:800::1001
p2554
aV2a00:1450:4001:800::1007
p2555
aV2a00:1450:4016:800::100e
p2556
aV2404:6800:4005:800::1008
p2557
aV2607:f8b0:400a:801::1008
p2558
aV2607:f8b0:400a:800::100e
p2559
aV2a00:1450:4002:803::1002
p2560
aV2607:f8b0:400a:800::1004
p2561
aV2607:f8b0:400a:800::1004
p2562
aV2607:f8b0:400a:800::1008
p2563
aV2a00:1450:4013:c01::71
p2564
aV2607:f8b0:400a:800::1005
p2565
aV2a00:1450:4002:801::100c
p2566
aV2a00:1450:4002:801::100e
p2567
aV2607:f8b0:400a:801::1003
p2568
aV2607:f8b0:4009:800::1003
p2569
aV2607:f8b0:400a:800::100f
p2570
aV2607:f8b0:400a:801::1018
p2571
aV2607:f8b0:400a:800::1004
p2572
aV2607:f8b0:400a:801::1009
p2573
aV2607:f8b0:400a:801::1007
p2574
aV2607:f8b0:400a:801::1005
p2575
aV2607:f8b0:400a:801::1001
p2576
aV2607:f8b0:400a:801::1003
p2577
aV2a00:1450:4001:c02::79
p2578
aV2607:f8b0:4001:c02::c1
p2579
aV2607:f8b0:4001:c02::79
p2580
aV2607:f8b0:4001:c02::79
p2581
aV2607:f8b0:4001:c02::79
p2582
aV2607:f8b0:400a:805::1003
p2583
aV2607:f8b0:4001:c07::bc
p2584
aV2607:f8b0:4009:800::1013
p2585
aV2404:6800:4006:804::1014
p2586
aV2001:4860:400b:c01::79
p2587
aV2a00:1450:4013:c01::8d
p2588
aV2607:f8b0:400a:805::1003
p2589
aV2a00:1450:4013:c01::8d
p2590
aV2607:f8b0:400c:c03::68
p2591
aV2a00:1450:4001:c02::8d
p2592
aV2607:f8b0:4001:c02::8d
p2593
aV2a00:1450:4013:c01::8d
p2594
aV2607:f8b0:400d:c03::8d
p2595
aV2607:f8b0:4001:c05::8d
p2596
ag2477
aV2a00:1450:4013:c01::8d
p2597
aV2607:f8b0:4001:c02::8d
p2598
aV2a00:1450:4001:c02::8d
p2599
aV2a00:1450:4001:c02::8d
p2600
aV2001:4860:400b:c01::8d
p2601
aV2607:f8b0:400e:c01::8d
p2602
aV2a00:1450:4013:c01::8d
p2603
aV2607:f8b0:400c:c03::8d
p2604
aV2607:f8b0:400a:805::1013
p2605
aV2607:f8b0:400a:801::1009
p2606
aV2a00:1450:4017:801::1000
p2607
aV2607:f8b0:4004:800::1012
p2608
aV2a00:1450:4002:803::1013
p2609
aV2a00:1450:4013:c00::67
p2610
aV2001:4860:400b:c01::bf
p2611
aV2a00:1450:4001:c02::bf
p2612
aV2001:4860:400b:c01::bf
p2613
aV2001:4860:400b:c01::bf
p2614
aV2607:f8b0:400e:c01::a0
p2615
aV2a00:1450:4002:801::100c
p2616
aV2607:f8b0:400e:c01::bf
p2617
aV2607:f8b0:400a:801::1005
p2618
aV2607:f8b0:400a:801::1012
p2619
aV2607:f8b0:400e:c01::bf
p2620
aV2607:f8b0:400e:c01::bf
p2621
aV2607:f8b0:400a:801::1012
p2622
aV2607:f8b0:400a:801::100e
p2623
aV2607:f8b0:400a:805::1001
p2624
aV2607:f8b0:400a:801::1005
p2625
aV2607:f8b0:400a:801::1009
p2626
aV2001:4860:400b:c01::bf
p2627
aV2001:4860:400b:c01::bf
p2628
aV2607:f8b0:4009:800::100c
p2629
aV2a00:1450:4013:c00::bf
p2630
aV2001:4860:400b:c01::bf
p2631
aV2a00:1450:4001:c02::bf
p2632
aV2001:4860:400b:c01::bf
p2633
aV2a00:1450:400c:c01::bf
p2634
aV2a00:1450:4013:c00::bf
p2635
aV2607:f8b0:400c:c03::79
p2636
aV2404:6800:4006:804::100c
p2637
aV2a00:1450:4002:803::100c
p2638
aV2404:6800:4006:804::100c
p2639
aV2a00:1450:4013:c00::bf
p2640
aV2001:4860:400b:c01::bf
p2641
aV2404:6800:4008:c01::bf
p2642
aV2607:f8b0:400c:c03::84
p2643
aV2404:6800:4005:800::100b
p2644
aV2a00:1450:4013:c01::84
p2645
aV2607:f8b0:400a:801::100c
p2646
aV2607:f8b0:400a:801::100c
p2647
aV2607:f8b0:400b:80b::100a
p2648
aV2607:f8b0:400a:805::100a
p2649
aV2a00:1450:4002:802::100c
p2650
aV2607:f8b0:400a:805::100c
p2651
aV2a00:1450:4009:804::100c
p2652
aV2607:f8b0:400a:801::100c
p2653
aV2607:f8b0:400a:805::100c
p2654
aV2404:6800:4005:800::100c
p2655
aV2607:f8b0:400a:801::100a
p2656
aV2607:f8b0:400a:801::100c
p2657
aV2607:f8b0:400a:801::100c
p2658
aV2a00:1450:4001:c02::84
p2659
aV2404:6800:4006:804::100a
p2660
aV2607:f8b0:4009:800::100c
p2661
aV2a00:1450:4002:803::100a
p2662
aV2607:f8b0:400a:801::100a
p2663
aV2607:f8b0:4004:800::100a
p2664
aV2a00:1450:4005:808::100a
p2665
aV2a00:1450:4005:808::100a
p2666
aV2607:f8b0:400a:801::100a
p2667
aV2607:f8b0:400a:801::100a
p2668
aV2607:f8b0:400a:801::100a
p2669
aV2607:f8b0:400a:800::100b
p2670
aV2607:f8b0:400a:800::100b
p2671
aV2607:f8b0:400a:801::100a
p2672
aV2607:f8b0:400a:801::100a
p2673
aV2607:f8b0:400a:801::100a
p2674
aV2607:f8b0:400a:800::100b
p2675
aV2607:f8b0:400a:800::100b
p2676
aV2607:f8b0:400a:801::100a
p2677
aV2a00:1450:4002:803::100b
p2678
aV2404:6800:4006:804::100b
p2679
aV2607:f8b0:400a:800::100b
p2680
aV2a00:1450:4010:c08::84
p2681
aV2a00:1450:4001:c02::84
p2682
aV2607:f8b0:4009:800::100a
p2683
aV2607:f8b0:4009:800::100b
p2684
aV2404:6800:4006:804::100a
p2685
aV2607:f8b0:400a:800::100e
p2686
aV2a00:1450:4013:c01::a0
p2687
aV2607:f8b0:400a:801::1001
p2688
aV2607:f8b0:400c:c03::65
p2689
aV2404:6800:4005:800::1000
p2690
aV2a00:1450:4010:c08::8b
p2691
aV2607:f8b0:400c:c03::65
p2692
aV2607:f8b0:400c:c03::65
p2693
aV2a00:1450:4002:801::1008
p2694
aV2607:f8b0:4009:800::1001
p2695
aV2404:6800:4005:800::1008
p2696
aV2a00:1450:4013:c00::8a
p2697
aV2607:f8b0:400a:800::1004
p2698
aV2607:f8b0:400a:800::100e
p2699
aV2607:f8b0:400a:800::1004
p2700
aV2607:f8b0:400a:800::1004
p2701
aV2a00:1450:4001:808::100e
p2702
aV2a00:1450:4017:801::1000
p2703
ag2477
aV2607:f8b0:400a:801::1006
p2704
ag2477
aV2607:f8b0:400a:800::1001
p2705
aV2a00:1450:4002:801::1003
p2706
aV2607:f8b0:4004:800::1004
p2707
aV2607:f8b0:400a:801::1007
p2708
aV2607:f8b0:4004:800::1007
p2709
aV2607:f8b0:400a:801::1006
p2710
aV2a00:1450:4002:803::1009
p2711
aV2404:6800:4006:804::1000
p2712
aV2607:f8b0:400c:c03::84
p2713
aV2607:f8b0:400b:80b::100e
p2714
ag2477
ag2477
ag2477
ag2477
ag2477
ag2477
ag2477
ag2477
aV2607:f8b0:400a:805::1002
p2715
aV2607:f8b0:400a:805::1001
p2716
aV2607:f8b0:400a:805::1008
p2717
aV2607:f8b0:400a:805::100e
p2718
aV2001:4860:400b:c01::79
p2719
aV2607:f8b0:400a:805::1000
p2720
aV2001:4860:400b:c01::79
p2721
aV2001:4860:400b:c01::79
p2722
aV2607:f8b0:400e:c01::79
p2723
aV2607:f8b0:400e:c01::8d
p2724
ag2477
ag2477
aV2404:6800:4008:c01::52
p2725
aV2001:4860:400b:c01::52
p2726
aV2001:4860:400b:c01::52
p2727
aV2001:4860:400b:c01::52
p2728
aV2001:4860:400b:c01::52
p2729
aV2a00:1450:4001:c02::52
p2730
aV2a00:1450:400c:c01::52
p2731
aV2a00:1450:4001:c02::52
p2732
aV2001:4860:400b:c01::52
p2733
aV2607:f8b0:400a:801::1005
p2734
aV2a00:1450:4001:80e::1000
p2735
aV2a00:1450:4002:801::1008
p2736
aV2607:f8b0:400a:801::1000
p2737
aV2a00:1450:4010:c08::71
p2738
aV2404:6800:4006:804::100e
p2739
aV2607:f8b0:400a:800::1000
p2740
aV2607:f8b0:400b:80b::1004
p2741
aV2a00:1450:4013:c00::71
p2742
aV2a00:1450:4002:802::1004
p2743
aV2a00:1450:4013:c01::65
p2744
aV2a00:1450:4002:802::1004
p2745
aV2607:f8b0:400a:800::1006
p2746
aV2607:f8b0:400a:801::1000
p2747
aV2a00:1450:4013:c01::bd
p2748
aV2a00:1450:4001:c02::bd
p2749
aV2607:f8b0:4001:c05::bd
p2750
aV2001:4860:400b:c01::bd
p2751
aV2404:6800:4008:c04::bd
p2752
aV2a00:1450:4001:c02::bd
p2753
aV2607:f8b0:400a:800::100c
p2754
aV2001:4860:400b:c01::bd
p2755
aV2001:4860:400b:c01::bd
p2756
aV2001:4860:400b:c01::bd
p2757
aV2001:4860:400b:c01::bd
p2758
aV2607:f8b0:400e:c01::bd
p2759
aV2001:4860:400b:c01::bd
p2760
aV2607:f8b0:400e:c01::bd
p2761
aV2001:4860:400b:c01::bd
p2762
aV2001:4860:400b:c01::bd
p2763
aV2607:f8b0:400e:c01::bd
p2764
aV2001:4860:400b:c01::bd
p2765
aV2a00:1450:400c:c01::bd
p2766
aV2001:4860:400b:c01::bd
p2767
aV2607:f8b0:400d:c03::bd
p2768
aV2001:4860:400b:c01::bd
p2769
aV2001:4860:400b:c01::bd
p2770
aV2404:6800:4008:c01::bd
p2771
aV2607:f8b0:400e:c01::bd
p2772
aV2a00:1450:400c:c01::bd
p2773
aV2a00:1450:4013:c01::bd
p2774
aV2a00:1450:400c:c01::bd
p2775
aV2607:f8b0:400c:c03::bd
p2776
aV2a00:1450:400c:c01::bd
p2777
aV2607:f8b0:4001:c05::bd
p2778
aV2a00:1450:4001:c02::bd
p2779
aV2607:f8b0:400d:c03::bd
p2780
aV2404:6800:4008:c01::bd
p2781
aV2a00:1450:4001:c02::bd
p2782
aV2607:f8b0:4001:c05::bd
p2783
aV2a00:1450:4013:c01::66
p2784
aV2607:f8b0:400a:801::1000
p2785
aV2a00:1450:4016:801::100e
p2786
aV2a00:1450:4017:801::1003
p2787
aV2607:f8b0:400a:801::1009
p2788
aV2607:f8b0:400a:800::100e
p2789
aV2607:f8b0:400a:801::1009
p2790
ag2477
aV2a00:1450:4002:802::1002
p2791
aV2a00:1450:4013:c01::71
p2792
aV2607:f8b0:400a:801::1005
p2793
aV2607:f8b0:400a:800::1004
p2794
aV2607:f8b0:400a:800::1000
p2795
aV2607:f8b0:4004:800::1007
p2796
aV2a00:1450:4010:c08::8a
p2797
aV2a00:1450:4010:c08::66
p2798
aV2404:6800:4006:804::1009
p2799
aV2607:f8b0:400a:800::1004
p2800
aV2607:f8b0:400c:c03::84
p2801
aV2001:4860:400b:c01::75
p2802
aV2a00:1450:4013:c01::88
p2803
aV2607:f8b0:400a:801::1005
p2804
aV2607:f8b0:400a:800::101d
p2805
aV2001:4860:400b:c01::5d
p2806
ag2477
aV2607:f8b0:400a:805::1002
p2807
aV2607:f8b0:400a:805::1002
p2808
aV2607:f8b0:400a:800::1016
p2809
aV2607:f8b0:400a:801::1012
p2810
aV2607:f8b0:400a:801::1016
p2811
aV2607:f8b0:400a:801::1009
p2812
aV2a00:1450:4005:808::1005
p2813
aV2607:f8b0:400a:800::101d
p2814
aV2607:f8b0:400a:805::1003
p2815
aV2607:f8b0:400c:c03::53
p2816
aV2a00:1450:4013:c01::6c
p2817
aV2607:f8b0:400a:801::1016
p2818
ag2477
ag2477
ag2477
aV2a00:1450:4009:804::1015
p2819
ag2477
ag2477
aV2607:f8b0:400a:800::101d
p2820
aV2607:f8b0:400c:c01::6c
p2821
aV2a00:1450:4013:c00::53
p2822
aV2a00:1450:400c:c03::10
p2823
aV2607:f8b0:400e:c02::10
p2824
aV2607:f8b0:400d:c01::6c
p2825
aV2a00:1450:4013:c01::6d
p2826
aV2607:f8b0:400e:c03::10
p2827
ag2477
aV2a00:1450:4013:c01::10
p2828
aV2a00:1450:4013:c01::6c
p2829
aV2a00:1450:4013:c01::1b
p2830
aV2a00:1450:400c:c03::6c
p2831
aV2607:f8b0:400d:c01::e
p2832
aV2404:6800:4008:c01::6c
p2833
aV2607:f8b0:400e:c02::10
p2834
aV2607:f8b0:400e:c01::66
p2835
aV2607:f8b0:400e:c02::10
p2836
aV2001:4860:400b:c01::8b
p2837
aV2404:6800:4008:c04::8a
p2838
aV2607:f8b0:400e:c01::66
p2839
aV2607:f8b0:400e:c01::89
p2840
aV2607:f8b0:400a:801::1001
p2841
aV2607:f8b0:400a:801::1000
p2842
aV2a00:1450:4001:c02::65
p2843
aV2607:f8b0:400a:805::1001
p2844
aV2a00:1450:4001:c02::8a
p2845
aV2a00:1450:4013:c01::84
p2846
ag2477
ag2477
ag2477
aV2607:f8b0:400a:801::1010
p2847
aV2607:f8b0:400a:801::1009
p2848
aV2607:f8b0:400a:801::1012
p2849
aV2607:f8b0:400a:801::1012
p2850
aV2607:f8b0:400e:c01::8d
p2851
aV2607:f8b0:400a:801::1009
p2852
aV2607:f8b0:400a:801::1009
p2853
aV2607:f8b0:400e:c01::8d
p2854
aV2607:f8b0:400e:c01::8d
p2855
aV2607:f8b0:400a:801::1012
p2856
aV2001:4860:400b:c01::8d
p2857
aV2001:4860:400b:c01::8d
p2858
aV2a00:1450:400c:c01::8d
p2859
aV2607:f8b0:400c:c03::8d
p2860
aV2607:f8b0:400c:c03::8d
p2861
aV2a00:1450:400c:c01::8d
p2862
aV2607:f8b0:400e:c01::8d
p2863
aV2a00:1450:4001:c02::8d
p2864
aV2a00:1450:4001:c02::8d
p2865
aV2a00:1450:4001:c02::8d
p2866
aV2607:f8b0:4001:c02::8d
p2867
aV2404:6800:4008:c04::8d
p2868
aV2a00:1450:4001:c02::8d
p2869
aV2607:f8b0:400c:c03::8d
p2870
aV2607:f8b0:4001:c02::8d
p2871
aV2607:f8b0:4001:c02::8d
p2872
aV2607:f8b0:400e:c01::8d
p2873
aV2a00:1450:4001:c02::8d
p2874
aV2001:4860:400b:c01::8d
p2875
aV2607:f8b0:400d:c03::8d
p2876
aV2607:f8b0:400e:c01::8d
p2877
aV2607:f8b0:400a:801::1001
p2878
aV2607:f8b0:400a:801::100f
p2879
aV2a00:1450:4016:801::100e
p2880
aV2607:f8b0:400a:801::100f
p2881
aV2607:f8b0:400a:800::100e
p2882
aV2a00:1450:400d:802::1000
p2883
aV2607:f8b0:400b:80a::1001
p2884
aV2607:f8b0:400a:801::1001
p2885
aV2607:f8b0:400a:805::1002
p2886
aV2607:f8b0:400a:800::1007
p2887
aV2a00:1450:4001:c02::5b
p2888
aV2607:f8b0:400a:805::1004
p2889
aV2a00:1450:4013:c00::8b
p2890
aV2607:f8b0:400c:c03::65
p2891
aV2a00:1450:4001:c02::65
p2892
aV2607:f8b0:400b:80b::100c
p2893
ag2477
aV2607:f8b0:400a:801::100e
p2894
aV2607:f8b0:400a:805::1009
p2895
aV2607:f8b0:400a:801::1009
p2896
aV2607:f8b0:400a:801::1004
p2897
aV2607:f8b0:400a:801::1004
p2898
aV2607:f8b0:400a:801::1004
p2899
aV2607:f8b0:400a:800::100e
p2900
aV2607:f8b0:400a:805::100e
p2901
aV2607:f8b0:400a:801::1004
p2902
aV2a00:1450:4009:804::1009
p2903
aV2607:f8b0:400c:c03::76
p2904
aV2a00:1450:4013:c01::71
p2905
aV2a00:1450:4013:c01::76
p2906
aV2a00:1450:4013:c00::65
p2907
aV2a00:1450:4013:c01::66
p2908
aV2607:f8b0:400c:c03::65
p2909
aV2a00:1450:4002:801::1004
p2910
aV2a00:1450:4001:808::1001
p2911
aV2607:f8b0:400a:801::100e
p2912
aV2607:f8b0:400a:801::100e
p2913
aV2607:f8b0:400b:80a::1007
p2914
aV2404:6800:4005:800::100e
p2915
aV2607:f8b0:400a:803::1018
p2916
aV2001:4860:4007:801::1018
p2917
aV2607:f8b0:400c:c03::8a
p2918
aV2607:f8b0:400c:c03::65
p2919
aV2607:f8b0:400a:800::1006
p2920
aV2607:f8b0:400a:803::1017
p2921
aV2a00:1450:4016:801::1008
p2922
aV2404:6800:4005:804::1018
p2923
aV2607:f8b0:4001:c01::a0
p2924
aV2404:6800:4008:c01::a0
p2925
aV2607:f8b0:400e:c04::a0
p2926
aV2607:f8b0:400e:c03::a0
p2927
aV2607:f8b0:400a:801::1000
p2928
aV2404:6800:4008:c00::a0
p2929
aV2a00:1450:4016:801::1005
p2930
aV2404:6800:4005:800::1001
p2931
aV2404:6800:4008:c04::a0
p2932
aV2a00:1450:4010:c08::66
p2933
aV2a00:1450:4001:802::1000
p2934
aV2607:f8b0:400a:805::1006
p2935
aV2a00:1450:4001:c02::a0
p2936
aV2607:f8b0:400e:c01::75
p2937
aV2404:6800:4005:800::1005
p2938
aV2a00:1450:4001:c02::75
p2939
aV2a00:1450:4005:808::100b
p2940
aV2607:f8b0:4004:800::1007
p2941
aV2a00:1450:4013:c00::84
p2942
aV2607:f8b0:400e:c01::74
p2943
aV2607:f8b0:400a:805::100a
p2944
aV2607:f8b0:400a:805::101f
p2945
ag2477
ag2477
aV2607:f8b0:400a:805::1006
p2946
aV2607:f8b0:400a:805::1001
p2947
aV2001:4860:400b:c01::75
p2948
aV2607:f8b0:400a:805::100a
p2949
aV2607:f8b0:400a:805::100c
p2950
aV2607:f8b0:400a:805::100c
p2951
aV2a00:1450:4002:801::100f
p2952
aV2a00:1450:4013:c01::55
p2953
aV2a00:1450:4013:c01::56
p2954
aV2a00:1450:4001:c02::55
p2955
aV2a00:1450:4001:c02::55
p2956
aV2a00:1450:4013:c00::57
p2957
aV2a00:1450:4013:c01::57
p2958
aV2607:f8b0:400e:c01::57
p2959
aV2a00:1450:4013:c00::55
p2960
aV2607:f8b0:400d:c03::55
p2961
aV2a00:1450:4001:c02::56
p2962
aV2607:f8b0:400d:c03::55
p2963
aV2001:4860:400b:c01::57
p2964
aV2404:6800:4008:c04::57
p2965
aV2a00:1450:4013:c00::57
p2966
aV2607:f8b0:400e:c01::56
p2967
aV2607:f8b0:400c:c03::55
p2968
aV2a00:1450:4013:c00::57
p2969
aV2a00:1450:4013:c01::55
p2970
aV2a00:1450:4001:c02::56
p2971
aV2607:f8b0:400e:c01::56
p2972
aV2a00:1450:4001:c02::56
p2973
aV2607:f8b0:400a:805::1010
p2974
aV2a00:1450:4001:c02::79
p2975
aV2607:f8b0:400a:805::100a
p2976
aV2607:f8b0:400a:801::1010
p2977
aV2607:f8b0:4009:2::8
p2978
aV2607:f8b0:400a:805::1001
p2979
aV2a00:1450:4001:c02::79
p2980
aV2607:f8b0:400a:801::1012
p2981
aV2607:f8b0:400a:801::1005
p2982
aV2607:f8b0:400a:805::1013
p2983
aV2607:f8b0:400a:805::100b
p2984
aV2a00:1450:4009:804::1009
p2985
aV2a00:1450:400d:805::1007
p2986
aV2607:f8b0:4009:800::100b
p2987
aV2607:f8b0:4004:800::100c
p2988
aV2404:6800:4005:800::100a
p2989
aV2404:6800:4005:800::100c
p2990
aV2607:f8b0:400a:805::1006
p2991
ag2477
aV2607:f8b0:400a:805::1006
p2992
aV2607:f8b0:400a:805::100c
p2993
ag2477
aV2607:f8b0:400a:805::1007
p2994
aV2607:f8b0:400a:805::1004
p2995
aV2607:f8b0:400a:805::100e
p2996
aV2607:f8b0:400a:805::1006
p2997
aV2607:f8b0:400a:805::1000
p2998
aV2607:f8b0:400a:805::1004
p2999
aV2607:f8b0:400a:805::1000
p3000
aV2607:f8b0:400a:800::1005
p3001
aV2607:f8b0:400a:805::1003
p3002
aV2607:f8b0:4009:800::1013
p3003
ag2477
ag2477
ag2477
ag2477
aV2a00:1450:4013:c01::5b
p3004
aV2a00:1450:4001:808::1002
p3005
aV2a00:1450:4005:808::1005
p3006
ag2477
aV2a00:1450:4013:c01::5d
p3007
ag2477
ag2477
aV2607:f8b0:400c:c03::5b
p3008
ag2477
aV2a00:1450:4002:801::1008
p3009
ag2477
ag2477
aV2607:f8b0:4009:800::1003
p3010
aV2a00:1450:4016:801::1000
p3011
aV2001:4860:400b:c01::51
p3012
aV2a00:1450:4013:c00::a0
p3013
aV2607:f8b0:400a:805::1009
p3014
aV2a00:1450:4013:c00::7d
p3015
aV2404:6800:4008:c04::79
p3016
aV2607:f8b0:400c:c03::65
p3017
aV2a00:1450:4008:c01::bc
p3018
aV2a00:1450:4013:c00::7d
p3019
aV2607:f8b0:4001:c07::bc
p3020
aV2a00:1450:4001:c02::66
p3021
aV2607:f8b0:400a:800::1004
p3022
aV2607:f8b0:400a:801::1005
p3023
aV2404:6800:4005:800::1006
p3024
aV2607:f8b0:400b:80a::1008
p3025
aV2607:f8b0:400a:801::100f
p3026
aV2a00:1450:4001:c02::5e
p3027
aV2a00:1450:4013:c00::84
p3028
aV2001:4860:400b:c01::a0
p3029
aV2607:f8b0:400a:805::1008
p3030
aV2607:f8b0:400a:801::1001
p3031
aV2607:f8b0:400a:805::1008
p3032
aV2607:f8b0:400a:805::1013
p3033
aV2607:f8b0:400a:801::1001
p3034
ag2477
aV2607:f8b0:400a:801::1002
p3035
ag2477
aV2a00:1450:4017:801::1004
p3036
ag2477
aV2607:f8b0:400a:805::1008
p3037
aV2607:f8b0:400a:801::1002
p3038
ag2477
ag2477
ag2477
ag2477
ag2477
ag2477
ag2477
ag2477
ag2477
ag2477
ag2477
ag2477
ag2477
ag2477
ag2477
ag2477
ag2477
ag2477
ag2477
ag2477
ag2477
ag2477
ag2477
ag2477
aV2607:f8b0:400c:c03::65
p3039
aV2a00:1450:4001:c02::74
p3040
aV2607:f8b0:400a:801::1004
p3041
aV2a00:1450:4002:801::1008
p3042
aV2a00:1450:4013:c00::74
p3043
aV2607:f8b0:400a:801::1002
p3044
aV2a00:1450:4001:c02::64
p3045
aV2607:f8b0:4004:800::1007
p3046
aV2a00:1450:4005:808::1000
p3047
aV2a00:1450:4005:808::100e
p3048
aV2a00:1450:4001:c02::71
p3049
aV2607:f8b0:400a:801::1004
p3050
aV2a00:1450:4013:c01::84
p3051
aV2607:f8b0:400a:801::1009
p3052
aV2607:f8b0:400a:801::1007
p3053
aV2607:f8b0:400a:805::1003
p3054
aV2607:f8b0:400a:801::1007
p3055
aV2607:f8b0:400a:805::1005
p3056
aV2607:f8b0:400a:805::1003
p3057
aV2607:f8b0:400a:805::1003
p3058
aV2607:f8b0:400a:805::1005
p3059
aV2607:f8b0:400a:805::1005
p3060
aV2607:f8b0:400a:805::1009
p3061
aV2a00:1450:4013:c01::8a
p3062
aV2607:f8b0:400a:801::1000
p3063
aV2404:6800:4005:800::1005
p3064
aV2a00:1450:4001:80e::1004
p3065
aV2607:f8b0:4004:800::1007
p3066
aV2a00:1450:4013:c01::8a
p3067
aV2607:f8b0:4009:800::100e
p3068
aV2607:f8b0:4009:800::100e
p3069
aV2404:6800:4005:800::1005
p3070
aV2607:f8b0:4004:800::1001
p3071
aV2a00:1450:4005:808::1000
p3072
aV2a00:1450:4013:c00::64
p3073
aV2a00:1450:4002:801::1004
p3074
aV2a00:1450:4010:c08::8b
p3075
aV2607:f8b0:400b:80a::1009
p3076
aV2607:f8b0:400a:800::1001
p3077
aV2a00:1450:4013:c00::8a
p3078
aV2404:6800:4005:800::1003
p3079
aV2607:f8b0:4004:800::1009
p3080
aV2a00:1450:4013:c00::8a
p3081
aV2607:f8b0:400a:801::1007
p3082
aV2a00:1450:4001:80c::1009
p3083
aV2607:f8b0:400a:801::1000
p3084
aV2a00:1450:4001:c02::8b
p3085
aV2a00:1450:4002:802::1001
p3086
aV2404:6800:4005:800::1000
p3087
aV2607:f8b0:400a:805::1009
p3088
aV2a00:1450:4013:c01::8b
p3089
aV2607:f8b0:400a:801::1000
p3090
aV2a00:1450:4001:c02::65
p3091
aV2a00:1450:4002:801::1004
p3092
aV2a00:1450:4013:c01::8b
p3093
aV2607:f8b0:400a:805::1009
p3094
aV2a00:1450:4013:c00::8b
p3095
aV2a00:1450:4001:80d::1009
p3096
aV2a00:1450:4001:80d::1009
p3097
aV2607:f8b0:4009:800::1003
p3098
aV2607:f8b0:4009:800::100c
p3099
aV2607:f8b0:400a:801::1000
p3100
aV2607:f8b0:400a:801::1009
p3101
aV2607:f8b0:400a:800::1000
p3102
aV2607:f8b0:400a:800::1000
p3103
aV2607:f8b0:400a:800::1004
p3104
aV2607:f8b0:400a:800::1004
p3105
aV2607:f8b0:400a:800::1004
p3106
aV2607:f8b0:400a:800::1004
p3107
aV2607:f8b0:400a:800::1000
p3108
aV2607:f8b0:400a:800::1001
p3109
aV2607:f8b0:400a:800::1000
p3110
aV2607:f8b0:400a:800::1000
p3111
aV2a00:1450:4001:80a::1002
p3112
aV2607:f8b0:400b:80b::1007
p3113
aV2404:6800:4005:800::1008
p3114
aV2607:f8b0:4004:800::1006
p3115
aV2607:f8b0:4004:800::1009
p3116
aV2607:f8b0:4009:800::1001
p3117
aV2404:6800:4005:800::100e
p3118
aV2607:f8b0:4004:800::1006
p3119
aV2607:f8b0:4004:800::1007
p3120
aV2607:f8b0:4004:800::1009
p3121
aV2a00:1450:4013:c00::66
p3122
aV2607:f8b0:400c:c03::64
p3123
aV2a00:1450:4001:80a::1001
p3124
aV2a00:1450:4013:c01::8b
p3125
aV2607:f8b0:400a:801::100e
p3126
aV2404:6800:4005:800::1002
p3127
aV2a00:1450:4010:c08::71
p3128
aV2404:6800:4005:800::1002
p3129
aV2607:f8b0:4009:800::1003
p3130
aV2a00:1450:4016:801::1009
p3131
aV2404:6800:4005:800::1001
p3132
aV2a00:1450:4017:801::1001
p3133
aV2a00:1450:4013:c00::71
p3134
aV2607:f8b0:400a:800::1002
p3135
aV2607:f8b0:400a:801::1005
p3136
aV2a00:1450:4001:c02::71
p3137
aV2607:f8b0:400a:800::1009
p3138
aV2a00:1450:4001:c02::71
p3139
aV2607:f8b0:400a:800::1002
p3140
aV2607:f8b0:400a:800::1002
p3141
aV2a00:1450:4009:804::1000
p3142
aV2607:f8b0:4009:800::1003
p3143
aV2a00:1450:4017:801::1003
p3144
aV2a00:1450:4013:c00::71
p3145
aV2a00:1450:4001:c02::66
p3146
aV2a00:1450:4013:c01::65
p3147
aV2a00:1450:4002:802::1002
p3148
aV2607:f8b0:400a:800::1007
p3149
aV2a00:1450:4013:c01::66
p3150
aV2607:f8b0:400a:801::100c
p3151
aV2607:f8b0:400a:800::1005
p3152
aV2607:f8b0:400a:801::1009
p3153
aV2607:f8b0:400a:805::1009
p3154
aV2607:f8b0:400a:801::1002
p3155
aV2607:f8b0:400a:801::1009
p3156
aV2607:f8b0:400a:801::1009
p3157
aV2607:f8b0:400a:805::1009
p3158
aV2a00:1450:4005:808::100e
p3159
aV2607:f8b0:400a:801::1008
p3160
aV2607:f8b0:400a:805::1003
p3161
aV2607:f8b0:4004:800::1009
p3162
aV2a00:1450:4009:804::1002
p3163
aV2607:f8b0:4004:800::1009
p3164
aV2a00:1450:4016:801::100e
p3165
aV2a00:1450:4013:c00::65
p3166
aV2a00:1450:4009:804::1002
p3167
aV2607:f8b0:4004:800::1009
p3168
aV2607:f8b0:400a:801::1004
p3169
aV2a00:1450:4009:804::1002
p3170
aV2607:f8b0:400a:801::1004
p3171
aV2607:f8b0:400c:c03::8a
p3172
aV2607:f8b0:400a:801::1007
p3173
aV2607:f8b0:400a:801::1004
p3174
aV2607:f8b0:4004:800::1002
p3175
aV2607:f8b0:400a:801::1002
p3176
aV2607:f8b0:4009:800::1004
p3177
aV2a00:1450:4005:808::100e
p3178
aV2a00:1450:4017:801::1003
p3179
aV2607:f8b0:400a:800::1007
p3180
aV2607:f8b0:400a:801::1000
p3181
aV2607:f8b0:400a:801::1006
p3182
aV2607:f8b0:400a:801::1000
p3183
aV2607:f8b0:400a:801::1000
p3184
aV2a00:1450:4017:801::1003
p3185
aV2607:f8b0:400a:801::1007
p3186
aV2607:f8b0:400a:801::1000
p3187
aV2a00:1450:4002:803::1000
p3188
aV2a00:1450:4010:c08::66
p3189
aV2404:6800:4006:804::1001
p3190
aV2a00:1450:4013:c01::8b
p3191
aV2607:f8b0:4004:800::1000
p3192
aV2607:f8b0:4004:800::1005
p3193
aV2a00:1450:4005:808::1008
p3194
aV2607:f8b0:400c:c03::65
p3195
aV2a00:1450:4005:808::1003
p3196
aV2607:f8b0:4009:800::1001
p3197
aV2607:f8b0:400a:805::1008
p3198
aV2a00:1450:4002:801::1004
p3199
aV2404:6800:4005:800::1000
p3200
aV2607:f8b0:4004:800::100a
p3201
aV2607:f8b0:400a:805::1008
p3202
aV2607:f8b0:400a:801::1000
p3203
aV2607:f8b0:400a:805::1009
p3204
aV2607:f8b0:400a:801::100e
p3205
aV2607:f8b0:400a:805::1009
p3206
aV2607:f8b0:400a:800::1004
p3207
aV2607:f8b0:400a:800::1004
p3208
aV2607:f8b0:400a:801::1000
p3209
aV2607:f8b0:4004:800::1003
p3210
aV2607:f8b0:4004:800::1003
p3211
aV2607:f8b0:4004:800::1003
p3212
aV2a00:1450:4013:c00::66
p3213
aV2607:f8b0:4009:800::1007
p3214
aV2607:f8b0:400a:801::1009
p3215
aV2a00:1450:4001:c02::66
p3216
aV2607:f8b0:400a:800::1000
p3217
aV2607:f8b0:400a:801::1009
p3218
aV2a00:1450:4009:804::100e
p3219
aV2607:f8b0:400b:80b::1001
p3220
aV2a00:1450:4013:c01::8b
p3221
aV2607:f8b0:400a:801::1005
p3222
aV2607:f8b0:400a:801::1005
p3223
aV2607:f8b0:400a:800::1005
p3224
aV2607:f8b0:400a:801::1005
p3225
aV2607:f8b0:4004:800::1009
p3226
aV2a00:1450:4013:c00::64
p3227
aV2607:f8b0:400a:800::1001
p3228
aV2607:f8b0:4009:800::1002
p3229
aV2607:f8b0:400a:800::100e
p3230
aV2a00:1450:4002:801::1004
p3231
aV2607:f8b0:400a:800::1005
p3232
aV2607:f8b0:400a:801::1007
p3233
aV2a00:1450:4017:801::1008
p3234
aV2607:f8b0:400a:801::1007
p3235
aV2607:f8b0:400a:800::100e
p3236
aV2607:f8b0:400a:800::100e
p3237
aV2a00:1450:400e:400::10
p3238
aV2a00:1450:400e:404::10
p3239
aV2a00:1450:4002:803::1000
p3240
aV2607:f8b0:400c:c03::8b
p3241
aV2a00:1450:400e:406::10
p3242
aV2a00:1450:400e:407::10
p3243
aV2a00:1450:400e:401::10
p3244
aV2a00:1450:400e:405::10
p3245
aV2a00:1450:400e:400::11
p3246
aV2a00:1450:400e:403::10
p3247
aV2a00:1450:400e:402::10
p3248
aV2a00:1450:400e:404::11
p3249
aV2a00:1450:4001:c02::84
p3250
aV2a00:1450:400e:401::11
p3251
aV2a00:1450:400e:404::12
p3252
aV2a00:1450:400e:402::11
p3253
aV2a00:1450:400e:403::11
p3254
aV2a00:1450:400e:406::11
p3255
aV2a00:1450:400e:400::12
p3256
aV2a00:1450:400e:405::11
p3257
aV2a00:1450:400e:405::12
p3258
aV2a00:1450:400e:407::11
p3259
aV2a00:1450:400e:401::12
p3260
aV2a00:1450:400e:402::12
p3261
aV2a00:1450:400e:400::13
p3262
aV2a00:1450:400e:403::12
p3263
aV2a00:1450:400e:406::12
p3264
aV2a00:1450:400e:401::13
p3265
aV2a00:1450:400e:407::12
p3266
aV2a00:1450:400e:404::13
p3267
aV2a00:1450:400e:405::13
p3268
aV2a00:1450:400e:402::13
p3269
aV2a00:1450:400e:406::13
p3270
aV2a00:1450:400e:403::13
p3271
aV2a00:1450:400e:407::13
p3272
aV2a00:1450:400e:406::14
p3273
aV2a00:1450:400e:400::14
p3274
aV2a00:1450:400e:404::14
p3275
aV2a00:1450:400e:401::14
p3276
aV2a00:1450:400e:405::14
p3277
aV2a00:1450:400e:402::14
p3278
aV2a00:1450:400e:403::14
p3279
aV2a00:1450:400e:407::14
p3280
aV2a00:1450:400e:400::15
p3281
aV2a00:1450:400e:406::15
p3282
aV2a00:1450:400e:404::15
p3283
aV2a00:1450:400e:403::15
p3284
aV2a00:1450:400e:401::15
p3285
aV2a00:1450:400e:405::15
p3286
aV2a00:1450:400e:400::16
p3287
aV2a00:1450:400e:402::15
p3288
aV2a00:1450:400e:407::15
p3289
aV2a00:1450:400e:404::16
p3290
aV2a00:1450:400e:401::16
p3291
aV2a00:1450:400e:402::16
p3292
aV2a00:1450:400e:405::16
p3293
aV2a00:1450:400e:403::16
p3294
aV2a00:1450:400e:404::17
p3295
aV2a00:1450:400e:407::16
p3296
aV2a00:1450:400e:406::16
p3297
aV2607:f8b0:400a:801::100c
p3298
aV2a00:1450:400e:400::17
p3299
aV2a00:1450:400e:401::17
p3300
aV2a00:1450:400e:405::17
p3301
ag2477
ag2477
ag2477
ag2477
ag2477
ag2477
ag2477
ag2477
ag2477
ag2477
ag2477
ag2477
ag2477
ag2477
ag2477
ag2477
ag2477
ag2477
ag2477
ag2477
ag2477
ag2477
ag2477
ag2477
ag2477
ag2477
ag2477
ag2477
ag2477
ag2477
ag2477
ag2477
ag2477
ag2477
ag2477
ag2477
ag2477
ag2477
ag2477
ag2477
ag2477
ag2477
ag2477
ag2477
ag2477
aV2a00:1450:400e:406::17
p3302
aV2a00:1450:400e:407::17
p3303
aV2a00:1450:400e:402::17
p3304
aV2a00:1450:400e:403::17
p3305
aV2607:f8b0:400a:801::100b
p3306
ag2477
ag2477
ag2477
ag2477
ag2477
ag2477
ag2477
ag2477
ag2477
ag2477
ag2477
ag2477
ag2477
ag2477
ag2477
ag2477
ag2477
ag2477
ag2477
ag2477
ag2477
ag2477
ag2477
ag2477
ag2477
ag2477
ag2477
ag2477
ag2477
ag2477
ag2477
ag2477
ag2477
ag2477
ag2477
ag2477
ag2477
ag2477
ag2477
ag2477
ag2477
ag2477
ag2477
ag2477
ag2477
ag2477
ag2477
ag2477
ag2477
ag2477
ag2477
ag2477
ag2477
ag2477
ag2477
ag2477
ag2477
ag2477
ag2477
ag2477
ag2477
ag2477
ag2477
ag2477
ag2477
ag2477
ag2477
ag2477
ag2477
ag2477
ag2477
ag2477
ag2477
ag2477
ag2477
ag2477
ag2477
ag2477
ag2477
ag2477
ag2477
ag2477
ag2477
aV2607:f8b0:400a:805::1003
p3307
aV2a00:1450:4013:c01::66
p3308
aV2a00:1450:4013:c01::66
p3309
aV2607:f8b0:400a:801::1000
p3310
aV2607:f8b0:400a:801::1000
p3311
aV2a00:1450:4013:c01::65
p3312
aV2607:f8b0:400a:801::1007
p3313
aV2a00:1450:4013:c01::8b
p3314
aV2a00:1450:4001:c02::65
p3315
aV2607:f8b0:400a:801::1004
p3316
aV2a00:1450:4001:80e::1004
p3317
aV2a00:1450:4001:80e::1002
p3318
aV2607:f8b0:400a:801::1000
p3319
aV2a00:1450:4013:c00::65
p3320
aV2607:f8b0:400a:801::1000
p3321
aV2607:f8b0:400a:801::1007
p3322
aV2404:6800:4005:800::1005
p3323
aV2607:f8b0:4004:800::1009
p3324
aV2607:f8b0:400a:801::1007
p3325
aV2607:f8b0:400b:80b::1008
p3326
aV2607:f8b0:400a:801::1006
p3327
aV2a00:1450:4001:c02::71
p3328
aV2a00:1450:4001:803::100e
p3329
aV2607:f8b0:400a:801::1007
p3330
aV2a00:1450:4001:c02::8b
p3331
aV2a00:1450:4009:804::1000
p3332
aV2a00:1450:4017:801::1005
p3333
aV2a00:1450:4013:c01::8a
p3334
aV2a00:1450:4013:c01::8a
p3335
aV2607:f8b0:400a:800::100e
p3336
aV2607:f8b0:400a:801::1005
p3337
aV2607:f8b0:400b:80b::1003
p3338
aV2607:f8b0:400b:80b::1005
p3339
aV2a00:1450:4001:c02::8b
p3340
aV2607:f8b0:4004:800::1008
p3341
aV2404:6800:4005:800::1007
p3342
aV2a00:1450:4005:808::1009
p3343
aV2607:f8b0:400a:801::1005
p3344
aV2a00:1450:4016:801::1002
p3345
aV2607:f8b0:400a:801::1002
p3346
aV2607:f8b0:400a:801::100e
p3347
aV2a00:1450:4017:801::1001
p3348
aV2607:f8b0:400a:800::1007
p3349
aV2607:f8b0:4009:800::1007
p3350
aV2a00:1450:4010:c08::8b
p3351
aV2607:f8b0:400b:80b::1004
p3352
aV2607:f8b0:4004:800::1005
p3353
aV2607:f8b0:4009:800::1008
p3354
aV2a00:1450:4002:802::1001
p3355
aV2a00:1450:4005:808::1000
p3356
aV2a00:1450:4001:c02::66
p3357
aV2a00:1450:4002:803::1007
p3358
aV2a00:1450:4002:803::1008
p3359
aV2607:f8b0:400a:800::1006
p3360
aV2607:f8b0:400a:801::100e
p3361
aV2a00:1450:4005:808::100e
p3362
aV2a00:1450:4016:801::1003
p3363
aV2a00:1450:4013:c01::65
p3364
aV2a00:1450:4002:803::1007
p3365
aV2a00:1450:4009:804::1007
p3366
aV2607:f8b0:4004:800::1000
p3367
aV2607:f8b0:4009:800::1002
p3368
aV2a00:1450:4013:c01::8b
p3369
aV2a00:1450:4013:c01::66
p3370
aV2607:f8b0:4004:800::1009
p3371
aV2a00:1450:4001:801::1007
p3372
aV2607:f8b0:4004:800::1001
p3373
aV2404:6800:4005:800::1000
p3374
aV2607:f8b0:4004:800::1009
p3375
aV2607:f8b0:4004:800::1009
p3376
aV2a00:1450:4001:80d::1009
p3377
aV2607:f8b0:4004:800::1009
p3378
aV2607:f8b0:4004:800::1009
p3379
aV2607:f8b0:4004:800::1009
p3380
aV2a00:1450:4002:802::1002
p3381
aV2607:f8b0:400c:c03::66
p3382
aV2607:f8b0:400a:801::1006
p3383
aV2a00:1450:4013:c00::71
p3384
aV2a00:1450:4009:804::100e
p3385
aV2607:f8b0:400a:800::1000
p3386
aV2607:f8b0:4004:800::1007
p3387
aV2a00:1450:4001:80a::1002
p3388
aV2a00:1450:4013:c00::71
p3389
aV2404:6800:4005:800::1001
p3390
aV2404:6800:4005:800::1001
p3391
aV2a00:1450:4001:80d::1009
p3392
aV2607:f8b0:400a:801::1009
p3393
aV2607:f8b0:400a:800::1004
p3394
aV2a00:1450:4005:808::1009
p3395
aV2a00:1450:4009:804::100e
p3396
aV2a00:1450:4001:c02::66
p3397
aV2a00:1450:4013:c00::71
p3398
aV2a00:1450:4010:c08::66
p3399
aV2607:f8b0:4009:800::1001
p3400
aV2607:f8b0:400a:801::1008
p3401
aV2607:f8b0:400a:801::1008
p3402
aV2607:f8b0:4004:800::1007
p3403
aV2a00:1450:4005:808::100e
p3404
aV2607:f8b0:400a:805::1003
p3405
aV2607:f8b0:400c:c03::66
p3406
aV2a00:1450:4017:801::1001
p3407
aV2a00:1450:4013:c01::71
p3408
aV2607:f8b0:400a:805::1003
p3409
aV2404:6800:4006:804::1002
p3410
aV2607:f8b0:400b:80b::1003
p3411
aV2a00:1450:4013:c00::8b
p3412
aV2a00:1450:4002:801::100e
p3413
aV2607:f8b0:4004:800::1009
p3414
aV2607:f8b0:4004:800::1003
p3415
aV2607:f8b0:400c:c03::8a
p3416
aV2607:f8b0:400c:c03::8a
p3417
aV2a00:1450:4013:c01::8a
p3418
aV2a00:1450:4013:c00::8b
p3419
aV2404:6800:4005:800::100e
p3420
aV2a00:1450:4001:c02::66
p3421
aV2a00:1450:4013:c00::8b
p3422
aV2404:6800:4005:800::100e
p3423
aV2607:f8b0:400a:800::1001
p3424
aV2a00:1450:4002:803::1007
p3425
aV2607:f8b0:400a:800::1002
p3426
aV2607:f8b0:400a:800::1000
p3427
aV2a00:1450:4016:801::1003
p3428
aV2a00:1450:4009:804::1001
p3429
aV2607:f8b0:400a:801::1007
p3430
aV2a00:1450:4009:804::1001
p3431
aV2a00:1450:4016:801::1000
p3432
aV2a00:1450:4016:801::1000
p3433
aV2a00:1450:4005:808::1007
p3434
aV2607:f8b0:4009:800::1004
p3435
aV2607:f8b0:400a:800::1005
p3436
aV2a00:1450:4017:801::1004
p3437
aV2404:6800:4005:800::1005
p3438
aV2a00:1450:4013:c01::71
p3439
aV2607:f8b0:400a:801::1007
p3440
aV2607:f8b0:400a:800::100e
p3441
aV2607:f8b0:4004:800::100e
p3442
aV2607:f8b0:400a:800::1005
p3443
aV2607:f8b0:4004:800::1009
p3444
aV2607:f8b0:4009:800::1003
p3445
aV2607:f8b0:4004:800::1009
p3446
aV2607:f8b0:4004:800::1009
p3447
aV2607:f8b0:400a:800::1005
p3448
aV2a00:1450:4013:c00::71
p3449
aV2a00:1450:4005:808::1007
p3450
aV2607:f8b0:4004:800::1006
p3451
aV2a00:1450:4013:c01::8b
p3452
aV2a00:1450:4013:c01::8b
p3453
aV2a00:1450:4013:c01::8b
p3454
aV2607:f8b0:400c:c03::66
p3455
aV2607:f8b0:400a:801::100e
p3456
aV2a00:1450:4013:c00::65
p3457
aV2a00:1450:4001:804::1000
p3458
aV2a00:1450:4009:804::1003
p3459
aV2a00:1450:4009:804::1005
p3460
aV2a00:1450:4009:804::1005
p3461
aV2a00:1450:4013:c00::64
p3462
aV2404:6800:4006:804::1004
p3463
aV2607:f8b0:400a:800::1007
p3464
aV2607:f8b0:400a:801::100e
p3465
aV2a00:1450:4005:808::1000
p3466
aV2a00:1450:4013:c01::64
p3467
aV2607:f8b0:4004:800::1005
p3468
aV2a00:1450:4017:801::1006
p3469
aV2a00:1450:4002:803::1008
p3470
aV2a00:1450:4009:804::1000
p3471
aV2607:f8b0:400a:805::1009
p3472
aV2a00:1450:4002:803::1008
p3473
aV2a00:1450:4002:802::1001
p3474
aV2404:6800:4006:804::100e
p3475
aV2607:f8b0:400a:801::1000
p3476
aV2607:f8b0:400c:c03::71
p3477
aV2607:f8b0:4009:800::1001
p3478
aV2a00:1450:4009:804::1000
p3479
aV2404:6800:4005:800::1003
p3480
aV2a00:1450:4001:c02::65
p3481
aV2607:f8b0:4004:800::1000
p3482
aV2404:6800:4005:800::1003
p3483
aV2607:f8b0:4004:800::1005
p3484
aV2607:f8b0:4004:800::1009
p3485
aV2a00:1450:4016:801::1002
p3486
aV2a00:1450:4013:c00::71
p3487
aV2a00:1450:4013:c00::71
p3488
aV2607:f8b0:400a:801::1009
p3489
aV2607:f8b0:400a:801::1009
p3490
aV2607:f8b0:400a:800::1000
p3491
aV2607:f8b0:400a:800::1004
p3492
aV2607:f8b0:400a:801::1009
p3493
aV2404:6800:4006:804::1000
p3494
aV2607:f8b0:4009:800::1007
p3495
aV2607:f8b0:400a:800::1000
p3496
aV2404:6800:4006:804::1000
p3497
aV2607:f8b0:400a:801::1009
p3498
aV2607:f8b0:400a:800::1008
p3499
aV2a00:1450:4009:804::1007
p3500
aV2607:f8b0:4004:800::1007
p3501
aV2a00:1450:4013:c01::71
p3502
aV2607:f8b0:400a:800::1006
p3503
aV2607:f8b0:400a:801::100e
p3504
aV2a00:1450:4013:c01::71
p3505
aV2607:f8b0:400a:801::100e
p3506
aV2607:f8b0:400b:80b::1008
p3507
aV2a00:1450:4005:808::100e
p3508
aV2a00:1450:4001:80c::1009
p3509
aV2607:f8b0:4009:800::1002
p3510
aV2607:f8b0:4009:800::1001
p3511
aV2a00:1450:4013:c00::8b
p3512
aV2a00:1450:4013:c00::8b
p3513
aV2a00:1450:4009:804::1001
p3514
aV2a00:1450:4013:c01::64
p3515
aV2a00:1450:4001:c02::8b
p3516
aV2a00:1450:4013:c01::64
p3517
aV2607:f8b0:400a:801::1009
p3518
aV2607:f8b0:400a:800::1001
p3519
aV2607:f8b0:4009:800::1002
p3520
aV2607:f8b0:4004:800::1009
p3521
aV2607:f8b0:400c:c03::66
p3522
aV2a00:1450:4009:804::1001
p3523
aV2a00:1450:4009:804::1001
p3524
aV2a00:1450:4013:c00::8b
p3525
aV2a00:1450:4009:804::1001
p3526
aV2607:f8b0:400a:805::1009
p3527
aV2607:f8b0:400a:801::1009
p3528
aV2607:f8b0:4004:800::1009
p3529
aV2607:f8b0:4004:800::1009
p3530
aV2607:f8b0:400a:801::1009
p3531
aV2a00:1450:4013:c00::8b
p3532
aV2a00:1450:4013:c00::8b
p3533
aV2a00:1450:4005:808::100e
p3534
aV2a00:1450:4013:c00::65
p3535
aV2a00:1450:4013:c00::8a
p3536
aV2607:f8b0:400c:c03::8a
p3537
aV2607:f8b0:400a:801::1007
p3538
aV2607:f8b0:400a:801::1004
p3539
aV2607:f8b0:400a:801::1001
p3540
aV2607:f8b0:400a:805::1003
p3541
aV2607:f8b0:400a:805::1003
p3542
aV2a00:1450:4001:c02::64
p3543
aV2607:f8b0:4009:800::1007
p3544
aV2a00:1450:4013:c00::65
p3545
aV2a00:1450:4002:803::1009
p3546
aV2607:f8b0:400a:805::1003
p3547
aV2a00:1450:4002:803::1007
p3548
aV2607:f8b0:4004:800::1009
p3549
aV2607:f8b0:400c:c03::8a
p3550
aV2a00:1450:4013:c00::8b
p3551
aV2607:f8b0:400a:801::1000
p3552
aV2607:f8b0:400a:801::1000
p3553
aV2607:f8b0:400b:80b::1006
p3554
aV2a00:1450:4013:c01::8a
p3555
aV2607:f8b0:400b:80a::1009
p3556
aV2607:f8b0:400b:80a::1009
p3557
aV2607:f8b0:4009:800::100e
p3558
aV2a00:1450:4013:c01::71
p3559
aV2607:f8b0:400a:805::1002
p3560
aV2a00:1450:4009:804::1004
p3561
aV2607:f8b0:4009:800::1009
p3562
aV2a00:1450:4002:801::1001
p3563
aV2607:f8b0:400b:80b::1009
p3564
aV2404:6800:4005:800::1000
p3565
aV2a00:1450:4013:c00::64
p3566
aV2607:f8b0:400a:805::1008
p3567
aV2a00:1450:4005:808::1000
p3568
aV2a00:1450:4010:c08::8b
p3569
aV2607:f8b0:400a:805::1008
p3570
aV2a00:1450:4013:c01::66
p3571
aV2607:f8b0:400c:c03::64
p3572
aV2a00:1450:4009:804::1008
p3573
aV2607:f8b0:400a:801::1007
p3574
aV2a00:1450:4009:804::1004
p3575
aV2607:f8b0:4009:800::1001
p3576
aV2a00:1450:4017:801::1003
p3577
aV2a00:1450:4002:802::1008
p3578
aV2a00:1450:4002:802::1000
p3579
aV2607:f8b0:400a:805::1002
p3580
aV2607:f8b0:400a:805::1002
p3581
aV2a00:1450:4017:801::1003
p3582
aV2a00:1450:4013:c00::8b
p3583
aV2a00:1450:4013:c00::8a
p3584
aV2a00:1450:4013:c01::66
p3585
aV2607:f8b0:400a:801::1009
p3586
aV2607:f8b0:4004:800::1003
p3587
aV2a00:1450:4001:c02::66
p3588
aV2a00:1450:4002:803::1000
p3589
aV2607:f8b0:400a:800::1008
p3590
aV2607:f8b0:400a:805::1008
p3591
aV2a00:1450:4009:804::1003
p3592
aV2a00:1450:4009:804::1003
p3593
aV2a00:1450:4013:c00::71
p3594
aV2607:f8b0:400c:c03::66
p3595
aV2a00:1450:4013:c01::66
p3596
aV2a00:1450:4013:c01::66
p3597
aV2404:6800:4006:804::1001
p3598
aV2a00:1450:4013:c01::66
p3599
aV2a00:1450:4013:c01::66
p3600
aV2a00:1450:4013:c01::66
p3601
aV2607:f8b0:400a:801::1001
p3602
aV2a00:1450:4001:c02::65
p3603
aV2a00:1450:4001:c02::65
p3604
aV2404:6800:4005:800::100e
p3605
aV2a00:1450:4016:801::1008
p3606
aV2607:f8b0:4009:800::1004
p3607
aV2607:f8b0:400b:80a::1005
p3608
aV2607:f8b0:4009:800::100e
p3609
aV2a00:1450:4013:c01::65
p3610
aV2a00:1450:4009:804::1001
p3611
aV2404:6800:4005:800::1003
p3612
aV2a00:1450:4009:804::1001
p3613
aV2a00:1450:4017:801::1000
p3614
aV2a00:1450:4013:c00::64
p3615
aV2a00:1450:4002:803::1009
p3616
aV2607:f8b0:400a:805::100e
p3617
aV2a00:1450:4010:c08::8a
p3618
aV2607:f8b0:400b:80a::1005
p3619
aV2607:f8b0:400a:801::1007
p3620
aV2607:f8b0:400a:805::1006
p3621
aV2607:f8b0:400a:805::1005
p3622
aV2a00:1450:4013:c01::8a
p3623
aV2a00:1450:4002:802::1002
p3624
aV2a00:1450:4013:c01::8a
p3625
aV2607:f8b0:4009:800::1003
p3626
aV2607:f8b0:4004:800::1005
p3627
aV2607:f8b0:400a:805::1009
p3628
aV2a00:1450:4005:808::1001
p3629
aV2607:f8b0:400a:800::1004
p3630
aV2a00:1450:4017:801::1003
p3631
aV2a00:1450:4013:c00::65
p3632
aV2607:f8b0:400a:800::1004
p3633
aV2a00:1450:4013:c00::64
p3634
aV2a00:1450:4009:804::100e
p3635
aV2a00:1450:4010:c08::8a
p3636
aV2a00:1450:4001:c02::8a
p3637
aV2607:f8b0:400a:805::1004
p3638
aV2607:f8b0:400a:805::1004
p3639
aV2a00:1450:4010:c08::8a
p3640
aV2404:6800:4006:804::1003
p3641
aV2a00:1450:4013:c00::65
p3642
aV2a00:1450:4009:804::100e
p3643
aV2607:f8b0:400a:801::1000
p3644
aV2a00:1450:4013:c01::8a
p3645
aV2a00:1450:4013:c01::8a
p3646
aV2a00:1450:4002:801::1009
p3647
aV2607:f8b0:400a:805::1009
p3648
aV2607:f8b0:4004:800::1009
p3649
aV2607:f8b0:400b:80b::1008
p3650
aV2607:f8b0:400a:801::1008
p3651
aV2a00:1450:4013:c01::8a
p3652
aV2a00:1450:4002:801::1009
p3653
aV2a00:1450:4013:c00::8a
p3654
aV2607:f8b0:400a:801::1009
p3655
aV2607:f8b0:4004:800::1009
p3656
aV2607:f8b0:4009:800::1005
p3657
aV2a00:1450:4005:808::1000
p3658
aV2607:f8b0:4004:800::1009
p3659
aV2a00:1450:4001:c02::71
p3660
aV2607:f8b0:400a:801::1008
p3661
aV2404:6800:4005:800::1000
p3662
aV2a00:1450:4005:808::1007
p3663
aV2a00:1450:4017:801::1003
p3664
aV2a00:1450:4013:c00::65
p3665
aV2404:6800:4006:804::1002
p3666
aV2607:f8b0:400c:c03::8a
p3667
aV2607:f8b0:400a:805::1003
p3668
aV2a00:1450:4002:803::1009
p3669
aV2607:f8b0:400a:805::1005
p3670
aV2607:f8b0:400b:80b::1003
p3671
aV2a00:1450:4002:801::100e
p3672
aV2607:f8b0:4004:800::1001
p3673
aV2a00:1450:4001:c02::64
p3674
aV2a00:1450:4016:801::1002
p3675
aV2404:6800:4005:800::1005
p3676
aV2a00:1450:4002:802::1007
p3677
aV2a00:1450:4013:c00::8a
p3678
aV2a00:1450:4017:801::1000
p3679
aV2a00:1450:4002:802::1007
p3680
aV2a00:1450:4009:804::1004
p3681
aV2a00:1450:4009:804::1004
p3682
aV2607:f8b0:400a:801::1000
p3683
aV2607:f8b0:400a:805::1002
p3684
aV2607:f8b0:400a:805::1002
p3685
aV2a00:1450:4001:c02::65
p3686
aV2404:6800:4008:3::6
p3687
aV2607:f8b0:4009:800::1009
p3688
aV2a00:1450:4013:c00::8a
p3689
aV2404:6800:4008:2::6
p3690
aV2404:6800:4008:2::7
p3691
aV2a00:1450:4010:c08::8b
p3692
aV2a00:1450:4013:c01::71
p3693
aV2404:6800:4008:3::7
p3694
aV2404:6800:4008:3::8
p3695
aV2404:6800:4008:2::8
p3696
aV2404:6800:4008:2::9
p3697
aV2404:6800:4008:3::9
p3698
aV2404:6800:4008:2::a
p3699
aV2404:6800:4008:3::a
p3700
aV2404:6800:4008:2::b
p3701
aV2404:6800:4008:3::b
p3702
aV2404:6800:4008:2::c
p3703
aV2404:6800:4008:3::c
p3704
aV2404:6800:4008:3::d
p3705
aV2404:6800:4008:2::f
p3706
aV2404:6800:4008:2::10
p3707
aV2404:6800:4008:2::d
p3708
aV2404:6800:4008:3::10
p3709
aV2404:6800:4008:2::e
p3710
aV2404:6800:4008:3::e
p3711
aV2404:6800:4008:3::f
p3712
aV2404:6800:4008:2::11
p3713
aV2404:6800:4008:3::11
p3714
aV2404:6800:4008:3::12
p3715
aV2404:6800:4008:2::12
p3716
aV2404:6800:4008:2::14
p3717
aV2404:6800:4008:2::15
p3718
aV2404:6800:4008:3::15
p3719
aV2404:6800:4008:2::13
p3720
aV2404:6800:4008:3::13
p3721
aV2404:6800:4008:2::16
p3722
aV2404:6800:4008:3::14
p3723
aV2404:6800:4008:3::17
p3724
aV2404:6800:4008:3::16
p3725
aV2404:6800:4008:2::17
p3726
aV2404:6800:4008:2::18
p3727
aV2404:6800:4008:2::19
p3728
aV2404:6800:4008:3::18
p3729
aV2404:6800:4008:3::19
p3730
aV2404:6800:4005:6::6
p3731
aV2404:6800:4005:5::6
p3732
aV2404:6800:4005:4::6
p3733
aV2404:6800:4005:6::7
p3734
aV2404:6800:4005:7::6
p3735
aV2404:6800:4005:4::7
p3736
aV2404:6800:4005:7::8
p3737
aV2404:6800:4005:7::7
p3738
aV2404:6800:4005:5::7
p3739
aV2404:6800:4005:4::8
p3740
aV2404:6800:4005:6::8
p3741
aV2404:6800:4005:5::8
p3742
aV2404:6800:4005:4::9
p3743
aV2404:6800:4005:7::9
p3744
aV2404:6800:4005:6::9
p3745
aV2404:6800:4005:7::a
p3746
aV2404:6800:4005:5::a
p3747
aV2404:6800:4005:5::9
p3748
aV2404:6800:4005:4::a
p3749
aV2404:6800:4005:6::a
p3750
aV2404:6800:4005:4::b
p3751
aV2404:6800:4005:5::b
p3752
aV2404:6800:4005:6::b
p3753
aV2404:6800:4005:7::b
p3754
aV2404:6800:4005:4::c
p3755
aV2404:6800:4005:7::c
p3756
aV2404:6800:4005:5::c
p3757
aV2404:6800:4005:5::d
p3758
aV2404:6800:4005:7::d
p3759
aV2404:6800:4005:4::d
p3760
aV2404:6800:4005:6::c
p3761
aV2404:6800:4005:6::d
p3762
aV2404:6800:4005:6::e
p3763
aV2404:6800:4005:4::e
p3764
aV2404:6800:4005:7::f
p3765
aV2404:6800:4005:5::e
p3766
aV2404:6800:4005:7::e
p3767
aV2404:6800:4005:5::10
p3768
aV2404:6800:4005:4::f
p3769
aV2404:6800:4005:4::10
p3770
aV2404:6800:4005:5::f
p3771
aV2404:6800:4005:6::f
p3772
aV2404:6800:4005:6::10
p3773
aV2404:6800:4005:7::10
p3774
aV2404:6800:4005:4::11
p3775
aV2404:6800:4005:5::12
p3776
aV2404:6800:4005:5::11
p3777
aV2404:6800:4005:6::11
p3778
aV2404:6800:4005:4::12
p3779
aV2404:6800:4005:7::11
p3780
aV2404:6800:4005:6::12
p3781
aV2404:6800:4005:7::12
p3782
aV2404:6800:4005:6::13
p3783
aV2404:6800:4005:6::14
p3784
aV2404:6800:4005:4::13
p3785
aV2404:6800:4005:7::13
p3786
aV2404:6800:4005:5::13
p3787
aV2404:6800:4005:5::14
p3788
aV2404:6800:4005:4::14
p3789
aV2404:6800:4005:5::15
p3790
aV2404:6800:4005:7::14
p3791
aV2404:6800:4005:4::15
p3792
aV2404:6800:4005:7::15
p3793
aV2404:6800:4005:6::16
p3794
aV2404:6800:4005:6::15
p3795
aV2404:6800:4005:5::16
p3796
aV2404:6800:4005:4::16
p3797
aV2404:6800:4005:7::16
p3798
aV2404:6800:4005:4::17
p3799
aV2404:6800:4005:6::17
p3800
aV2404:6800:4005:7::17
p3801
aV2404:6800:4005:5::17
p3802
ag2477
aV2404:6800:4005:4::18
p3803
aV2404:6800:4005:6::18
p3804
aV2404:6800:4005:5::18
p3805
aV2404:6800:4005:5::19
p3806
aV2404:6800:4005:7::19
p3807
aV2404:6800:4005:4::19
p3808
aV2404:6800:4005:7::18
p3809
aV2404:6800:4005:6::19
p3810
ag2477
ag2477
ag2477
ag2477
ag2477
ag2477
ag2477
ag2477
ag2477
ag2477
ag2477
ag2477
ag2477
ag2477
ag2477
ag2477
ag2477
ag2477
ag2477
ag2477
ag2477
ag2477
ag2477
ag2477
ag2477
ag2477
ag2477
ag2477
ag2477
ag2477
ag2477
ag2477
ag2477
ag2477
ag2477
ag2477
ag2477
ag2477
ag2477
ag2477
ag2477
ag2477
ag2477
ag2477
ag2477
ag2477
ag2477
ag2477
ag2477
ag2477
ag2477
ag2477
ag2477
ag2477
ag2477
ag2477
ag2477
ag2477
ag2477
ag2477
ag2477
ag2477
ag2477
ag2477
ag2477
ag2477
ag2477
ag2477
ag2477
ag2477
ag2477
ag2477
ag2477
ag2477
ag2477
ag2477
ag2477
ag2477
ag2477
aV2404:6800:4007::6
p3811
aV2404:6800:4007::7
p3812
aV2404:6800:4007::a
p3813
aV2404:6800:4007::8
p3814
aV2404:6800:4007:1::9
p3815
aV2404:6800:4007:1::8
p3816
aV2404:6800:4007:1::a
p3817
aV2404:6800:4007::9
p3818
aV2404:6800:4007:1::6
p3819
aV2404:6800:4007:1::7
p3820
aV2404:6800:4007::b
p3821
aV2404:6800:4007:1::b
p3822
aV2404:6800:4007::c
p3823
aV2404:6800:4007:1::c
p3824
aV2404:6800:4007::d
p3825
aV2404:6800:4007::e
p3826
aV2404:6800:4007:1::e
p3827
aV2404:6800:4007::f
p3828
aV2404:6800:4007:1::d
p3829
aV2404:6800:4007:1::12
p3830
aV2404:6800:4007:1::11
p3831
aV2404:6800:4007::10
p3832
aV2404:6800:4007::13
p3833
aV2404:6800:4007:1::f
p3834
aV2404:6800:4007::14
p3835
aV2404:6800:4007::12
p3836
aV2404:6800:4007:1::10
p3837
aV2404:6800:4007::11
p3838
aV2404:6800:4007:1::13
p3839
aV2404:6800:4007:1::15
p3840
aV2404:6800:4007::15
p3841
aV2404:6800:4007::18
p3842
aV2404:6800:4007::19
p3843
aV2404:6800:4007:1::14
p3844
aV2404:6800:4007:1::18
p3845
aV2404:6800:4007:1::17
p3846
aV2404:6800:4007:1::16
p3847
ag2477
aV2404:6800:4007::16
p3848
aV2404:6800:4007::17
p3849
ag2477
ag2477
aV2a00:1450:4001:c02::a0
p3850
aV2404:6800:4007:1::19
p3851
aV2a00:1450:4013:c00::76
p3852
aV2607:f8b0:400d:c03::a0
p3853
aV2607:f8b0:400d:c03::a0
p3854
aV2607:f8b0:400a:801::1005
p3855
aV2a00:1450:4001:c02::a0
p3856
aV2607:f8b0:400c:c03::68
p3857
aV2001:4860:400b:c01::a0
p3858
aV2607:f8b0:400a:801::1013
p3859
aV2607:f8b0:400a:801::100c
p3860
aV2607:f8b0:400a:800::100b
p3861
aV2607:f8b0:4004:800::100b
p3862
aV2607:f8b0:400a:800::100b
p3863
aV2607:f8b0:400a:800::100a
p3864
aV2607:f8b0:4004:800::100a
p3865
aV2607:f8b0:4009:800::100a
p3866
aV2607:f8b0:4004:800::100a
p3867
aV2a00:1450:4013:c01::84
p3868
aV2607:f8b0:400a:801::100c
p3869
aV2a00:1450:4001:80f::100c
p3870
aV2a00:1450:4013:c00::84
p3871
aV2a00:1450:4013:c00::84
p3872
aV2607:f8b0:400a:801::100b
p3873
aV2607:f8b0:400a:800::100a
p3874
aV2607:f8b0:400a:801::100c
p3875
aV2607:f8b0:400a:801::100c
p3876
aV2404:6800:4005:800::100e
p3877
aV2a00:1450:4013:c00::5e
p3878
aV2404:6800:4005:800::1011
p3879
aV2a00:1450:4005:808::1007
p3880
aV2607:f8b0:4009:800::1000
p3881
aV2607:f8b0:4009:800::1017
p3882
aV2a00:1450:4016:801::100f
p3883
aV2607:f8b0:4000:804::1018
p3884
aV2a00:1450:4002:802::1013
p3885
aV2607:f8b0:400a:801::1010
p3886
aV2607:f8b0:400a:801::1013
p3887
aV2a00:1450:4010:c08::5e
p3888
aV2607:f8b0:400a:800::1010
p3889
aV2607:f8b0:400a:800::101f
p3890
aV2607:f8b0:400a:800::1017
p3891
aV2a00:1450:4001:c02::5e
p3892
aV2607:f8b0:4009:800::1004
p3893
aV2404:6800:4006:804::1001
p3894
aV2a00:1450:4009:804::100e
p3895
aV2a00:1450:4017:801::1000
p3896
aV2a00:1450:4016:801::1002
p3897
aV2a00:1450:4013:c00::64
p3898
aV2607:f8b0:4009:800::1003
p3899
aV2607:f8b0:400e:c01::a0
p3900
aV2607:f8b0:400a:805::1008
p3901
aV2607:f8b0:4001:c05::5f
p3902
ag2477
ag2477
aV2607:f8b0:400b:80b::1002
p3903
aV2404:6800:4005:800::1008
p3904
aV2a00:1450:4001:c02::5f
p3905
aV2a00:1450:4001:c02::5f
p3906
aV2404:6800:4008:c01::5f
p3907
aV2a00:1450:4001:c02::5f
p3908
aV2607:f8b0:400a:801::1006
p3909
aV2607:f8b0:400d:c03::5f
p3910
aV2607:f8b0:4004:800::1009
p3911
aV2a00:1450:4001:c02::5f
p3912
aV2404:6800:4008:c01::5f
p3913
aV2607:f8b0:400a:801::1006
p3914
aV2607:f8b0:400a:801::1006
p3915
aV2a00:1450:4002:803::1008
p3916
aV2607:f8b0:400a:800::1000
p3917
aV2a00:1450:4002:802::1002
p3918
aV2607:f8b0:400a:800::1000
p3919
aV2404:6800:4005:800::100e
p3920
aV2607:f8b0:400a:801::1009
p3921
aV2607:f8b0:400a:801::1009
p3922
aV2a00:1450:4013:c00::71
p3923
aV2607:f8b0:400a:800::1002
p3924
aV2607:f8b0:400a:805::1003
p3925
aV2607:f8b0:400a:805::1003
p3926
aV2607:f8b0:400a:800::1004
p3927
aV2a00:1450:4013:c00::65
p3928
aV2a00:1450:4017:801::1000
p3929
aV2a00:1450:4013:c00::8b
p3930
aV2607:f8b0:400a:805::1003
p3931
aV2a00:1450:4002:802::1004
p3932
aV2607:f8b0:4004:800::1007
p3933
aV2607:f8b0:400a:805::1009
p3934
aV2607:f8b0:400a:805::1009
p3935
aV2a00:1450:4002:803::1008
p3936
aV2a00:1450:4002:803::1008
p3937
aV2607:f8b0:400a:805::1009
p3938
aV2607:f8b0:400a:805::1009
p3939
aV2a00:1450:4016:801::100e
p3940
aV2a00:1450:4005:808::100e
p3941
aV2607:f8b0:400c:c03::66
p3942
aV2a00:1450:4013:c01::8a
p3943
aV2a00:1450:4002:801::1009
p3944
aV2a00:1450:4013:c00::8b
p3945
aV2607:f8b0:400a:801::1004
p3946
aV2607:f8b0:4009:800::1001
p3947
aV2607:f8b0:400a:801::1004
p3948
aV2a00:1450:4013:c00::8b
p3949
aV2607:f8b0:400a:801::1004
p3950
aV2a00:1450:4001:80b::1009
p3951
aV2607:f8b0:4004:800::1007
p3952
aV2a00:1450:4013:c01::64
p3953
aV2a00:1450:4009:804::1003
p3954
aV2607:f8b0:400c:c03::66
p3955
aV2607:f8b0:400c:c03::71
p3956
aV2a00:1450:4005:808::1007
p3957
aV2a00:1450:4002:801::1004
p3958
aV2607:f8b0:400b:80b::1008
p3959
aV2404:6800:4005:800::1005
p3960
aV2a00:1450:4013:c01::64
p3961
aV2a00:1450:4016:801::1007
p3962
aV2607:f8b0:400a:800::1005
p3963
aV2607:f8b0:400a:800::100e
p3964
aV2607:f8b0:400a:801::1001
p3965
aV2607:f8b0:400a:800::1006
p3966
aV2607:f8b0:400a:800::1005
p3967
aV2607:f8b0:400a:801::1005
p3968
aV2607:f8b0:400a:800::1006
p3969
aV2607:f8b0:400a:801::1002
p3970
aV2a00:1450:4001:804::1000
p3971
aV2607:f8b0:400a:800::1006
p3972
aV2607:f8b0:400a:800::1007
p3973
aV2607:f8b0:400a:801::100e
p3974
aV2607:f8b0:400a:800::1006
p3975
aV2a00:1450:4002:801::1006
p3976
aV2a00:1450:4002:801::1006
p3977
aV2a00:1450:4013:c01::8a
p3978
aV2607:f8b0:400c:c03::8a
p3979
aV2607:f8b0:400a:801::100e
p3980
aV2a00:1450:4013:c01::64
p3981
aV2607:f8b0:400a:801::100e
p3982
aV2404:6800:4006:804::1005
p3983
aV2607:f8b0:400a:801::100e
p3984
aV2607:f8b0:400a:800::1006
p3985
aV2607:f8b0:400a:800::1006
p3986
aV2a00:1450:4009:804::1005
p3987
aV2a00:1450:4013:c01::8b
p3988
aV2607:f8b0:400a:801::100e
p3989
aV2a00:1450:4001:80c::1009
p3990
aV2a00:1450:4013:c01::71
p3991
aV2a00:1450:4013:c00::66
p3992
aV2a00:1450:4009:804::1007
p3993
aV2607:f8b0:400a:800::1008
p3994
aV2607:f8b0:400b:80b::1004
p3995
aV2a00:1450:4009:804::1007
p3996
aV2404:6800:4005:800::1003
p3997
aV2607:f8b0:4004:800::1002
p3998
aV2607:f8b0:4004:800::1009
p3999
aV2607:f8b0:400a:801::100e
p4000
aV2607:f8b0:400b:80b::1008
p4001
aV2607:f8b0:400a:800::1002
p4002
aV2607:f8b0:400a:800::1001
p4003
aV2607:f8b0:400a:800::1001
p4004
aV2a00:1450:4002:801::1009
p4005
aV2404:6800:4005:800::1003
p4006
aV2404:6800:4005:800::1003
p4007
aV2607:f8b0:4004:800::1009
p4008
aV2a00:1450:4005:808::1003
p4009
aV2a00:1450:4017:801::1009
p4010
aV2607:f8b0:400b:80b::1002
p4011
aV2607:f8b0:400a:801::1000
p4012
aV2607:f8b0:400a:805::1008
p4013
aV2607:f8b0:400a:805::1008
p4014
aV2607:f8b0:400a:801::1000
p4015
aV2607:f8b0:400a:801::1000
p4016
aV2607:f8b0:400a:801::100e
p4017
aV2607:f8b0:400a:805::1008
p4018
aV2607:f8b0:400a:801::1000
p4019
aV2a00:1450:4009:804::1000
p4020
aV2607:f8b0:400a:801::1006
p4021
aV2607:f8b0:400a:801::1000
p4022
aV2607:f8b0:400a:801::1009
p4023
aV2607:f8b0:400a:800::1004
p4024
aV2607:f8b0:400a:800::1000
p4025
aV2607:f8b0:400a:800::1004
p4026
aV2404:6800:4005:800::1001
p4027
aV2a00:1450:4001:80d::1009
p4028
aV2607:f8b0:400a:800::1000
p4029
aV2607:f8b0:400a:800::1000
p4030
aV2a00:1450:4013:c01::8b
p4031
aV2607:f8b0:400a:801::1007
p4032
aV2607:f8b0:400a:800::1001
p4033
aV2607:f8b0:400b:80b::1007
p4034
aV2607:f8b0:400a:801::1009
p4035
aV2a00:1450:4002:801::1008
p4036
aV2a00:1450:4001:80d::1009
p4037
aV2404:6800:4005:800::1003
p4038
aV2607:f8b0:4004:800::1001
p4039
aV2607:f8b0:400b:80b::1004
p4040
aV2404:6800:4005:800::1003
p4041
aV2607:f8b0:400b:80b::1008
p4042
aV2404:6800:4005:800::1005
p4043
aV2607:f8b0:4004:800::1008
p4044
aV2607:f8b0:400a:801::1007
p4045
aV2a00:1450:4005:808::1009
p4046
aV2a00:1450:4010:c08::8b
p4047
aV2a00:1450:4002:802::1003
p4048
aV2a00:1450:4016:801::1000
p4049
aV2607:f8b0:4009:800::1003
p4050
aV2607:f8b0:400b:80b::1008
p4051
aV2607:f8b0:4004:800::1009
p4052
aV2607:f8b0:4004:800::1009
p4053
aV2607:f8b0:4004:800::1009
p4054
aV2607:f8b0:4004:800::1009
p4055
aV2a00:1450:4005:808::1009
p4056
aV2a00:1450:4013:c01::8b
p4057
aV2607:f8b0:400b:80b::1003
p4058
aV2607:f8b0:400a:805::1009
p4059
aV2607:f8b0:400a:805::1003
p4060
aV2607:f8b0:400a:805::1009
p4061
aV2607:f8b0:400a:801::1009
p4062
aV2607:f8b0:400a:805::1009
p4063
aV2607:f8b0:400a:801::1009
p4064
aV2607:f8b0:400a:801::1009
p4065
aV2607:f8b0:400a:805::1003
p4066
aV2607:f8b0:400a:801::1009
p4067
aV2607:f8b0:400a:801::1008
p4068
aV2607:f8b0:400a:805::1003
p4069
aV2607:f8b0:400a:805::1003
p4070
aV2a00:1450:4005:808::1007
p4071
aV2607:f8b0:4004:800::1007
p4072
aV2607:f8b0:400a:800::100e
p4073
aV2607:f8b0:400a:805::1005
p4074
aV2607:f8b0:400a:801::1001
p4075
aV2607:f8b0:400a:800::100e
p4076
aV2a00:1450:4005:808::1007
p4077
aV2a00:1450:4013:c00::66
p4078
aV2404:6800:4005:800::1005
p4079
aV2a00:1450:4017:801::1001
p4080
aV2607:f8b0:400a:801::1005
p4081
aV2a00:1450:4013:c00::65
p4082
aV2607:f8b0:4004:800::1003
p4083
aV2607:f8b0:4004:800::1003
p4084
aV2607:f8b0:4009:800::1003
p4085
aV2a00:1450:4001:c02::65
p4086
aV2a00:1450:4010:c08::8b
p4087
aV2a00:1450:4001:c02::65
p4088
aV2a00:1450:4013:c01::64
p4089
aV2607:f8b0:4004:800::1005
p4090
aV2a00:1450:4017:801::1006
p4091
aV2a00:1450:4017:801::1006
p4092
aV2607:f8b0:4004:800::1009
p4093
aV2607:f8b0:4004:800::1007
p4094
aV2a00:1450:4002:803::1008
p4095
aV2a00:1450:4002:802::1001
p4096
aV2a00:1450:4001:c02::66
p4097
aV2a00:1450:4002:801::1006
p4098
aV2a00:1450:4009:804::1005
p4099
aV2a00:1450:4005:808::1000
p4100
aV2a00:1450:4016:801::1003
p4101
aV2a00:1450:4016:801::1003
p4102
aV2a00:1450:4013:c00::8a
p4103
aV2607:f8b0:400a:801::100e
p4104
aV2a00:1450:4002:802::1001
p4105
aV2607:f8b0:400a:801::100e
p4106
aV2607:f8b0:400a:800::1006
p4107
aV2a00:1450:4002:802::1001
p4108
aV2a00:1450:400e:400::10
p4109
aV2a00:1450:400e:404::10
p4110
aV2a00:1450:400e:405::10
p4111
aV2a00:1450:400e:401::10
p4112
aV2a00:1450:400e:402::10
p4113
aV2a00:1450:400e:406::10
p4114
aV2a00:1450:400e:403::10
p4115
aV2a00:1450:400e:407::10
p4116
aV2a00:1450:400e:400::11
p4117
aV2a00:1450:400e:404::11
p4118
aV2a00:1450:400e:406::11
p4119
aV2a00:1450:400e:407::11
p4120
aV2a00:1450:400e:405::11
p4121
aV2a00:1450:400e:401::11
p4122
aV2a00:1450:400e:402::11
p4123
aV2a00:1450:400e:400::12
p4124
aV2a00:1450:400e:404::12
p4125
aV2a00:1450:400e:403::11
p4126
aV2a00:1450:400e:401::12
p4127
aV2a00:1450:400e:405::12
p4128
aV2a00:1450:400e:400::13
p4129
aV2a00:1450:400e:405::13
p4130
aV2a00:1450:400e:406::12
p4131
aV2a00:1450:400e:401::13
p4132
aV2a00:1450:400e:406::13
p4133
aV2a00:1450:400e:402::13
p4134
aV2a00:1450:400e:404::13
p4135
aV2a00:1450:400e:402::12
p4136
aV2a00:1450:400e:407::12
p4137
aV2a00:1450:400e:403::12
p4138
aV2a00:1450:400e:403::13
p4139
aV2a00:1450:400e:407::13
p4140
aV2a00:1450:400e:405::14
p4141
aV2a00:1450:400e:401::14
p4142
aV2a00:1450:400e:402::14
p4143
aV2a00:1450:400e:404::14
p4144
aV2a00:1450:400e:400::14
p4145
aV2a00:1450:400e:407::14
p4146
aV2a00:1450:400e:406::14
p4147
aV2a00:1450:400e:403::14
p4148
aV2a00:1450:400e:400::15
p4149
aV2a00:1450:400e:405::15
p4150
aV2a00:1450:400e:402::15
p4151
aV2a00:1450:400e:406::15
p4152
aV2a00:1450:400e:403::15
p4153
aV2a00:1450:400e:404::15
p4154
aV2a00:1450:400e:401::15
p4155
aV2a00:1450:400e:400::16
p4156
aV2a00:1450:400e:404::16
p4157
aV2a00:1450:400e:407::15
p4158
aV2a00:1450:400e:401::16
p4159
aV2a00:1450:400e:405::16
p4160
aV2a00:1450:400e:402::16
p4161
aV2a00:1450:400e:406::16
p4162
aV2a00:1450:400e:403::16
p4163
aV2a00:1450:400e:407::16
p4164
aV2a00:1450:400e:400::17
p4165
aV2a00:1450:400e:404::17
p4166
aV2a00:1450:400e:401::17
p4167
ag2477
ag2477
ag2477
ag2477
ag2477
ag2477
ag2477
ag2477
ag2477
ag2477
ag2477
ag2477
ag2477
ag2477
ag2477
ag2477
ag2477
ag2477
ag2477
ag2477
ag2477
ag2477
ag2477
ag2477
ag2477
ag2477
ag2477
ag2477
ag2477
ag2477
ag2477
ag2477
ag2477
ag2477
ag2477
ag2477
ag2477
ag2477
ag2477
ag2477
ag2477
ag2477
ag2477
ag2477
aV2a00:1450:400e:405::17
p4168
aV2a00:1450:400e:402::17
p4169
aV2a00:1450:400e:403::17
p4170
aV2a00:1450:400e:407::17
p4171
aV2a00:1450:400e:406::17
p4172
ag2477
ag2477
ag2477
ag2477
ag2477
ag2477
ag2477
ag2477
ag2477
ag2477
ag2477
ag2477
ag2477
ag2477
ag2477
ag2477
ag2477
ag2477
ag2477
ag2477
ag2477
ag2477
ag2477
ag2477
ag2477
ag2477
ag2477
ag2477
ag2477
ag2477
ag2477
ag2477
ag2477
ag2477
ag2477
ag2477
ag2477
ag2477
ag2477
ag2477
ag2477
ag2477
ag2477
ag2477
ag2477
ag2477
ag2477
ag2477
ag2477
ag2477
ag2477
ag2477
ag2477
ag2477
ag2477
ag2477
ag2477
ag2477
ag2477
ag2477
ag2477
ag2477
ag2477
ag2477
ag2477
ag2477
ag2477
ag2477
ag2477
ag2477
ag2477
ag2477
ag2477
ag2477
ag2477
ag2477
ag2477
ag2477
ag2477
ag2477
ag2477
ag2477
ag2477
ag2477
aV2404:6800:4005:4::6
p4173
aV2404:6800:4005:5::7
p4174
aV2404:6800:4005:5::8
p4175
aV2404:6800:4005:4::8
p4176
aV2404:6800:4005:6::7
p4177
aV2404:6800:4005:7::7
p4178
aV2404:6800:4005:5::6
p4179
aV2404:6800:4005:6::6
p4180
aV2404:6800:4005:7::6
p4181
aV2404:6800:4005:4::7
p4182
aV2404:6800:4005:4::9
p4183
aV2404:6800:4005:5::9
p4184
aV2404:6800:4005:6::8
p4185
aV2404:6800:4005:7::8
p4186
aV2404:6800:4005:6::9
p4187
aV2404:6800:4005:5::a
p4188
aV2404:6800:4005:4::b
p4189
aV2404:6800:4005:6::a
p4190
aV2404:6800:4005:7::a
p4191
aV2404:6800:4005:4::a
p4192
aV2404:6800:4005:7::9
p4193
aV2404:6800:4005:6::b
p4194
aV2404:6800:4005:5::b
p4195
aV2404:6800:4005:7::b
p4196
aV2404:6800:4005:4::c
p4197
aV2404:6800:4005:4::d
p4198
aV2404:6800:4005:6::d
p4199
aV2404:6800:4005:5::e
p4200
aV2404:6800:4005:5::c
p4201
aV2404:6800:4005:4::e
p4202
aV2404:6800:4005:6::c
p4203
aV2404:6800:4005:5::d
p4204
aV2404:6800:4005:7::d
p4205
aV2404:6800:4005:7::c
p4206
aV2404:6800:4005:4::f
p4207
aV2404:6800:4005:7::f
p4208
aV2404:6800:4005:4::10
p4209
aV2404:6800:4005:6::e
p4210
aV2404:6800:4005:7::e
p4211
aV2404:6800:4005:5::f
p4212
aV2404:6800:4005:6::f
p4213
aV2404:6800:4005:5::10
p4214
aV2404:6800:4005:6::10
p4215
aV2404:6800:4005:7::10
p4216
aV2404:6800:4005:4::11
p4217
aV2404:6800:4005:5::11
p4218
aV2404:6800:4005:6::11
p4219
aV2404:6800:4005:7::11
p4220
aV2404:6800:4005:4::12
p4221
aV2404:6800:4005:5::12
p4222
aV2404:6800:4005:6::12
p4223
aV2404:6800:4005:7::12
p4224
aV2404:6800:4005:4::13
p4225
aV2404:6800:4005:5::13
p4226
aV2404:6800:4005:6::13
p4227
aV2404:6800:4005:4::14
p4228
aV2404:6800:4005:7::13
p4229
aV2404:6800:4005:7::14
p4230
aV2404:6800:4005:5::14
p4231
aV2404:6800:4005:5::15
p4232
aV2404:6800:4005:6::14
p4233
aV2404:6800:4005:6::15
p4234
aV2404:6800:4005:4::15
p4235
aV2404:6800:4005:4::16
p4236
aV2404:6800:4005:7::15
p4237
aV2404:6800:4005:6::16
p4238
aV2404:6800:4005:5::16
p4239
aV2404:6800:4005:7::16
p4240
aV2404:6800:4005:6::17
p4241
aV2404:6800:4005:4::17
p4242
aV2404:6800:4005:7::17
p4243
aV2404:6800:4005:5::17
p4244
ag2477
ag2477
aV2404:6800:4005:4::18
p4245
ag2477
ag2477
ag2477
ag2477
ag2477
ag2477
ag2477
ag2477
ag2477
ag2477
ag2477
ag2477
ag2477
ag2477
ag2477
ag2477
ag2477
ag2477
ag2477
ag2477
ag2477
ag2477
ag2477
ag2477
ag2477
ag2477
ag2477
ag2477
ag2477
ag2477
aV2404:6800:4005:5::18
p4246
aV2404:6800:4005:4::19
p4247
aV2404:6800:4005:7::18
p4248
aV2404:6800:4005:6::18
p4249
aV2404:6800:4005:7::19
p4250
aV2404:6800:4005:6::19
p4251
aV2404:6800:4005:5::19
p4252
ag2477
ag2477
ag2477
ag2477
ag2477
ag2477
ag2477
ag2477
ag2477
ag2477
ag2477
ag2477
ag2477
ag2477
ag2477
ag2477
ag2477
ag2477
ag2477
ag2477
ag2477
ag2477
ag2477
ag2477
ag2477
ag2477
ag2477
ag2477
ag2477
ag2477
ag2477
ag2477
ag2477
ag2477
ag2477
ag2477
ag2477
ag2477
ag2477
ag2477
ag2477
ag2477
ag2477
ag2477
ag2477
ag2477
ag2477
ag2477
aV2607:f8b0:400a:801::100c
p4253
aV2404:6800:4005:800::100a
p4254
aV2607:f8b0:400a:801::100b
p4255
aV2404:6800:4008:c04::80
p4256
aV2a00:1450:4013:c01::84
p4257
aV2607:f8b0:400e:c01::80
p4258
aV2a00:1450:4009:804::100b
p4259
aV2607:f8b0:400c:c03::63
p4260
aV2607:f8b0:400a:801::100b
p4261
aV2a00:1450:400d:803::1014
p4262
aV2a00:1450:4016:801::1014
p4263
aV2607:f8b0:400a:801::100b
p4264
aV2a00:1450:400d:803::1014
p4265
aV2a00:1450:4001:805::100c
p4266
aV2404:6800:4005:800::100c
p4267
aV2607:f8b0:4004:800::1011
p4268
aV2a00:1450:4005:808::100c
p4269
aV2a00:1450:4005:808::100c
p4270
aV2a00:1450:4017:801::100a
p4271
aV2a00:1450:4013:c00::84
p4272
aV2607:f8b0:400a:801::100c
p4273
aV2607:f8b0:400a:801::100c
p4274
aV2607:f8b0:400a:801::100c
p4275
aV2607:f8b0:400a:801::100b
p4276
aV2607:f8b0:400a:800::100b
p4277
aV2607:f8b0:400a:801::100a
p4278
aV2607:f8b0:400a:801::100b
p4279
aV2607:f8b0:400a:801::100b
p4280
aV2607:f8b0:400a:801::100c
p4281
aV2607:f8b0:400a:801::100b
p4282
aV2607:f8b0:400a:801::100b
p4283
aV2607:f8b0:400c:c03::84
p4284
aV2a00:1450:4013:c01::84
p4285
aV2607:f8b0:400a:801::100b
p4286
aV2607:f8b0:400a:801::100b
p4287
aV2607:f8b0:400a:801::100b
p4288
aV2a00:1450:4001:807::100b
p4289
aV2a00:1450:4017:801::100c
p4290
aV2a00:1450:4002:801::100b
p4291
aV2a00:1450:4001:c02::84
p4292
aV2404:6800:4005:800::100a
p4293
aV2607:f8b0:400a:801::100b
p4294
aV2607:f8b0:400a:800::100b
p4295
aV2607:f8b0:400a:801::100c
p4296
aV2607:f8b0:400a:801::100c
p4297
aV2607:f8b0:400a:801::100c
p4298
aV2607:f8b0:400a:801::100c
p4299
aV2607:f8b0:400a:801::100c
p4300
aV2607:f8b0:400a:800::100c
p4301
aV2607:f8b0:400a:800::100a
p4302
aV2607:f8b0:400b:80b::100b
p4303
aV2607:f8b0:400b:80b::100b
p4304
aV2607:f8b0:400b:80b::100c
p4305
aV2607:f8b0:400b:80b::100a
p4306
aV2404:6800:4005:800::100b
p4307
aV2404:6800:4005:800::100b
p4308
aV2a00:1450:4016:801::100a
p4309
aV2a00:1450:4005:808::100a
p4310
aV2404:6800:4005:800::100a
p4311
aV2607:f8b0:400b:80b::100c
p4312
aV2a00:1450:4013:c00::84
p4313
aV2404:6800:4005:800::100a
p4314
aV2a00:1450:4002:801::100b
p4315
aV2607:f8b0:400a:801::100c
p4316
aV2404:6800:4005:800::100b
p4317
aV2404:6800:4005:800::100b
p4318
aV2a00:1450:4017:801::100b
p4319
aV2607:f8b0:4004:800::100a
p4320
aV2a00:1450:4016:801::100c
p4321
aV2a00:1450:4002:802::100b
p4322
aV2607:f8b0:400a:800::100c
p4323
aV2607:f8b0:400a:800::100a
p4324
aV2607:f8b0:400a:801::100a
p4325
aV2607:f8b0:400a:801::100b
p4326
aV2607:f8b0:400a:801::100b
p4327
aV2607:f8b0:400a:801::100b
p4328
aV2607:f8b0:400a:801::100c
p4329
aV2607:f8b0:400a:801::100b
p4330
aV2607:f8b0:400a:801::100c
p4331
aV2607:f8b0:400a:805::100a
p4332
aV2a00:1450:4001:c02::84
p4333
aV2a00:1450:4002:803::100c
p4334
aV2a00:1450:4013:c00::84
p4335
aV2a00:1450:4002:801::100a
p4336
aV2a00:1450:4013:c00::84
p4337
aV2607:f8b0:400a:801::100c
p4338
aV2607:f8b0:400a:800::100b
p4339
aV2a00:1450:4001:c02::84
p4340
aV2a00:1450:4002:801::100b
p4341
aV2607:f8b0:400a:805::100c
p4342
aV2607:f8b0:400a:805::100a
p4343
aV2607:f8b0:400a:805::100a
p4344
aV2a00:1450:4013:c01::84
p4345
aV2607:f8b0:400a:805::100a
p4346
aV2607:f8b0:400a:805::100a
p4347
aV2607:f8b0:400a:801::100a
p4348
aV2607:f8b0:400a:801::100a
p4349
aV2607:f8b0:400a:801::100c
p4350
aV2607:f8b0:400a:805::100a
p4351
aV2607:f8b0:400a:801::100b
p4352
aV2607:f8b0:400b:80b::100c
p4353
aV2a00:1450:4009:804::100a
p4354
aV2a00:1450:4001:c02::84
p4355
aV2607:f8b0:4004:800::100a
p4356
aV2607:f8b0:4009:800::100b
p4357
aV2607:f8b0:4004:800::100b
p4358
aV2a00:1450:4002:802::100a
p4359
aV2a00:1450:4016:801::100a
p4360
aV2607:f8b0:4004:800::100b
p4361
aV2607:f8b0:4004:800::100c
p4362
aV2404:6800:4005:800::100a
p4363
aV2a00:1450:4013:c01::84
p4364
aV2607:f8b0:400b:80b::100c
p4365
aV2a00:1450:4017:801::100c
p4366
aV2607:f8b0:400a:801::100c
p4367
aV2a00:1450:4017:801::100c
p4368
aV2a00:1450:4017:801::100c
p4369
aV2607:f8b0:400a:801::100c
p4370
aV2a00:1450:4017:801::100c
p4371
aV2607:f8b0:400a:801::100c
p4372
aV2607:f8b0:400a:801::100c
p4373
aV2607:f8b0:400a:801::100b
p4374
aV2607:f8b0:400a:801::100c
p4375
aV2607:f8b0:400a:805::100c
p4376
aV2607:f8b0:400a:800::100b
p4377
aV2607:f8b0:400a:800::100a
p4378
aV2607:f8b0:400a:800::100a
p4379
aV2607:f8b0:400a:800::100c
p4380
aV2607:f8b0:400a:800::100a
p4381
aV2a00:1450:4002:801::100c
p4382
aV2a00:1450:4002:801::100b
p4383
aV2a00:1450:4013:c01::84
p4384
aV2404:6800:4005:800::100b
p4385
aV2a00:1450:4016:801::100b
p4386
aV2a00:1450:4017:801::100a
p4387
aV2a00:1450:4013:c00::84
p4388
aV2a00:1450:4013:c00::84
p4389
aV2a00:1450:4002:802::100c
p4390
aV2a00:1450:4016:801::100a
p4391
aV2607:f8b0:400a:800::100b
p4392
aV2607:f8b0:400a:800::100b
p4393
aV2607:f8b0:400a:800::100b
p4394
aV2607:f8b0:400a:805::100b
p4395
aV2607:f8b0:400a:805::100c
p4396
aV2607:f8b0:400a:805::100c
p4397
aV2607:f8b0:400a:805::100c
p4398
aV2607:f8b0:400a:805::100a
p4399
aV2607:f8b0:400a:801::100a
p4400
aV2a00:1450:4005:808::100c
p4401
aV2a00:1450:4005:808::100c
p4402
aV2a00:1450:4005:808::100b
p4403
aV2a00:1450:4016:801::100c
p4404
aV2607:f8b0:4004:800::100a
p4405
aV2a00:1450:4016:801::100a
p4406
aV2a00:1450:4016:801::100b
p4407
aV2a00:1450:4016:801::100a
p4408
aV2607:f8b0:4009:800::100c
p4409
aV2607:f8b0:4009:800::100c
p4410
aV2607:f8b0:400b:80b::100a
p4411
aV2607:f8b0:400b:80b::100c
p4412
aV2607:f8b0:400b:80b::100c
p4413
aV2607:f8b0:4004:800::100c
p4414
aV2a00:1450:4017:801::100b
p4415
aV2a00:1450:4013:c01::84
p4416
aV2a00:1450:4017:801::100b
p4417
aV2a00:1450:4017:801::100b
p4418
aV2a00:1450:4017:801::100b
p4419
aV2404:6800:4005:800::100b
p4420
aV2607:f8b0:400a:801::100c
p4421
aV2607:f8b0:400a:801::100c
p4422
aV2607:f8b0:400a:801::100c
p4423
aV2607:f8b0:400a:800::100b
p4424
aV2607:f8b0:400a:801::100b
p4425
aV2607:f8b0:400a:801::100a
p4426
aV2607:f8b0:400a:801::100b
p4427
aV2607:f8b0:400a:801::100a
p4428
aV2607:f8b0:400a:801::100a
p4429
aV2607:f8b0:400a:801::100c
p4430
aV2a00:1450:4009:804::100a
p4431
aV2a00:1450:4009:804::100c
p4432
aV2a00:1450:4013:c00::84
p4433
aV2a00:1450:4013:c00::84
p4434
aV2a00:1450:4013:c00::84
p4435
aV2607:f8b0:400a:801::100c
p4436
aV2a00:1450:4001:c02::84
p4437
aV2a00:1450:4002:801::100c
p4438
aV2607:f8b0:400a:801::100c
p4439
aV2607:f8b0:400b:80b::100c
p4440
aV2607:f8b0:400a:800::100a
p4441
aV2607:f8b0:400a:801::100a
p4442
aV2404:6800:4006:804::100b
p4443
aV2607:f8b0:400a:805::100c
p4444
aV2607:f8b0:400a:801::100a
p4445
aV2607:f8b0:400a:801::100c
p4446
aV2607:f8b0:400a:805::100c
p4447
aV2607:f8b0:400a:800::100c
p4448
aV2a00:1450:4001:802::100b
p4449
aa.